# file opened: l:\vz-dis-games\DawnPatrol\DawnPatrol.asm
   1  0000              ;***********************************************************************************************
   2  0000              ;
   3  0000              ; 	Dawn Patrol
   4  0000              ;   Disect by Casper 18.02.2020
   5  0000              ;
   6  0000              ;	Verified with SjASMPlus Z80 Cross-Assembler v1.14.3 (https://github.com/z00m128/sjasmplus)
   7  0000              ;-----------------------------------------------------------------------------------------------
   8  0000              ;***********************************************************************************************
   9  0000
  10  0000              	MACRO	FNAME 	filename
  11  0000 ~            .beg		defb 	filename
  12  0000 ~            			block 	16-$+.beg
  13  0000 ~            			defb	0
  14  0000              	ENDM
  15  0000
  16  0000              ; Relative address 7CE8
  17  0000              ;***********************************************************************************************
  18  0000              ; File Header Block
  19  0000 20 20 00 00  	defb 	$20,$20,0,0                  		; [0000] Magic
  20  0004              	FNAME	"DAWNPATROL"						; File name
  20  0004 44 41 57 4E >.beg		defb 	"DAWNPATROL"
  20  0008 50 41 54 52 >
  20  000C 4F 4C       >
  20  000E 00 00 00... >			block 	16-$+.beg
  20  0014 00          >			defb	0
  21  0015 F1           	defb	$F1             					; File Type
  22  0016 00 7D            defw    MAIN        						; Destination/Basic Start address
  23  0018
  24  0018              ;***********************************************************************************************
  25  0018              ; SYSTEM CONSTANTS
  26  0018              IOLATCH         	equ     $6800       		; (WR) Hardware IO Latch, (RD) Keyboard all Keys
  27  0018              VDG_GFX_COLORS_0	equ		%00001000 			; GFX MODE, background Green
  28  0018              VDG_GFX_COLORS_1	equ		%00011000 			; GFX MODE, background Buff
  29  0018              VDG_MODE_CSS_MASK	equ		%00011000  			; mask to keep current Gfx settings
  30  0018              BIT_SPK_MINUS   	equ     00100000b   		; Speake Pin (-)
  31  0018              BIT_SPK_PLUS   		equ     00000001b   		; Speake Pin (+)
  32  0018              SPEAKER_PINS		equ		BIT_SPK_MINUS|BIT_SPK_PLUS
  33  0018              VRAM            	equ     $7000       		; Video RAM GAME_INIT address
  34  0018
  35  0018              ;************************************************************************
  36  0018              ; Keyboard Map              ADRES   |   D5  D4      D3  D2      D1  D0  |
  37  0018              ;-----------------------------------|-----------------------------------|
  38  0018              KEYS_ROW_0  		equ     $68fe   ;   R   Q       E           W   T   |
  39  0018              KEYS_ROW_1  		equ     $68fd   ;   F   A       D   CTRL    S   G   |
  40  0018              KEYS_ROW_2  		equ     $68fb   ;   V   Z       C   SHIFT   X   B   |
  41  0018              KEYS_ROW_4  		equ     $68ef   ;   M   SPACE   ,           .   N   |
  42  0018              KEYS_ROW_6  		equ     $68bf   ;   U   P       I   RETURN  O   Y   |
  43  0018              ;-----------------------------------|-----------------------------------|
  44  0018              KEYS_ROW_0F  		equ     $6ffe   ;   R   Q       E           W   T   |
  45  0018              KEYS_ROW_1F  		equ     $6ffd   ;   F   A       D   CTRL    S   G   |
  46  0018              KEYS_ROW_2F  		equ     $6ffb   ;   V   Z       C   SHIFT   X   B   |
  47  0018              KEYS_ROW_4F  		equ     $6fef   ;   M   SPACE   ,           .   N   |
  48  0018              KEYS_ROW_6F  		equ     $6fbf   ;   U   P       I   RETURN  O   Y   |
  49  0018
  50  0018              JOY_PORT_1			equ		$2a		; Joystick 1 Input IO Port address
  51  0018              JOY_PORT_2			equ		$25		; Joystick 1 Input IO Port address
  52  0018
  53  0018              ;***********************************************************************************************
  54  0018              ; GAME CONSTANTS
  55  0018              JOY_ENABLE			equ		$7800	; 1-joystick enabled, 0-keys only
  56  0018              BASE_SP				equ		$7cf0	; Base Stack Pointer
  57  0018
  58  0018              UP					equ		0		; bit 0 in input bitmask variable
  59  0018              DOWN				equ		1		; bit 1 in input bitmask variable
  60  0018              LEFT				equ		2		; bit 2 in input bitmask variable
  61  0018              RIGHT				equ		3		; bit 3 in input bitmask variable
  62  0018              FIRE				equ		4		; bit 4 in input bitmask variable
  63  0018              ROTATE				equ		5		; bit 5 in input bitmask variable
  64  0018
  65  0018              ;***********************************************************************************************
  66  0018              ;
  67  0018              ;    M A I N   E N T R Y   P O I N T
  68  0018              ;
  69  0018              ;***********************************************************************************************
  70  0018              	org	$7d00
  71  7D00              MAIN
  72  7D00 C3 82 8F     	jp JMP_GAME_INIT				; jump to GAME_INIT									;7d00	c3 82 8f
  73  7D03
  74  7D03
  75  7D03              l7d03h:
  76  7D03 C3 06 7D     	jp l7d06h		;7d03	c3 06 7d 	. . }
  77  7D06              l7d06h:
  78  7D06 F3           	di			;7d06	f3 	.
  79  7D07 31 F0 7C     	ld sp,BASE_SP			; reset CPU Stack Pointer to base address			;7d07	31 f0 7c
  80  7D0A              l7d0ah:
  81  7D0A 21 C5 A9     	ld hl,la9c5h		;7d0a	21 c5 a9 	! . .
  82  7D0D 11 01 78     	ld de,07801h		;7d0d	11 01 78 	. . x
  83  7D10 01 10 00     	ld bc,00010h		;7d10	01 10 00 	. . .
  84  7D13 ED B0        	ldir		;7d13	ed b0 	. .
  85  7D15 21 12 78     	ld hl,07812h		;7d15	21 12 78 	! . x
  86  7D18 11 13 78     	ld de,07813h		;7d18	11 13 78 	. . x
  87  7D1B 01 0A 00     	ld bc,0000ah		;7d1b	01 0a 00 	. . .
  88  7D1E 36 00        	ld (hl),000h		;7d1e	36 00 	6 .
  89  7D20 ED B0        	ldir		;7d20	ed b0 	. .
  90  7D22 21 17 78     	ld hl,07817h		;7d22	21 17 78 	! . x
  91  7D25 36 04        	ld (hl),004h		;7d25	36 04 	6 .
  92  7D27 3E 04        	ld a,004h		;7d27	3e 04 	> .
  93  7D29 32 11 78     	ld (07811h),a		;7d29	32 11 78 	2 . x
  94  7D2C AF           	xor a			;7d2c	af 	.
  95  7D2D 32 1D 78     	ld (0781dh),a		;7d2d	32 1d 78 	2 . x
  96  7D30              l7d30h:
  97  7D30 21 1E 78     	ld hl,0781eh		;7d30	21 1e 78 	! . x
  98  7D33 11 1F 78     	ld de,0781fh		;7d33	11 1f 78 	. . x
  99  7D36 01 EF 00     	ld bc,000efh		;7d36	01 ef 00 	. . .
 100  7D39 36 00        	ld (hl),000h		;7d39	36 00 	6 .
 101  7D3B ED B0        	ldir		;7d3b	ed b0 	. .
 102  7D3D 21 1A 78     	ld hl,0781ah		;7d3d	21 1a 78 	! . x
 103  7D40 3E 09        	ld a,009h		;7d40	3e 09 	> .
 104  7D42 77           	ld (hl),a			;7d42	77 	w
 105  7D43 23           	inc hl			;7d43	23 	#
 106  7D44 77           	ld (hl),a			;7d44	77 	w
 107  7D45 23           	inc hl			;7d45	23 	#
 108  7D46 77           	ld (hl),a			;7d46	77 	w
 109  7D47 21 2C 01     	ld hl,0012ch		;7d47	21 2c 01 	! , .
 110  7D4A 22 09 79     	ld (07909h),hl		;7d4a	22 09 79 	" . y
 111  7D4D 22 0B 79     	ld (0790bh),hl		;7d4d	22 0b 79 	" . y
 112  7D50 21 0F AA     	ld hl,laa0fh		;7d50	21 0f aa 	! . .
 113  7D53 11 1F 78     	ld de,0781fh		;7d53	11 1f 78 	. . x
 114  7D56 01 10 00     	ld bc,00010h		;7d56	01 10 00 	. . .
 115  7D59 ED B0        	ldir		;7d59	ed b0 	. .
 116  7D5B 21 73 AB     	ld hl,0ab73h		;7d5b	21 73 ab 	! s .
 117  7D5E 22 06 79     	ld (07906h),hl		;7d5e	22 06 79 	" . y
 118  7D61 3E F2        	ld a,0f2h		;7d61	3e f2 	> .
 119  7D63 32 08 79     	ld (07908h),a		;7d63	32 08 79 	2 . y
 120  7D66 3E 01        	ld a,001h		;7d66	3e 01 	> .
 121  7D68 32 F9 78     	ld (078f9h),a		;7d68	32 f9 78 	2 . x
 122  7D6B 32 BE 78     	ld (078beh),a		;7d6b	32 be 78 	2 . x
 123  7D6E 32 C4 78     	ld (078c4h),a		;7d6e	32 c4 78 	2 . x
 124  7D71 32 CA 78     	ld (078cah),a		;7d71	32 ca 78 	2 . x
 125  7D74 32 D0 78     	ld (078d0h),a		;7d74	32 d0 78 	2 . x
 126  7D77 32 D6 78     	ld (078d6h),a		;7d77	32 d6 78 	2 . x
 127  7D7A 32 87 78     	ld (07887h),a		;7d7a	32 87 78 	2 . x
 128  7D7D 32 8D 78     	ld (0788dh),a		;7d7d	32 8d 78 	2 . x
 129  7D80 3E 35        	ld a,035h		;7d80	3e 35 	> 5
 130  7D82 32 00 79     	ld (07900h),a		;7d82	32 00 79 	2 . y
 131  7D85 3E F0        	ld a,0f0h		;7d85	3e f0 	> .
 132  7D87 32 05 79     	ld (07905h),a		;7d87	32 05 79 	2 . y
 133  7D8A AF           	xor a			;7d8a	af 	.
 134  7D8B 32 01 79     	ld (07901h),a		;7d8b	32 01 79 	2 . y
 135  7D8E 21 D5 B3     	ld hl,0b3d5h		;7d8e	21 d5 b3 	! . .
 136  7D91 22 FE 78     	ld (078feh),hl		;7d91	22 fe 78 	" . x
 137  7D94 3E 98        	ld a,098h		;7d94	3e 98 	> .
 138  7D96 32 02 79     	ld (07902h),a		;7d96	32 02 79 	2 . y
 139  7D99 AF           	xor a			;7d99	af 	.
 140  7D9A 32 03 79     	ld (07903h),a		;7d9a	32 03 79 	2 . y
 141  7D9D 32 04 79     	ld (07904h),a		;7d9d	32 04 79 	2 . y
 142  7DA0 3E 96        	ld a,096h		;7da0	3e 96 	> .
 143  7DA2 32 F7 78     	ld (078f7h),a		;7da2	32 f7 78 	2 . x
 144  7DA5 32 F8 78     	ld (078f8h),a		;7da5	32 f8 78 	2 . x
 145  7DA8 CD DE 8D     	call sub_8ddeh		;7da8	cd de 8d 	. . .
 146  7DAB 21 D5 A9     	ld hl,la9d5h		;7dab	21 d5 a9 	! . .
 147  7DAE 11 9A 78     	ld de,0789ah		;7dae	11 9a 78 	. . x
 148  7DB1 01 1C 00     	ld bc,0001ch		;7db1	01 1c 00 	. . .
 149  7DB4 ED B0        	ldir		;7db4	ed b0 	. .
 150  7DB6 21 F1 A9     	ld hl,la9f1h		;7db6	21 f1 a9 	! . .
 151  7DB9 11 D7 78     	ld de,078d7h		;7db9	11 d7 78 	. . x
 152  7DBC 01 1E 00     	ld bc,0001eh		;7dbc	01 1e 00 	. . .
 153  7DBF ED B0        	ldir		;7dbf	ed b0 	. .
 154  7DC1              l7dc1h:
 155  7DC1 00           	nop			;7dc1	00 	.
 156  7DC2 CD 16 7E     	call sub_7e16h		;7dc2	cd 16 7e 	. . ~
 157  7DC5 CD 0C 7E     	call sub_7e0ch		;7dc5	cd 0c 7e 	. . ~
 158  7DC8 CD 2A 7E     	call sub_7e2ah		;7dc8	cd 2a 7e 	. * ~
 159  7DCB CD F7 7E     	call sub_7ef7h		;7dcb	cd f7 7e 	. . ~
 160  7DCE CD 4A 7F     	call sub_7f4ah		;7dce	cd 4a 7f 	. J 
 161  7DD1 CD FC 89     	call sub_89fch		;7dd1	cd fc 89 	. . .
 162  7DD4 CD 4E 89     	call sub_894eh		;7dd4	cd 4e 89 	. N .
 163  7DD7 CD C9 7F     	call sub_7fc9h		;7dd7	cd c9 7f 	. . 
 164  7DDA CD 1F 80     	call sub_801fh		;7dda	cd 1f 80 	. . .
 165  7DDD CD 4D 81     	call sub_814dh		;7ddd	cd 4d 81 	. M .
 166  7DE0 CD 23 82     	call sub_8223h		;7de0	cd 23 82 	. # .
 167  7DE3 CD 94 83     	call sub_8394h		;7de3	cd 94 83 	. . .
 168  7DE6 CD 32 83     	call sub_8332h		;7de6	cd 32 83 	. 2 .
 169  7DE9 CD FD 83     	call sub_83fdh		;7de9	cd fd 83 	. . .
 170  7DEC CD 22 84     	call sub_8422h		;7dec	cd 22 84 	. " .
 171  7DEF CD 56 84     	call sub_8456h		;7def	cd 56 84 	. V .
 172  7DF2 CD A9 85     	call sub_85a9h		;7df2	cd a9 85 	. . .
 173  7DF5 CD 80 85     	call sub_8580h		;7df5	cd 80 85 	. . .
 174  7DF8 CD 37 7F     	call sub_7f37h		;7df8	cd 37 7f 	. 7 
 175  7DFB 3A DF 68     	ld a,(068dfh)		;7dfb	3a df 68 	: . h
 176  7DFE CB 57        	bit 2,a		;7dfe	cb 57 	. W
 177  7E00 20 BF        	jr nz,l7dc1h		;7e00	20 bf 	  .
 178  7E02 3A FD 68     	ld a,(KEYS_ROW_1)		; select Keyboard row 1 								;7e02	3a fd 68
 179  7E05 CB 57        	bit 2,a					; check if key 'CTRL' is pressed?						;7e05	cb 57
 180  7E07 CA 7C 8F     	jp z,l8f7ch				; yes - ;7e07	ca 7c 8f 	. | .
 181  7E0A 18 B5        	jr l7dc1h		;7e0a	18 b5 	. .
 182  7E0C              sub_7e0ch:
 183  7E0C CD 76 8F     	call sub_8f76h		;7e0c	cd 76 8f 	. v .
 184  7E0F C8           	ret z			;7e0f	c8 	.
 185  7E10 3E 0A        	ld a,00ah		;7e10	3e 0a 	> .
 186  7E12 32 35 7B     	ld (07b35h),a		;7e12	32 35 7b 	2 5 {
 187  7E15 C9           	ret			;7e15	c9 	.
 188  7E16              sub_7e16h:
 189  7E16 CD 73 8F     	call sub_8f73h		;7e16	cd 73 8f 	. s .
 190  7E19 C8           	ret z			;7e19	c8 	.
 191  7E1A 3E 01        	ld a,001h		;7e1a	3e 01 	> .
 192  7E1C              l7e1ch:
 193  7E1C F5           	push af			;7e1c	f5 	.
 194  7E1D CD A3 85     	call sub_85a3h		;7e1d	cd a3 85 	. . .
 195  7E20 CD A3 85     	call sub_85a3h		;7e20	cd a3 85 	. . .
 196  7E23 CD A3 85     	call sub_85a3h		;7e23	cd a3 85 	. . .
 197  7E26 F1           	pop af			;7e26	f1 	.
 198  7E27 C3 7F 8F     	jp l8f7fh		;7e27	c3 7f 8f 	.  .
 199  7E2A              sub_7e2ah:
 200  7E2A 21 3C 78     	ld hl,0783ch		;7e2a	21 3c 78 	! < x
 201  7E2D 35           	dec (hl)			;7e2d	35 	5
 202  7E2E C0           	ret nz			;7e2e	c0 	.
 203  7E2F 36 64        	ld (hl),064h		;7e2f	36 64 	6 d
 204  7E31 DD 21 01 78  	ld ix,07801h		;7e31	dd 21 01 78 	. ! . x
 205  7E35 3E 04        	ld a,004h		;7e35	3e 04 	> .
 206  7E37              l7e37h:
 207  7E37 F5           	push af			;7e37	f5 	.
 208  7E38 CD 72 7E     	call sub_7e72h		;7e38	cd 72 7e 	. r ~
 209  7E3B 01 04 00     	ld bc,00004h		;7e3b	01 04 00 	. . .
 210  7E3E DD 09        	add ix,bc		;7e3e	dd 09 	. .
 211  7E40 F1           	pop af			;7e40	f1 	.
 212  7E41 3D           	dec a			;7e41	3d 	=
 213  7E42 20 F3        	jr nz,l7e37h		;7e42	20 f3 	  .
 214  7E44 C9           	ret			;7e44	c9 	.
 215  7E45              sub_7e45h:
 216  7E45 DD 7E 02     	ld a,(ix+002h)		;7e45	dd 7e 02 	. ~ .
 217  7E48 B7           	or a			;7e48	b7 	.
 218  7E49 28 23        	jr z,l7e6eh		;7e49	28 23 	( #
 219  7E4B 3A 35 78     	ld a,(07835h)		;7e4b	3a 35 78 	: 5 x
 220  7E4E B7           	or a			;7e4e	b7 	.
 221  7E4F C0           	ret nz			;7e4f	c0 	.
 222  7E50 3A 00 79     	ld a,(07900h)		;7e50	3a 00 79 	: . y
 223  7E53 FE 35        	cp 035h		;7e53	fe 35 	. 5
 224  7E55 20 17        	jr nz,l7e6eh		;7e55	20 17 	  .
 225  7E57 CD D2 83     	call sub_83d2h		;7e57	cd d2 83 	. . .
 226  7E5A DD 46 01     	ld b,(ix+001h)		;7e5a	dd 46 01 	. F .
 227  7E5D B8           	cp b			;7e5d	b8 	.
 228  7E5E 28 0C        	jr z,l7e6ch		;7e5e	28 0c 	( .
 229  7E60 04           	inc b			;7e60	04 	.
 230  7E61 B8           	cp b			;7e61	b8 	.
 231  7E62 28 08        	jr z,l7e6ch		;7e62	28 08 	( .
 232  7E64 04           	inc b			;7e64	04 	.
 233  7E65 B8           	cp b			;7e65	b8 	.
 234  7E66 28 04        	jr z,l7e6ch		;7e66	28 04 	( .
 235  7E68 04           	inc b			;7e68	04 	.
 236  7E69 B8           	cp b			;7e69	b8 	.
 237  7E6A 20 02        	jr nz,l7e6eh		;7e6a	20 02 	  .
 238  7E6C              l7e6ch:
 239  7E6C AF           	xor a			;7e6c	af 	.
 240  7E6D C9           	ret			;7e6d	c9 	.
 241  7E6E              l7e6eh:
 242  7E6E 3E 01        	ld a,001h		;7e6e	3e 01 	> .
 243  7E70 B7           	or a			;7e70	b7 	.
 244  7E71 C9           	ret			;7e71	c9 	.
 245  7E72              sub_7e72h:
 246  7E72 DD CB 03 46  	bit 0,(ix+003h)		;7e72	dd cb 03 46 	. . . F
 247  7E76 20 0F        	jr nz,l7e87h		;7e76	20 0f 	  .
 248  7E78 CD 45 7E     	call sub_7e45h		;7e78	cd 45 7e 	. E ~
 249  7E7B C0           	ret nz			;7e7b	c0 	.
 250  7E7C CD EE 7E     	call sub_7eeeh		;7e7c	cd ee 7e 	. . ~
 251  7E7F DD 77 00     	ld (ix+000h),a		;7e7f	dd 77 00 	. w .
 252  7E82 DD 36 03 01  	ld (ix+003h),001h		;7e82	dd 36 03 01 	. 6 . .
 253  7E86 C9           	ret			;7e86	c9 	.
 254  7E87              l7e87h:
 255  7E87 CD 45 7E     	call sub_7e45h		;7e87	cd 45 7e 	. E ~
 256  7E8A 28 20        	jr z,l7each		;7e8a	28 20 	(
 257  7E8C DD CB 03 4E  	bit 1,(ix+003h)		;7e8c	dd cb 03 4e 	. . . N
 258  7E90 20 05        	jr nz,l7e97h		;7e90	20 05 	  .
 259  7E92 DD CB 03 CE  	set 1,(ix+003h)		;7e92	dd cb 03 ce 	. . . .
 260  7E96 C9           	ret			;7e96	c9 	.
 261  7E97              l7e97h:
 262  7E97 CD EE 7E     	call sub_7eeeh		;7e97	cd ee 7e 	. . ~
 263  7E9A DD BE 00     	cp (ix+000h)		;7e9a	dd be 00 	. . .
 264  7E9D 28 08        	jr z,l7ea7h		;7e9d	28 08 	( .
 265  7E9F DD CB 03 8E  	res 1,(ix+003h)		;7e9f	dd cb 03 8e 	. . . .
 266  7EA3 DD 34 00     	inc (ix+000h)		;7ea3	dd 34 00 	. 4 .
 267  7EA6 C9           	ret			;7ea6	c9 	.
 268  7EA7              l7ea7h:
 269  7EA7 DD 36 03 00  	ld (ix+003h),000h		;7ea7	dd 36 03 00 	. 6 . .
 270  7EAB C9           	ret			;7eab	c9 	.
 271  7EAC              l7each:
 272  7EAC DD CB 03 4E  	bit 1,(ix+003h)		;7eac	dd cb 03 4e 	. . . N
 273  7EB0 28 05        	jr z,l7eb7h		;7eb0	28 05 	( .
 274  7EB2 DD CB 03 8E  	res 1,(ix+003h)		;7eb2	dd cb 03 8e 	. . . .
 275  7EB6 C9           	ret			;7eb6	c9 	.
 276  7EB7              l7eb7h:
 277  7EB7 CD D2 83     	call sub_83d2h		;7eb7	cd d2 83 	. . .
 278  7EBA 3C           	inc a			;7eba	3c 	<
 279  7EBB 3C           	inc a			;7ebb	3c 	<
 280  7EBC DD BE 00     	cp (ix+000h)		;7ebc	dd be 00 	. . .
 281  7EBF 28 08        	jr z,l7ec9h		;7ebf	28 08 	( .
 282  7EC1 DD CB 03 CE  	set 1,(ix+003h)		;7ec1	dd cb 03 ce 	. . . .
 283  7EC5 DD 35 00     	dec (ix+000h)		;7ec5	dd 35 00 	. 5 .
 284  7EC8 C9           	ret			;7ec8	c9 	.
 285  7EC9              l7ec9h:
 286  7EC9 DD 35 02     	dec (ix+002h)		;7ec9	dd 35 02 	. 5 .
 287  7ECC DD 36 03 00  	ld (ix+003h),000h		;7ecc	dd 36 03 00 	. 6 . .
 288  7ED0 3A 2F 78     	ld a,(0782fh)		;7ed0	3a 2f 78 	: / x
 289  7ED3 3C           	inc a			;7ed3	3c 	<
 290  7ED4 32 2F 78     	ld (0782fh),a		;7ed4	32 2f 78 	2 / x
 291  7ED7 21 30 78     	ld hl,07830h		;7ed7	21 30 78 	! 0 x
 292  7EDA DD 7E 01     	ld a,(ix+001h)		;7eda	dd 7e 01 	. ~ .
 293  7EDD FE 1C        	cp 01ch		;7edd	fe 1c 	. .
 294  7EDF 28 0B        	jr z,l7eech		;7edf	28 0b 	( .
 295  7EE1 23           	inc hl			;7ee1	23 	#
 296  7EE2 FE 53        	cp 053h		;7ee2	fe 53 	. S
 297  7EE4 28 06        	jr z,l7eech		;7ee4	28 06 	( .
 298  7EE6 23           	inc hl			;7ee6	23 	#
 299  7EE7 FE 8A        	cp 08ah		;7ee7	fe 8a 	. .
 300  7EE9 28 01        	jr z,l7eech		;7ee9	28 01 	( .
 301  7EEB 23           	inc hl			;7eeb	23 	#
 302  7EEC              l7eech:
 303  7EEC 34           	inc (hl)			;7eec	34 	4
 304  7EED C9           	ret			;7eed	c9 	.
 305  7EEE              sub_7eeeh:
 306  7EEE DD 7E 01     	ld a,(ix+001h)		;7eee	dd 7e 01 	. ~ .
 307  7EF1 06 08        	ld b,008h		;7ef1	06 08 	. .
 308  7EF3              l7ef3h:
 309  7EF3 3C           	inc a			;7ef3	3c 	<
 310  7EF4 10 FD        	djnz l7ef3h		;7ef4	10 fd 	. .
 311  7EF6 C9           	ret			;7ef6	c9 	.
 312  7EF7              sub_7ef7h:
 313  7EF7 3A 35 78     	ld a,(07835h)		;7ef7	3a 35 78 	: 5 x
 314  7EFA B7           	or a			;7efa	b7 	.
 315  7EFB C8           	ret z			;7efb	c8 	.
 316  7EFC 21 36 78     	ld hl,07836h		;7efc	21 36 78 	! 6 x
 317  7EFF 35           	dec (hl)			;7eff	35 	5
 318  7F00 C0           	ret nz			;7f00	c0 	.
 319  7F01 36 3C        	ld (hl),03ch		;7f01	36 3c 	6 <
 320  7F03 3A 00 79     	ld a,(07900h)		;7f03	3a 00 79 	: . y
 321  7F06 FE 35        	cp 035h		;7f06	fe 35 	. 5
 322  7F08 28 06        	jr z,l7f10h		;7f08	28 06 	( .
 323  7F0A CD 19 84     	call sub_8419h		;7f0a	cd 19 84 	. . .
 324  7F0D C3 C1 84     	jp l84c1h		;7f0d	c3 c1 84 	. . .
 325  7F10              l7f10h:
 326  7F10 CD D2 83     	call sub_83d2h		;7f10	cd d2 83 	. . .
 327  7F13 47           	ld b,a			;7f13	47 	G
 328  7F14 0E 06        	ld c,006h		;7f14	0e 06 	. .
 329  7F16 04           	inc b			;7f16	04 	.
 330  7F17 16 80        	ld d,080h		;7f17	16 80 	. .
 331  7F19 CD C3 89     	call sub_89c3h		;7f19	cd c3 89 	. . .
 332  7F1C 21 35 78     	ld hl,07835h		;7f1c	21 35 78 	! 5 x
 333  7F1F 35           	dec (hl)			;7f1f	35 	5
 334  7F20 C0           	ret nz			;7f20	c0 	.
 335  7F21 3A 2F 78     	ld a,(0782fh)		;7f21	3a 2f 78 	: / x
 336  7F24 21 1D 78     	ld hl,0781dh		;7f24	21 1d 78 	! . x
 337  7F27 86           	add a,(hl)			;7f27	86 	.
 338  7F28 77           	ld (hl),a			;7f28	77 	w
 339  7F29 3A 11 78     	ld a,(07811h)		;7f29	3a 11 78 	: . x
 340  7F2C 3D           	dec a			;7f2c	3d 	=
 341  7F2D 32 11 78     	ld (07811h),a		;7f2d	32 11 78 	2 . x
 342  7F30 C2 30 7D     	jp nz,l7d30h		;7f30	c2 30 7d 	. 0 }
 343  7F33 AF           	xor a			;7f33	af 	.
 344  7F34 C3 1C 7E     	jp l7e1ch		;7f34	c3 1c 7e 	. . ~
 345  7F37              sub_7f37h:
 346  7F37 3A 34 78     	ld a,(07834h)		;7f37	3a 34 78 	: 4 x
 347  7F3A 3D           	dec a			;7f3a	3d 	=
 348  7F3B 32 34 78     	ld (07834h),a		;7f3b	32 34 78 	2 4 x
 349  7F3E C0           	ret nz			;7f3e	c0 	.
 350  7F3F 3A 1D 78     	ld a,(0781dh)		;7f3f	3a 1d 78 	: . x
 351  7F42 FE 50        	cp 050h		;7f42	fe 50 	. P
 352  7F44 C0           	ret nz			;7f44	c0 	.
 353  7F45 3E 02        	ld a,002h		;7f45	3e 02 	> .
 354  7F47 C3 1C 7E     	jp l7e1ch		;7f47	c3 1c 7e 	. . ~
 355  7F4A              sub_7f4ah:
 356  7F4A 3A 38 78     	ld a,(07838h)		;7f4a	3a 38 78 	: 8 x
 357  7F4D B7           	or a			;7f4d	b7 	.
 358  7F4E 28 05        	jr z,l7f55h		;7f4e	28 05 	( .
 359  7F50 3D           	dec a			;7f50	3d 	=
 360  7F51 32 38 78     	ld (07838h),a		;7f51	32 38 78 	2 8 x
 361  7F54 C9           	ret			;7f54	c9 	.
 362  7F55              l7f55h:
 363  7F55 CD F0 8E     	call sub_8ef0h		;7f55	cd f0 8e 	. . .
 364  7F58 CB 67        	bit 4,a		;7f58	cb 67 	. g
 365  7F5A 20 05        	jr nz,l7f61h		;7f5a	20 05 	  .
 366  7F5C AF           	xor a			;7f5c	af 	.
 367  7F5D 32 39 78     	ld (07839h),a		;7f5d	32 39 78 	2 9 x
 368  7F60 C9           	ret			;7f60	c9 	.
 369  7F61              l7f61h:
 370  7F61 3A 39 78     	ld a,(07839h)		;7f61	3a 39 78 	: 9 x
 371  7F64 B7           	or a			;7f64	b7 	.
 372  7F65 C0           	ret nz			;7f65	c0 	.
 373  7F66 DD 21 6A 78  	ld ix,0786ah		;7f66	dd 21 6a 78 	. ! j x
 374  7F6A 3E 06        	ld a,006h		;7f6a	3e 06 	> .
 375  7F6C              l7f6ch:
 376  7F6C F5           	push af			;7f6c	f5 	.
 377  7F6D CD 7D 7F     	call sub_7f7dh		;7f6d	cd 7d 7f 	. } 
 378  7F70 DD 23        	inc ix		;7f70	dd 23 	. #
 379  7F72 DD 23        	inc ix		;7f72	dd 23 	. #
 380  7F74 DD 23        	inc ix		;7f74	dd 23 	. #
 381  7F76 DD 23        	inc ix		;7f76	dd 23 	. #
 382  7F78 F1           	pop af			;7f78	f1 	.
 383  7F79 3D           	dec a			;7f79	3d 	=
 384  7F7A 20 F0        	jr nz,l7f6ch		;7f7a	20 f0 	  .
 385  7F7C C9           	ret			;7f7c	c9 	.
 386  7F7D              sub_7f7dh:
 387  7F7D DD CB 03 5E  	bit 3,(ix+003h)		;7f7d	dd cb 03 5e 	. . . ^
 388  7F81 C0           	ret nz			;7f81	c0 	.
 389  7F82 E1           	pop hl			;7f82	e1 	.
 390  7F83 E1           	pop hl			;7f83	e1 	.
 391  7F84 3A 00 79     	ld a,(07900h)		;7f84	3a 00 79 	: . y
 392  7F87 FE 32        	cp 032h		;7f87	fe 32 	. 2
 393  7F89 F0           	ret p			;7f89	f0 	.
 394  7F8A 3E 14        	ld a,014h		;7f8a	3e 14 	> .
 395  7F8C 32 38 78     	ld (07838h),a		;7f8c	32 38 78 	2 8 x
 396  7F8F 32 39 78     	ld (07839h),a		;7f8f	32 39 78 	2 9 x
 397  7F92 CD D2 83     	call sub_83d2h		;7f92	cd d2 83 	. . .
 398  7F95 3D           	dec a			;7f95	3d 	=
 399  7F96 DD 77 00     	ld (ix+000h),a		;7f96	dd 77 00 	. w .
 400  7F99 3A 00 79     	ld a,(07900h)		;7f99	3a 00 79 	: . y
 401  7F9C CD 93 80     	call sub_8093h		;7f9c	cd 93 80 	. . .
 402  7F9F DD 36 02 3C  	ld (ix+002h),03ch		;7f9f	dd 36 02 3c 	. 6 . <
 403  7FA3 3A 02 79     	ld a,(07902h)		;7fa3	3a 02 79 	: . y
 404  7FA6 E6 03        	and 003h		;7fa6	e6 03 	. .
 405  7FA8 F6 08        	or 008h		;7fa8	f6 08 	. .
 406  7FAA DD 77 03     	ld (ix+003h),a		;7faa	dd 77 03 	. w .
 407  7FAD E6 03        	and 003h		;7fad	e6 03 	. .
 408  7FAF C8           	ret z			;7faf	c8 	.
 409  7FB0 FE 01        	cp 001h		;7fb0	fe 01 	. .
 410  7FB2 28 0C        	jr z,l7fc0h		;7fb2	28 0c 	( .
 411  7FB4 DD 7E 00     	ld a,(ix+000h)		;7fb4	dd 7e 00 	. ~ .
 412  7FB7 C6 03        	add a,003h		;7fb7	c6 03 	. .
 413  7FB9 DD 77 00     	ld (ix+000h),a		;7fb9	dd 77 00 	. w .
 414  7FBC DD 35 01     	dec (ix+001h)		;7fbc	dd 35 01 	. 5 .
 415  7FBF C9           	ret			;7fbf	c9 	.
 416  7FC0              l7fc0h:
 417  7FC0 DD 7E 00     	ld a,(ix+000h)		;7fc0	dd 7e 00 	. ~ .
 418  7FC3 C6 07        	add a,007h		;7fc3	c6 07 	. .
 419  7FC5 DD 77 00     	ld (ix+000h),a		;7fc5	dd 77 00 	. w .
 420  7FC8 C9           	ret			;7fc8	c9 	.
 421  7FC9              sub_7fc9h:
 422  7FC9 21 3A 78     	ld hl,0783ah		;7fc9	21 3a 78 	! : x
 423  7FCC 35           	dec (hl)			;7fcc	35 	5
 424  7FCD C0           	ret nz			;7fcd	c0 	.
 425  7FCE 36 19        	ld (hl),019h		;7fce	36 19 	6 .
 426  7FD0 DD 21 8E 78  	ld ix,0788eh		;7fd0	dd 21 8e 78 	. ! . x
 427  7FD4 CD DF 7F     	call sub_7fdfh		;7fd4	cd df 7f 	. . 
 428  7FD7 DD 21 94 78  	ld ix,07894h		;7fd7	dd 21 94 78 	. ! . x
 429  7FDB CD DF 7F     	call sub_7fdfh		;7fdb	cd df 7f 	. . 
 430  7FDE C9           	ret			;7fde	c9 	.
 431  7FDF              sub_7fdfh:
 432  7FDF DD CB 05 46  	bit 0,(ix+005h)		;7fdf	dd cb 05 46 	. . . F
 433  7FE3 C8           	ret z			;7fe3	c8 	.
 434  7FE4 DD 35 02     	dec (ix+002h)		;7fe4	dd 35 02 	. 5 .
 435  7FE7 20 05        	jr nz,l7feeh		;7fe7	20 05 	  .
 436  7FE9 DD 36 05 00  	ld (ix+005h),000h		;7fe9	dd 36 05 00 	. 6 . .
 437  7FED C9           	ret			;7fed	c9 	.
 438  7FEE              l7feeh:
 439  7FEE DD CB 04 46  	bit 0,(ix+004h)		;7fee	dd cb 04 46 	. . . F
 440  7FF2 28 13        	jr z,l8007h		;7ff2	28 13 	( .
 441  7FF4 DD CB 03 46  	bit 0,(ix+003h)		;7ff4	dd cb 03 46 	. . . F
 442  7FF8 20 05        	jr nz,l7fffh		;7ff8	20 05 	  .
 443  7FFA DD CB 03 C6  	set 0,(ix+003h)		;7ffa	dd cb 03 c6 	. . . .
 444  7FFE C9           	ret			;7ffe	c9 	.
 445  7FFF              l7fffh:
 446  7FFF DD CB 03 86  	res 0,(ix+003h)		;7fff	dd cb 03 86 	. . . .
 447  8003 DD 34 00     	inc (ix+000h)		;8003	dd 34 00 	. 4 .
 448  8006 C9           	ret			;8006	c9 	.
 449  8007              l8007h:
 450  8007 DD CB 03 46  	bit 0,(ix+003h)		;8007	dd cb 03 46 	. . . F
 451  800B 28 05        	jr z,l8012h		;800b	28 05 	( .
 452  800D DD CB 03 86  	res 0,(ix+003h)		;800d	dd cb 03 86 	. . . .
 453  8011 C9           	ret			;8011	c9 	.
 454  8012              l8012h:
 455  8012 DD 7E 00     	ld a,(ix+000h)		;8012	dd 7e 00 	. ~ .
 456  8015 B7           	or a			;8015	b7 	.
 457  8016 C8           	ret z			;8016	c8 	.
 458  8017 DD 35 00     	dec (ix+000h)		;8017	dd 35 00 	. 5 .
 459  801A DD CB 03 C6  	set 0,(ix+003h)		;801a	dd cb 03 c6 	. . . .
 460  801E C9           	ret			;801e	c9 	.
 461  801F              sub_801fh:
 462  801F 21 3D 78     	ld hl,0783dh		;801f	21 3d 78 	! = x
 463  8022 35           	dec (hl)			;8022	35 	5
 464  8023 C0           	ret nz			;8023	c0 	.
 465  8024 36 46        	ld (hl),046h		;8024	36 46 	6 F
 466  8026 FD 21 8E 78  	ld iy,0788eh		;8026	fd 21 8e 78 	. ! . x
 467  802A DD 21 82 78  	ld ix,07882h		;802a	dd 21 82 78 	. ! . x
 468  802E CD 3C 80     	call sub_803ch		;802e	cd 3c 80 	. < .
 469  8031 01 06 00     	ld bc,00006h		;8031	01 06 00 	. . .
 470  8034 DD 09        	add ix,bc		;8034	dd 09 	. .
 471  8036 FD 09        	add iy,bc		;8036	fd 09 	. .
 472  8038 CD 3C 80     	call sub_803ch		;8038	cd 3c 80 	. < .
 473  803B C9           	ret			;803b	c9 	.
 474  803C              sub_803ch:
 475  803C DD 7E 05     	ld a,(ix+005h)		;803c	dd 7e 05 	. ~ .
 476  803F CB 7F        	bit 7,a		;803f	cb 7f 	. 
 477  8041 20 58        	jr nz,l809bh		;8041	20 58 	  X
 478  8043 FD CB 05 46  	bit 0,(iy+005h)		;8043	fd cb 05 46 	. . . F
 479  8047 C0           	ret nz			;8047	c0 	.
 480  8048 3D           	dec a			;8048	3d 	=
 481  8049 28 04        	jr z,l804fh		;8049	28 04 	( .
 482  804B DD 77 05     	ld (ix+005h),a		;804b	dd 77 05 	. w .
 483  804E C9           	ret			;804e	c9 	.
 484  804F              l804fh:
 485  804F 3A 00 79     	ld a,(07900h)		;804f	3a 00 79 	: . y
 486  8052 FE 2D        	cp 02dh		;8052	fe 2d 	. -
 487  8054 F0           	ret p			;8054	f0 	.
 488  8055 CD D2 83     	call sub_83d2h		;8055	cd d2 83 	. . .
 489  8058 CB 7F        	bit 7,a		;8058	cb 7f 	. 
 490  805A C0           	ret nz			;805a	c0 	.
 491  805B FE 6E        	cp 06eh		;805b	fe 6e 	. n
 492  805D F0           	ret p			;805d	f0 	.
 493  805E 47           	ld b,a			;805e	47 	G
 494  805F ED 5F        	ld a,r		;805f	ed 5f 	. _
 495  8061 E6 01        	and 001h		;8061	e6 01 	. .
 496  8063 4F           	ld c,a			;8063	4f 	O
 497  8064 78           	ld a,b			;8064	78 	x
 498  8065 D6 10        	sub 010h		;8065	d6 10 	. .
 499  8067 CB 41        	bit 0,c		;8067	cb 41 	. A
 500  8069 20 02        	jr nz,l806dh		;8069	20 02 	  .
 501  806B C6 20        	add a,020h		;806b	c6 20 	.
 502  806D              l806dh:
 503  806D DD 77 00     	ld (ix+000h),a		;806d	dd 77 00 	. w .
 504  8070 79           	ld a,c			;8070	79 	y
 505  8071 0F           	rrca			;8071	0f 	.
 506  8072 DD 77 03     	ld (ix+003h),a		;8072	dd 77 03 	. w .
 507  8075 DD 36 04 01  	ld (ix+004h),001h		;8075	dd 36 04 01 	. 6 . .
 508  8079 DD 36 02 34  	ld (ix+002h),034h		;8079	dd 36 02 34 	. 6 . 4
 509  807D ED 5F        	ld a,r		;807d	ed 5f 	. _
 510  807F E6 3F        	and 03fh		;807f	e6 3f 	. ?
 511  8081 F6 8F        	or 08fh		;8081	f6 8f 	. .
 512  8083 DD 77 05     	ld (ix+005h),a		;8083	dd 77 05 	. w .
 513  8086 CD 8A 80     	call sub_808ah		;8086	cd 8a 80 	. . .
 514  8089 C9           	ret			;8089	c9 	.
 515  808A              sub_808ah:
 516  808A 3A 00 79     	ld a,(07900h)		;808a	3a 00 79 	: . y
 517  808D D6 05        	sub 005h		;808d	d6 05 	. .
 518  808F F2 93 80     	jp p,sub_8093h		;808f	f2 93 80 	. . .
 519  8092 AF           	xor a			;8092	af 	.
 520  8093              sub_8093h:
 521  8093 6F           	ld l,a			;8093	6f 	o
 522  8094 3E 35        	ld a,035h		;8094	3e 35 	> 5
 523  8096 95           	sub l			;8096	95 	.
 524  8097 DD 77 01     	ld (ix+001h),a		;8097	dd 77 01 	. w .
 525  809A C9           	ret			;809a	c9 	.
 526  809B              l809bh:
 527  809B CD 8A 80     	call sub_808ah		;809b	cd 8a 80 	. . .
 528  809E FE 0E        	cp 00eh		;809e	fe 0e 	. .
 529  80A0 F2 A7 80     	jp p,l80a7h		;80a0	f2 a7 80 	. . .
 530  80A3 DD 36 01 0E  	ld (ix+001h),00eh		;80a3	dd 36 01 0e 	. 6 . .
 531  80A7              l80a7h:
 532  80A7 DD 7E 02     	ld a,(ix+002h)		;80a7	dd 7e 02 	. ~ .
 533  80AA              l80aah:
 534  80AA 3D           	dec a			;80aa	3d 	=
 535  80AB DD 77 02     	ld (ix+002h),a		;80ab	dd 77 02 	. w .
 536  80AE 20 05        	jr nz,l80b5h		;80ae	20 05 	  .
 537  80B0 DD CB 05 BE  	res 7,(ix+005h)		;80b0	dd cb 05 be 	. . . .
 538  80B4 C9           	ret			;80b4	c9 	.
 539  80B5              l80b5h:
 540  80B5 FE 20        	cp 020h		;80b5	fe 20 	.
 541  80B7 FA D7 80     	jp m,l80d7h		;80b7	fa d7 80 	. . .
 542  80BA FE 30        	cp 030h		;80ba	fe 30 	. 0
 543  80BC 28 0E        	jr z,l80cch		;80bc	28 0e 	( .
 544  80BE FE 2C        	cp 02ch		;80be	fe 2c 	. ,
 545  80C0 28 0A        	jr z,l80cch		;80c0	28 0a 	( .
 546  80C2 FE 28        	cp 028h		;80c2	fe 28 	. (
 547  80C4 28 06        	jr z,l80cch		;80c4	28 06 	( .
 548  80C6 FE 24        	cp 024h		;80c6	fe 24 	. $
 549  80C8 28 02        	jr z,l80cch		;80c8	28 02 	( .
 550  80CA 18 03        	jr l80cfh		;80ca	18 03 	. .
 551  80CC              l80cch:
 552  80CC DD 34 04     	inc (ix+004h)		;80cc	dd 34 04 	. 4 .
 553  80CF              l80cfh:
 554  80CF FE 20        	cp 020h		;80cf	fe 20 	.
 555  80D1 C0           	ret nz			;80d1	c0 	.
 556  80D2 DD 36 04 00  	ld (ix+004h),000h		;80d2	dd 36 04 00 	. 6 . .
 557  80D6 C9           	ret			;80d6	c9 	.
 558  80D7              l80d7h:
 559  80D7 FE 14        	cp 014h		;80d7	fe 14 	. .
 560  80D9 F2 F1 80     	jp p,l80f1h		;80d9	f2 f1 80 	. . .
 561  80DC FE 10        	cp 010h		;80dc	fe 10 	. .
 562  80DE 28 0D        	jr z,l80edh		;80de	28 0d 	( .
 563  80E0 FE 0C        	cp 00ch		;80e0	fe 0c 	. .
 564  80E2 28 09        	jr z,l80edh		;80e2	28 09 	( .
 565  80E4 FE 08        	cp 008h		;80e4	fe 08 	. .
 566  80E6 28 05        	jr z,l80edh		;80e6	28 05 	( .
 567  80E8 FE 04        	cp 004h		;80e8	fe 04 	. .
 568  80EA 28 01        	jr z,l80edh		;80ea	28 01 	( .
 569  80EC C9           	ret			;80ec	c9 	.
 570  80ED              l80edh:
 571  80ED DD 35 04     	dec (ix+004h)		;80ed	dd 35 04 	. 5 .
 572  80F0 C9           	ret			;80f0	c9 	.
 573  80F1              l80f1h:
 574  80F1 20 2E        	jr nz,l8121h		;80f1	20 2e 	  .
 575  80F3 DD 36 04 05  	ld (ix+004h),005h		;80f3	dd 36 04 05 	. 6 . .
 576  80F7 DD 7E 00     	ld a,(ix+000h)		;80f7	dd 7e 00 	. ~ .
 577  80FA 3C           	inc a			;80fa	3c 	<
 578  80FB FD 77 00     	ld (iy+000h),a		;80fb	fd 77 00 	. w .
 579  80FE DD 7E 01     	ld a,(ix+001h)		;80fe	dd 7e 01 	. ~ .
 580  8101 06 08        	ld b,008h		;8101	06 08 	. .
 581  8103              l8103h:
 582  8103 3D           	dec a			;8103	3d 	=
 583  8104 28 02        	jr z,l8108h		;8104	28 02 	( .
 584  8106 10 FB        	djnz l8103h		;8106	10 fb 	. .
 585  8108              l8108h:
 586  8108 FD 77 01     	ld (iy+001h),a		;8108	fd 77 01 	. w .
 587  810B FD 36 02 64  	ld (iy+002h),064h		;810b	fd 36 02 64 	. 6 . d
 588  810F DD 7E 03     	ld a,(ix+003h)		;810f	dd 7e 03 	. ~ .
 589  8112 07           	rlca			;8112	07 	.
 590  8113 E6 01        	and 001h		;8113	e6 01 	. .
 591  8115 FD 77 04     	ld (iy+004h),a		;8115	fd 77 04 	. w .
 592  8118 FD 36 03 00  	ld (iy+003h),000h		;8118	fd 36 03 00 	. 6 . .
 593  811C FD 36 05 01  	ld (iy+005h),001h		;811c	fd 36 05 01 	. 6 . .
 594  8120 C9           	ret			;8120	c9 	.
 595  8121              l8121h:
 596  8121 DD CB 03 7E  	bit 7,(ix+003h)		;8121	dd cb 03 7e 	. . . ~
 597  8125 28 13        	jr z,l813ah		;8125	28 13 	( .
 598  8127 DD CB 03 76  	bit 6,(ix+003h)		;8127	dd cb 03 76 	. . . v
 599  812B 20 05        	jr nz,l8132h		;812b	20 05 	  .
 600  812D DD CB 03 F6  	set 6,(ix+003h)		;812d	dd cb 03 f6 	. . . .
 601  8131 C9           	ret			;8131	c9 	.
 602  8132              l8132h:
 603  8132 DD CB 03 B6  	res 6,(ix+003h)		;8132	dd cb 03 b6 	. . . .
 604  8136 DD 34 00     	inc (ix+000h)		;8136	dd 34 00 	. 4 .
 605  8139 C9           	ret			;8139	c9 	.
 606  813A              l813ah:
 607  813A DD CB 03 76  	bit 6,(ix+003h)		;813a	dd cb 03 76 	. . . v
 608  813E 28 05        	jr z,l8145h		;813e	28 05 	( .
 609  8140 DD CB 03 B6  	res 6,(ix+003h)		;8140	dd cb 03 b6 	. . . .
 610  8144 C9           	ret			;8144	c9 	.
 611  8145              l8145h:
 612  8145 DD CB 03 F6  	set 6,(ix+003h)		;8145	dd cb 03 f6 	. . . .
 613  8149 DD 35 00     	dec (ix+000h)		;8149	dd 35 00 	. 5 .
 614  814C C9           	ret			;814c	c9 	.
 615  814D              sub_814dh:
 616  814D 21 3B 78     	ld hl,0783bh		;814d	21 3b 78 	! ; x
 617  8150 35           	dec (hl)			;8150	35 	5
 618  8151 C0           	ret nz			;8151	c0 	.
 619  8152 36 0F        	ld (hl),00fh		;8152	36 0f 	6 .
 620  8154 DD 21 B9 78  	ld ix,078b9h		;8154	dd 21 b9 78 	. ! . x
 621  8158 FD 21 D7 78  	ld iy,078d7h		;8158	fd 21 d7 78 	. ! . x
 622  815C 3E 05        	ld a,005h		;815c	3e 05 	> .
 623  815E              l815eh:
 624  815E F5           	push af			;815e	f5 	.
 625  815F CD 6E 81     	call sub_816eh		;815f	cd 6e 81 	. n .
 626  8162 01 06 00     	ld bc,00006h		;8162	01 06 00 	. . .
 627  8165 DD 09        	add ix,bc		;8165	dd 09 	. .
 628  8167 FD 09        	add iy,bc		;8167	fd 09 	. .
 629  8169 F1           	pop af			;8169	f1 	.
 630  816A 3D           	dec a			;816a	3d 	=
 631  816B 20 F1        	jr nz,l815eh		;816b	20 f1 	  .
 632  816D C9           	ret			;816d	c9 	.
 633  816E              sub_816eh:
 634  816E DD 7E 05     	ld a,(ix+005h)		;816e	dd 7e 05 	. ~ .
 635  8171 CB 7F        	bit 7,a		;8171	cb 7f 	. 
 636  8173 20 48        	jr nz,l81bdh		;8173	20 48 	  H
 637  8175 FD 7E 05     	ld a,(iy+005h)		;8175	fd 7e 05 	. ~ .
 638  8178 B7           	or a			;8178	b7 	.
 639  8179 C0           	ret nz			;8179	c0 	.
 640  817A DD 7E 05     	ld a,(ix+005h)		;817a	dd 7e 05 	. ~ .
 641  817D 3D           	dec a			;817d	3d 	=
 642  817E DD 77 05     	ld (ix+005h),a		;817e	dd 77 05 	. w .
 643  8181 28 01        	jr z,l8184h		;8181	28 01 	( .
 644  8183 C9           	ret			;8183	c9 	.
 645  8184              l8184h:
 646  8184 FD 7E 04     	ld a,(iy+004h)		;8184	fd 7e 04 	. ~ .
 647  8187 FD 46 00     	ld b,(iy+000h)		;8187	fd 46 00 	. F .
 648  818A 05           	dec b			;818a	05 	.
 649  818B E6 01        	and 001h		;818b	e6 01 	. .
 650  818D 28 07        	jr z,l8196h		;818d	28 07 	( .
 651  818F 04           	inc b			;818f	04 	.
 652  8190 04           	inc b			;8190	04 	.
 653  8191 04           	inc b			;8191	04 	.
 654  8192 04           	inc b			;8192	04 	.
 655  8193 04           	inc b			;8193	04 	.
 656  8194 04           	inc b			;8194	04 	.
 657  8195 04           	inc b			;8195	04 	.
 658  8196              l8196h:
 659  8196 DD 70 00     	ld (ix+000h),b		;8196	dd 70 00 	. p .
 660  8199 0F           	rrca			;8199	0f 	.
 661  819A 47           	ld b,a			;819a	47 	G
 662  819B ED 5F        	ld a,r		;819b	ed 5f 	. _
 663  819D E6 07        	and 007h		;819d	e6 07 	. .
 664  819F F6 03        	or 003h		;819f	f6 03 	. .
 665  81A1 C6 02        	add a,002h		;81a1	c6 02 	. .
 666  81A3 DD 77 02     	ld (ix+002h),a		;81a3	dd 77 02 	. w .
 667  81A6 B0           	or b			;81a6	b0 	.
 668  81A7 DD 77 03     	ld (ix+003h),a		;81a7	dd 77 03 	. w .
 669  81AA 3E 03        	ld a,003h		;81aa	3e 03 	> .
 670  81AC CB 78        	bit 7,b		;81ac	cb 78 	. x
 671  81AE 28 01        	jr z,l81b1h		;81ae	28 01 	( .
 672  81B0 AF           	xor a			;81b0	af 	.
 673  81B1              l81b1h:
 674  81B1 DD 77 04     	ld (ix+004h),a		;81b1	dd 77 04 	. w .
 675  81B4 DD CB 05 FE  	set 7,(ix+005h)		;81b4	dd cb 05 fe 	. . . .
 676  81B8 DD 36 01 01  	ld (ix+001h),001h		;81b8	dd 36 01 01 	. 6 . .
 677  81BC C9           	ret			;81bc	c9 	.
 678  81BD              l81bdh:
 679  81BD DD 7E 03     	ld a,(ix+003h)		;81bd	dd 7e 03 	. ~ .
 680  81C0 CB 7F        	bit 7,a		;81c0	cb 7f 	. 
 681  81C2 28 14        	jr z,l81d8h		;81c2	28 14 	( .
 682  81C4 DD 7E 04     	ld a,(ix+004h)		;81c4	dd 7e 04 	. ~ .
 683  81C7 3C           	inc a			;81c7	3c 	<
 684  81C8 DD 77 04     	ld (ix+004h),a		;81c8	dd 77 04 	. w .
 685  81CB FE 04        	cp 004h		;81cb	fe 04 	. .
 686  81CD 20 20        	jr nz,l81efh		;81cd	20 20
 687  81CF DD 34 00     	inc (ix+000h)		;81cf	dd 34 00 	. 4 .
 688  81D2 DD 36 04 00  	ld (ix+004h),000h		;81d2	dd 36 04 00 	. 6 . .
 689  81D6 18 17        	jr l81efh		;81d6	18 17 	. .
 690  81D8              l81d8h:
 691  81D8 DD 7E 04     	ld a,(ix+004h)		;81d8	dd 7e 04 	. ~ .
 692  81DB 3D           	dec a			;81db	3d 	=
 693  81DC DD 77 04     	ld (ix+004h),a		;81dc	dd 77 04 	. w .
 694  81DF 3C           	inc a			;81df	3c 	<
 695  81E0 20 0D        	jr nz,l81efh		;81e0	20 0d 	  .
 696  81E2 DD 36 04 03  	ld (ix+004h),003h		;81e2	dd 36 04 03 	. 6 . .
 697  81E6 DD 7E 00     	ld a,(ix+000h)		;81e6	dd 7e 00 	. ~ .
 698  81E9 B7           	or a			;81e9	b7 	.
 699  81EA 28 03        	jr z,l81efh		;81ea	28 03 	( .
 700  81EC DD 35 00     	dec (ix+000h)		;81ec	dd 35 00 	. 5 .
 701  81EF              l81efh:
 702  81EF DD 35 02     	dec (ix+002h)		;81ef	dd 35 02 	. 5 .
 703  81F2 C0           	ret nz			;81f2	c0 	.
 704  81F3 DD 7E 01     	ld a,(ix+001h)		;81f3	dd 7e 01 	. ~ .
 705  81F6 3C           	inc a			;81f6	3c 	<
 706  81F7 DD 77 01     	ld (ix+001h),a		;81f7	dd 77 01 	. w .
 707  81FA FE 09        	cp 009h		;81fa	fe 09 	. .
 708  81FC 28 09        	jr z,l8207h		;81fc	28 09 	( .
 709  81FE DD 7E 03     	ld a,(ix+003h)		;81fe	dd 7e 03 	. ~ .
 710  8201 E6 7F        	and 07fh		;8201	e6 7f 	. 
 711  8203 DD 77 02     	ld (ix+002h),a		;8203	dd 77 02 	. w .
 712  8206 C9           	ret			;8206	c9 	.
 713  8207              l8207h:
 714  8207 DD 7E 00     	ld a,(ix+000h)		;8207	dd 7e 00 	. ~ .
 715  820A CD F1 8C     	call sub_8cf1h		;820a	cd f1 8c 	. . .
 716  820D 20 0A        	jr nz,l8219h		;820d	20 0a 	  .
 717  820F 0E 00        	ld c,000h		;820f	0e 00 	. .
 718  8211 DD 46 00     	ld b,(ix+000h)		;8211	dd 46 00 	. F .
 719  8214 16 00        	ld d,000h		;8214	16 00 	. .
 720  8216 CD C3 89     	call sub_89c3h		;8216	cd c3 89 	. . .
 721  8219              l8219h:
 722  8219 ED 5F        	ld a,r		;8219	ed 5f 	. _
 723  821B E6 1F        	and 01fh		;821b	e6 1f 	. .
 724  821D F6 07        	or 007h		;821d	f6 07 	. .
 725  821F DD 77 05     	ld (ix+005h),a		;821f	dd 77 05 	. w .
 726  8222 C9           	ret			;8222	c9 	.
 727  8223              sub_8223h:
 728  8223 21 3F 78     	ld hl,0783fh		;8223	21 3f 78 	! ? x
 729  8226 35           	dec (hl)			;8226	35 	5
 730  8227 C0           	ret nz			;8227	c0 	.
 731  8228 36 3C        	ld (hl),03ch		;8228	36 3c 	6 <
 732  822A 3E 04        	ld a,004h		;822a	3e 04 	> .
 733  822C DD 21 9A 78  	ld ix,0789ah		;822c	dd 21 9a 78 	. ! . x
 734  8230              l8230h:
 735  8230 F5           	push af			;8230	f5 	.
 736  8231 CD 3E 82     	call sub_823eh		;8231	cd 3e 82 	. > .
 737  8234 01 07 00     	ld bc,00007h		;8234	01 07 00 	. . .
 738  8237 DD 09        	add ix,bc		;8237	dd 09 	. .
 739  8239 F1           	pop af			;8239	f1 	.
 740  823A 3D           	dec a			;823a	3d 	=
 741  823B 20 F3        	jr nz,l8230h		;823b	20 f3 	  .
 742  823D C9           	ret			;823d	c9 	.
 743  823E              sub_823eh:
 744  823E DD 7E 05     	ld a,(ix+005h)		;823e	dd 7e 05 	. ~ .
 745  8241 CB 7F        	bit 7,a		;8241	cb 7f 	. 
 746  8243 20 65        	jr nz,l82aah		;8243	20 65 	  e
 747  8245 B7           	or a			;8245	b7 	.
 748  8246 28 05        	jr z,l824dh		;8246	28 05 	( .
 749  8248 3D           	dec a			;8248	3d 	=
 750  8249 DD 77 05     	ld (ix+005h),a		;8249	dd 77 05 	. w .
 751  824C C9           	ret			;824c	c9 	.
 752  824D              l824dh:
 753  824D 00           	nop			;824d	00 	.
 754  824E DD CB 03 FE  	set 7,(ix+003h)		;824e	dd cb 03 fe 	. . . .
 755  8252 DD 7E 00     	ld a,(ix+000h)		;8252	dd 7e 00 	. ~ .
 756  8255 5F           	ld e,a			;8255	5f 	_
 757  8256 16 00        	ld d,000h		;8256	16 00 	. .
 758  8258 CD D2 83     	call sub_83d2h		;8258	cd d2 83 	. . .
 759  825B 6F           	ld l,a			;825b	6f 	o
 760  825C 26 00        	ld h,000h		;825c	26 00 	& .
 761  825E E5           	push hl			;825e	e5 	.
 762  825F B7           	or a			;825f	b7 	.
 763  8260 ED 52        	sbc hl,de		;8260	ed 52 	. R
 764  8262 C1           	pop bc			;8262	c1 	.
 765  8263 F2 70 82     	jp p,l8270h		;8263	f2 70 82 	. p .
 766  8266 C5           	push bc			;8266	c5 	.
 767  8267 E1           	pop hl			;8267	e1 	.
 768  8268 EB           	ex de,hl			;8268	eb 	.
 769  8269 B7           	or a			;8269	b7 	.
 770  826A ED 52        	sbc hl,de		;826a	ed 52 	. R
 771  826C DD CB 03 BE  	res 7,(ix+003h)		;826c	dd cb 03 be 	. . . .
 772  8270              l8270h:
 773  8270 7D           	ld a,l			;8270	7d 	}
 774  8271 CB 7F        	bit 7,a		;8271	cb 7f 	. 
 775  8273 20 6C        	jr nz,l82e1h		;8273	20 6c 	  l
 776  8275 FE 37        	cp 037h		;8275	fe 37 	. 7
 777  8277 F2 E1 82     	jp p,l82e1h		;8277	f2 e1 82 	. . .
 778  827A 3A 00 79     	ld a,(07900h)		;827a	3a 00 79 	: . y
 779  827D FE 32        	cp 032h		;827d	fe 32 	. 2
 780  827F F2 E1 82     	jp p,l82e1h		;827f	f2 e1 82 	. . .
 781  8282 67           	ld h,a			;8282	67 	g
 782  8283 3E 35        	ld a,035h		;8283	3e 35 	> 5
 783  8285 94           	sub h			;8285	94 	.
 784  8286 67           	ld h,a			;8286	67 	g
 785  8287 06 00        	ld b,000h		;8287	06 00 	. .
 786  8289 7D           	ld a,l			;8289	7d 	}
 787  828A B7           	or a			;828a	b7 	.
 788  828B 20 04        	jr nz,l8291h		;828b	20 04 	  .
 789  828D 06 3C        	ld b,03ch		;828d	06 3c 	. <
 790  828F 18 0A        	jr l829bh		;828f	18 0a 	. .
 791  8291              l8291h:
 792  8291 7C           	ld a,h			;8291	7c 	|
 793  8292 CB 25        	sla l		;8292	cb 25 	. %
 794  8294              l8294h:
 795  8294 95           	sub l			;8294	95 	.
 796  8295 FA 9B 82     	jp m,l829bh		;8295	fa 9b 82 	. . .
 797  8298 04           	inc b			;8298	04 	.
 798  8299 18 F9        	jr l8294h		;8299	18 f9 	. .
 799  829B              l829bh:
 800  829B 78           	ld a,b			;829b	78 	x
 801  829C DD 77 02     	ld (ix+002h),a		;829c	dd 77 02 	. w .
 802  829F DD B6 03     	or (ix+003h)		;829f	dd b6 03 	. . .
 803  82A2 DD 77 03     	ld (ix+003h),a		;82a2	dd 77 03 	. w .
 804  82A5 DD CB 05 FE  	set 7,(ix+005h)		;82a5	dd cb 05 fe 	. . . .
 805  82A9 C9           	ret			;82a9	c9 	.
 806  82AA              l82aah:
 807  82AA DD 7E 01     	ld a,(ix+001h)		;82aa	dd 7e 01 	. ~ .
 808  82AD 3C           	inc a			;82ad	3c 	<
 809  82AE FE 36        	cp 036h		;82ae	fe 36 	. 6
 810  82B0 28 25        	jr z,l82d7h		;82b0	28 25 	( %
 811  82B2 DD 77 01     	ld (ix+001h),a		;82b2	dd 77 01 	. w .
 812  82B5 DD 7E 02     	ld a,(ix+002h)		;82b5	dd 7e 02 	. ~ .
 813  82B8 B7           	or a			;82b8	b7 	.
 814  82B9 28 11        	jr z,l82cch		;82b9	28 11 	( .
 815  82BB 3D           	dec a			;82bb	3d 	=
 816  82BC DD 77 02     	ld (ix+002h),a		;82bc	dd 77 02 	. w .
 817  82BF C0           	ret nz			;82bf	c0 	.
 818  82C0 DD 7E 03     	ld a,(ix+003h)		;82c0	dd 7e 03 	. ~ .
 819  82C3 E6 7F        	and 07fh		;82c3	e6 7f 	. 
 820  82C5 DD 77 02     	ld (ix+002h),a		;82c5	dd 77 02 	. w .
 821  82C8 06 01        	ld b,001h		;82c8	06 01 	. .
 822  82CA 18 02        	jr l82ceh		;82ca	18 02 	. .
 823  82CC              l82cch:
 824  82CC 06 02        	ld b,002h		;82cc	06 02 	. .
 825  82CE              l82ceh:
 826  82CE DD 7E 03     	ld a,(ix+003h)		;82ce	dd 7e 03 	. ~ .
 827  82D1 CB 7F        	bit 7,a		;82d1	cb 7f 	. 
 828  82D3 28 3F        	jr z,l8314h		;82d3	28 3f 	( ?
 829  82D5 18 27        	jr l82feh		;82d5	18 27 	. '
 830  82D7              l82d7h:
 831  82D7 DD 46 00     	ld b,(ix+000h)		;82d7	dd 46 00 	. F .
 832  82DA 0E 3B        	ld c,03bh		;82da	0e 3b 	. ;
 833  82DC 16 40        	ld d,040h		;82dc	16 40 	. @
 834  82DE CD C3 89     	call sub_89c3h		;82de	cd c3 89 	. . .
 835  82E1              l82e1h:
 836  82E1 AF           	xor a			;82e1	af 	.
 837  82E2 DD 77 01     	ld (ix+001h),a		;82e2	dd 77 01 	. w .
 838  82E5 DD 77 02     	ld (ix+002h),a		;82e5	dd 77 02 	. w .
 839  82E8 DD 77 03     	ld (ix+003h),a		;82e8	dd 77 03 	. w .
 840  82EB DD 77 04     	ld (ix+004h),a		;82eb	dd 77 04 	. w .
 841  82EE DD 7E 06     	ld a,(ix+006h)		;82ee	dd 7e 06 	. ~ .
 842  82F1 DD 77 00     	ld (ix+000h),a		;82f1	dd 77 00 	. w .
 843  82F4 ED 5F        	ld a,r		;82f4	ed 5f 	. _
 844  82F6 E6 1F        	and 01fh		;82f6	e6 1f 	. .
 845  82F8 F6 03        	or 003h		;82f8	f6 03 	. .
 846  82FA DD 77 05     	ld (ix+005h),a		;82fa	dd 77 05 	. w .
 847  82FD C9           	ret			;82fd	c9 	.
 848  82FE              l82feh:
 849  82FE DD 7E 04     	ld a,(ix+004h)		;82fe	dd 7e 04 	. ~ .
 850  8301 B7           	or a			;8301	b7 	.
 851  8302 20 06        	jr nz,l830ah		;8302	20 06 	  .
 852  8304 3C           	inc a			;8304	3c 	<
 853  8305 DD 77 04     	ld (ix+004h),a		;8305	dd 77 04 	. w .
 854  8308 18 07        	jr l8311h		;8308	18 07 	. .
 855  830A              l830ah:
 856  830A AF           	xor a			;830a	af 	.
 857  830B DD 77 04     	ld (ix+004h),a		;830b	dd 77 04 	. w .
 858  830E DD 34 00     	inc (ix+000h)		;830e	dd 34 00 	. 4 .
 859  8311              l8311h:
 860  8311 10 EB        	djnz l82feh		;8311	10 eb 	. .
 861  8313 C9           	ret			;8313	c9 	.
 862  8314              l8314h:
 863  8314 DD 7E 04     	ld a,(ix+004h)		;8314	dd 7e 04 	. ~ .
 864  8317 B7           	or a			;8317	b7 	.
 865  8318 28 06        	jr z,l8320h		;8318	28 06 	( .
 866  831A AF           	xor a			;831a	af 	.
 867  831B DD 77 04     	ld (ix+004h),a		;831b	dd 77 04 	. w .
 868  831E 18 0F        	jr l832fh		;831e	18 0f 	. .
 869  8320              l8320h:
 870  8320 DD 7E 00     	ld a,(ix+000h)		;8320	dd 7e 00 	. ~ .
 871  8323 B7           	or a			;8323	b7 	.
 872  8324 28 09        	jr z,l832fh		;8324	28 09 	( .
 873  8326 3D           	dec a			;8326	3d 	=
 874  8327 DD 77 00     	ld (ix+000h),a		;8327	dd 77 00 	. w .
 875  832A 3E 01        	ld a,001h		;832a	3e 01 	> .
 876  832C DD 77 04     	ld (ix+004h),a		;832c	dd 77 04 	. w .
 877  832F              l832fh:
 878  832F 10 E3        	djnz l8314h		;832f	10 e3 	. .
 879  8331 C9           	ret			;8331	c9 	.
 880  8332              sub_8332h:
 881  8332 21 B7 78     	ld hl,078b7h		;8332	21 b7 78 	! . x
 882  8335 35           	dec (hl)			;8335	35 	5
 883  8336 C0           	ret nz			;8336	c0 	.
 884  8337 36 B4        	ld (hl),0b4h		;8337	36 b4 	6 .
 885  8339 DD 21 D7 78  	ld ix,078d7h		;8339	dd 21 d7 78 	. ! . x
 886  833D 3E 05        	ld a,005h		;833d	3e 05 	> .
 887  833F              l833fh:
 888  833F F5           	push af			;833f	f5 	.
 889  8340 CD 4D 83     	call sub_834dh		;8340	cd 4d 83 	. M .
 890  8343 01 06 00     	ld bc,00006h		;8343	01 06 00 	. . .
 891  8346 DD 09        	add ix,bc		;8346	dd 09 	. .
 892  8348 F1           	pop af			;8348	f1 	.
 893  8349 3D           	dec a			;8349	3d 	=
 894  834A 20 F3        	jr nz,l833fh		;834a	20 f3 	  .
 895  834C C9           	ret			;834c	c9 	.
 896  834D              sub_834dh:
 897  834D DD 7E 05     	ld a,(ix+005h)		;834d	dd 7e 05 	. ~ .
 898  8350 B7           	or a			;8350	b7 	.
 899  8351 28 05        	jr z,l8358h		;8351	28 05 	( .
 900  8353 3D           	dec a			;8353	3d 	=
 901  8354 DD 77 05     	ld (ix+005h),a		;8354	dd 77 05 	. w .
 902  8357 C9           	ret			;8357	c9 	.
 903  8358              l8358h:
 904  8358 DD 7E 04     	ld a,(ix+004h)		;8358	dd 7e 04 	. ~ .
 905  835B E6 01        	and 001h		;835b	e6 01 	. .
 906  835D 28 1A        	jr z,l8379h		;835d	28 1a 	( .
 907  835F DD 7E 03     	ld a,(ix+003h)		;835f	dd 7e 03 	. ~ .
 908  8362 B7           	or a			;8362	b7 	.
 909  8363 20 05        	jr nz,l836ah		;8363	20 05 	  .
 910  8365 3C           	inc a			;8365	3c 	<
 911  8366 DD 77 03     	ld (ix+003h),a		;8366	dd 77 03 	. w .
 912  8369 C9           	ret			;8369	c9 	.
 913  836A              l836ah:
 914  836A DD 7E 00     	ld a,(ix+000h)		;836a	dd 7e 00 	. ~ .
 915  836D DD BE 02     	cp (ix+002h)		;836d	dd be 02 	. . .
 916  8370 C8           	ret z			;8370	c8 	.
 917  8371 DD 34 00     	inc (ix+000h)		;8371	dd 34 00 	. 4 .
 918  8374 AF           	xor a			;8374	af 	.
 919  8375 DD 77 03     	ld (ix+003h),a		;8375	dd 77 03 	. w .
 920  8378 C9           	ret			;8378	c9 	.
 921  8379              l8379h:
 922  8379 DD 7E 03     	ld a,(ix+003h)		;8379	dd 7e 03 	. ~ .
 923  837C B7           	or a			;837c	b7 	.
 924  837D 28 05        	jr z,l8384h		;837d	28 05 	( .
 925  837F AF           	xor a			;837f	af 	.
 926  8380 DD 77 03     	ld (ix+003h),a		;8380	dd 77 03 	. w .
 927  8383 C9           	ret			;8383	c9 	.
 928  8384              l8384h:
 929  8384 DD 7E 00     	ld a,(ix+000h)		;8384	dd 7e 00 	. ~ .
 930  8387 DD BE 01     	cp (ix+001h)		;8387	dd be 01 	. . .
 931  838A C8           	ret z			;838a	c8 	.
 932  838B DD 35 00     	dec (ix+000h)		;838b	dd 35 00 	. 5 .
 933  838E 3E 01        	ld a,001h		;838e	3e 01 	> .
 934  8390 DD 77 03     	ld (ix+003h),a		;8390	dd 77 03 	. w .
 935  8393 C9           	ret			;8393	c9 	.
 936  8394              sub_8394h:
 937  8394 21 B8 78     	ld hl,078b8h		;8394	21 b8 78 	! . x
 938  8397 35           	dec (hl)			;8397	35 	5
 939  8398 C0           	ret nz			;8398	c0 	.
 940  8399 DD 21 D7 78  	ld ix,078d7h		;8399	dd 21 d7 78 	. ! . x
 941  839D 3E 05        	ld a,005h		;839d	3e 05 	> .
 942  839F              l839fh:
 943  839F F5           	push af			;839f	f5 	.
 944  83A0 CD AD 83     	call sub_83adh		;83a0	cd ad 83 	. . .
 945  83A3 01 06 00     	ld bc,00006h		;83a3	01 06 00 	. . .
 946  83A6 DD 09        	add ix,bc		;83a6	dd 09 	. .
 947  83A8 F1           	pop af			;83a8	f1 	.
 948  83A9 3D           	dec a			;83a9	3d 	=
 949  83AA 20 F3        	jr nz,l839fh		;83aa	20 f3 	  .
 950  83AC C9           	ret			;83ac	c9 	.
 951  83AD              sub_83adh:
 952  83AD DD 7E 04     	ld a,(ix+004h)		;83ad	dd 7e 04 	. ~ .
 953  83B0 47           	ld b,a			;83b0	47 	G
 954  83B1 E6 01        	and 001h		;83b1	e6 01 	. .
 955  83B3 4F           	ld c,a			;83b3	4f 	O
 956  83B4 78           	ld a,b			;83b4	78 	x
 957  83B5 0F           	rrca			;83b5	0f 	.
 958  83B6 E6 1F        	and 01fh		;83b6	e6 1f 	. .
 959  83B8 3D           	dec a			;83b8	3d 	=
 960  83B9 28 06        	jr z,l83c1h		;83b9	28 06 	( .
 961  83BB 07           	rlca			;83bb	07 	.
 962  83BC B1           	or c			;83bc	b1 	.
 963  83BD DD 77 04     	ld (ix+004h),a		;83bd	dd 77 04 	. w .
 964  83C0 C9           	ret			;83c0	c9 	.
 965  83C1              l83c1h:
 966  83C1 DD 7E 00     	ld a,(ix+000h)		;83c1	dd 7e 00 	. ~ .
 967  83C4 CD DE 83     	call sub_83deh		;83c4	cd de 83 	. . .
 968  83C7 ED 5F        	ld a,r		;83c7	ed 5f 	. _
 969  83C9 F6 03        	or 003h		;83c9	f6 03 	. .
 970  83CB E6 1E        	and 01eh		;83cb	e6 1e 	. .
 971  83CD B1           	or c			;83cd	b1 	.
 972  83CE DD 77 04     	ld (ix+004h),a		;83ce	dd 77 04 	. w .
 973  83D1 C9           	ret			;83d1	c9 	.
 974  83D2              sub_83d2h:
 975  83D2 3A 05 79     	ld a,(07905h)		;83d2	3a 05 79 	: . y
 976  83D5 06 0A        	ld b,00ah		;83d5	06 0a 	. .
 977  83D7              l83d7h:
 978  83D7 3C           	inc a			;83d7	3c 	<
 979  83D8 28 02        	jr z,l83dch		;83d8	28 02 	( .
 980  83DA 10 FB        	djnz l83d7h		;83da	10 fb 	. .
 981  83DC              l83dch:
 982  83DC 3D           	dec a			;83dc	3d 	=
 983  83DD C9           	ret			;83dd	c9 	.
 984  83DE              sub_83deh:
 985  83DE 5F           	ld e,a			;83de	5f 	_
 986  83DF 16 00        	ld d,000h		;83df	16 00 	. .
 987  83E1 CD D2 83     	call sub_83d2h		;83e1	cd d2 83 	. . .
 988  83E4 6F           	ld l,a			;83e4	6f 	o
 989  83E5 26 00        	ld h,000h		;83e5	26 00 	& .
 990  83E7 B7           	or a			;83e7	b7 	.
 991  83E8 ED 52        	sbc hl,de		;83e8	ed 52 	. R
 992  83EA FA FA 83     	jp m,l83fah		;83ea	fa fa 83 	. . .
 993  83ED 28 02        	jr z,l83f1h		;83ed	28 02 	( .
 994  83EF 18 06        	jr l83f7h		;83ef	18 06 	. .
 995  83F1              l83f1h:
 996  83F1 ED 5F        	ld a,r		;83f1	ed 5f 	. _
 997  83F3 E6 01        	and 001h		;83f3	e6 01 	. .
 998  83F5 28 03        	jr z,l83fah		;83f5	28 03 	( .
 999  83F7              l83f7h:
1000  83F7 0E 01        	ld c,001h		;83f7	0e 01 	. .
1001  83F9 C9           	ret			;83f9	c9 	.
1002  83FA              l83fah:
1003  83FA 0E 00        	ld c,000h		;83fa	0e 00 	. .
1004  83FC C9           	ret			;83fc	c9 	.
1005  83FD              sub_83fdh:
1006  83FD 3A 00 79     	ld a,(07900h)		;83fd	3a 00 79 	: . y
1007  8400 FE 35        	cp 035h		;8400	fe 35 	. 5
1008  8402 C8           	ret z			;8402	c8 	.
1009  8403 3A FD 78     	ld a,(078fdh)		;8403	3a fd 78 	: . x
1010  8406 B7           	or a			;8406	b7 	.
1011  8407 28 05        	jr z,l840eh		;8407	28 05 	( .
1012  8409 3D           	dec a			;8409	3d 	=
1013  840A 32 FD 78     	ld (078fdh),a		;840a	32 fd 78 	2 . x
1014  840D C9           	ret			;840d	c9 	.
1015  840E              l840eh:
1016  840E CD F0 8E     	call sub_8ef0h		;840e	cd f0 8e 	. . .
1017  8411 CB 6F        	bit 5,a		;8411	cb 6f 	. o
1018  8413 C8           	ret z			;8413	c8 	.
1019  8414 3E C8        	ld a,0c8h		;8414	3e c8 	> .
1020  8416 32 FD 78     	ld (078fdh),a		;8416	32 fd 78 	2 . x
1021  8419              sub_8419h:
1022  8419 3A 02 79     	ld a,(07902h)		;8419	3a 02 79 	: . y
1023  841C 0F           	rrca			;841c	0f 	.
1024  841D 0F           	rrca			;841d	0f 	.
1025  841E 32 02 79     	ld (07902h),a		;841e	32 02 79 	2 . y
1026  8421 C9           	ret			;8421	c9 	.
1027  8422              sub_8422h:
1028  8422 21 FB 78     	ld hl,078fbh		;8422	21 fb 78 	! . x
1029  8425 35           	dec (hl)			;8425	35 	5
1030  8426 C0           	ret nz			;8426	c0 	.
1031  8427 3A F7 78     	ld a,(078f7h)		;8427	3a f7 78 	: . x
1032  842A 77           	ld (hl),a			;842a	77 	w
1033  842B CD F0 8E     	call sub_8ef0h		;842b	cd f0 8e 	. . .
1034  842E E6 03        	and 003h		;842e	e6 03 	. .
1035  8430 28 69        	jr z,l849bh		;8430	28 69 	( i
1036  8432 47           	ld b,a			;8432	47 	G
1037  8433 3A F5 78     	ld a,(078f5h)		;8433	3a f5 78 	: . x
1038  8436 B8           	cp b			;8436	b8 	.
1039  8437 28 05        	jr z,l843eh		;8437	28 05 	( .
1040  8439 3E 96        	ld a,096h		;8439	3e 96 	> .
1041  843B 32 F7 78     	ld (078f7h),a		;843b	32 f7 78 	2 . x
1042  843E              l843eh:
1043  843E 78           	ld a,b			;843e	78 	x
1044  843F 32 F5 78     	ld (078f5h),a		;843f	32 f5 78 	2 . x
1045  8442 F5           	push af			;8442	f5 	.
1046  8443 3A F7 78     	ld a,(078f7h)		;8443	3a f7 78 	: . x
1047  8446 FE 1E        	cp 01eh		;8446	fe 1e 	. .
1048  8448 28 05        	jr z,l844fh		;8448	28 05 	( .
1049  844A D6 1E        	sub 01eh		;844a	d6 1e 	. .
1050  844C 32 F7 78     	ld (078f7h),a		;844c	32 f7 78 	2 . x
1051  844F              l844fh:
1052  844F F1           	pop af			;844f	f1 	.
1053  8450              l8450h:
1054  8450 CB 47        	bit 0,a		;8450	cb 47 	. G
1055  8452 20 57        	jr nz,l84abh		;8452	20 57 	  W
1056  8454 18 6B        	jr l84c1h		;8454	18 6b 	. k
1057  8456              sub_8456h:
1058  8456 21 FC 78     	ld hl,078fch		;8456	21 fc 78 	! . x
1059  8459 35           	dec (hl)			;8459	35 	5
1060  845A C0           	ret nz			;845a	c0 	.
1061  845B 3A F8 78     	ld a,(078f8h)		;845b	3a f8 78 	: . x
1062  845E 77           	ld (hl),a			;845e	77 	w
1063  845F CD F0 8E     	call sub_8ef0h		;845f	cd f0 8e 	. . .
1064  8462 E6 0C        	and 00ch		;8462	e6 0c 	. .
1065  8464 28 25        	jr z,l848bh		;8464	28 25 	( %
1066  8466 47           	ld b,a			;8466	47 	G
1067  8467 3A F6 78     	ld a,(078f6h)		;8467	3a f6 78 	: . x
1068  846A B8           	cp b			;846a	b8 	.
1069  846B 28 05        	jr z,l8472h		;846b	28 05 	( .
1070  846D 3E 96        	ld a,096h		;846d	3e 96 	> .
1071  846F 32 F8 78     	ld (078f8h),a		;846f	32 f8 78 	2 . x
1072  8472              l8472h:
1073  8472 78           	ld a,b			;8472	78 	x
1074  8473 32 F6 78     	ld (078f6h),a		;8473	32 f6 78 	2 . x
1075  8476 F5           	push af			;8476	f5 	.
1076  8477 3A F8 78     	ld a,(078f8h)		;8477	3a f8 78 	: . x
1077  847A FE 1E        	cp 01eh		;847a	fe 1e 	. .
1078  847C 28 05        	jr z,l8483h		;847c	28 05 	( .
1079  847E D6 1E        	sub 01eh		;847e	d6 1e 	. .
1080  8480 32 F8 78     	ld (078f8h),a		;8480	32 f8 78 	2 . x
1081  8483              l8483h:
1082  8483 F1           	pop af			;8483	f1 	.
1083  8484              l8484h:
1084  8484 CB 57        	bit 2,a		;8484	cb 57 	. W
1085  8486 20 4E        	jr nz,l84d6h		;8486	20 4e 	  N
1086  8488 C3 2B 85     	jp l852bh		;8488	c3 2b 85 	. + .
1087  848B              l848bh:
1088  848B 3A F8 78     	ld a,(078f8h)		;848b	3a f8 78 	: . x
1089  848E FE 96        	cp 096h		;848e	fe 96 	. .
1090  8490 C8           	ret z			;8490	c8 	.
1091  8491 C6 1E        	add a,01eh		;8491	c6 1e 	. .
1092  8493 32 F8 78     	ld (078f8h),a		;8493	32 f8 78 	2 . x
1093  8496 3A F6 78     	ld a,(078f6h)		;8496	3a f6 78 	: . x
1094  8499 18 E9        	jr l8484h		;8499	18 e9 	. .
1095  849B              l849bh:
1096  849B 3A F7 78     	ld a,(078f7h)		;849b	3a f7 78 	: . x
1097  849E FE 96        	cp 096h		;849e	fe 96 	. .
1098  84A0 C8           	ret z			;84a0	c8 	.
1099  84A1 C6 1E        	add a,01eh		;84a1	c6 1e 	. .
1100  84A3 32 F7 78     	ld (078f7h),a		;84a3	32 f7 78 	2 . x
1101  84A6 3A F5 78     	ld a,(078f5h)		;84a6	3a f5 78 	: . x
1102  84A9 18 A5        	jr l8450h		;84a9	18 a5 	. .
1103  84AB              l84abh:
1104  84AB 3A 00 79     	ld a,(07900h)		;84ab	3a 00 79 	: . y
1105  84AE B7           	or a			;84ae	b7 	.
1106  84AF C8           	ret z			;84af	c8 	.
1107  84B0 3D           	dec a			;84b0	3d 	=
1108  84B1 32 00 79     	ld (07900h),a		;84b1	32 00 79 	2 . y
1109  84B4 2A FE 78     	ld hl,(078feh)		;84b4	2a fe 78 	* . x
1110  84B7 11 2C 00     	ld de,0002ch		;84b7	11 2c 00 	. , .
1111  84BA B7           	or a			;84ba	b7 	.
1112  84BB ED 52        	sbc hl,de		;84bb	ed 52 	. R
1113  84BD 22 FE 78     	ld (078feh),hl		;84bd	22 fe 78 	" . x
1114  84C0 C9           	ret			;84c0	c9 	.
1115  84C1              l84c1h:
1116  84C1 3A 00 79     	ld a,(07900h)		;84c1	3a 00 79 	: . y
1117  84C4 FE 35        	cp 035h		;84c4	fe 35 	. 5
1118  84C6 C8           	ret z			;84c6	c8 	.
1119  84C7 3C           	inc a			;84c7	3c 	<
1120  84C8 32 00 79     	ld (07900h),a		;84c8	32 00 79 	2 . y
1121  84CB 2A FE 78     	ld hl,(078feh)		;84cb	2a fe 78 	* . x
1122  84CE 11 2C 00     	ld de,0002ch		;84ce	11 2c 00 	. , .
1123  84D1 19           	add hl,de			;84d1	19 	.
1124  84D2 22 FE 78     	ld (078feh),hl		;84d2	22 fe 78 	" . x
1125  84D5 C9           	ret			;84d5	c9 	.
1126  84D6              l84d6h:
1127  84D6 3A 00 79     	ld a,(07900h)		;84d6	3a 00 79 	: . y
1128  84D9 FE 35        	cp 035h		;84d9	fe 35 	. 5
1129  84DB C8           	ret z			;84db	c8 	.
1130  84DC 3A 04 79     	ld a,(07904h)		;84dc	3a 04 79 	: . y
1131  84DF B7           	or a			;84df	b7 	.
1132  84E0 28 05        	jr z,l84e7h		;84e0	28 05 	( .
1133  84E2 AF           	xor a			;84e2	af 	.
1134  84E3 32 04 79     	ld (07904h),a		;84e3	32 04 79 	2 . y
1135  84E6 C9           	ret			;84e6	c9 	.
1136  84E7              l84e7h:
1137  84E7 3A 01 79     	ld a,(07901h)		;84e7	3a 01 79 	: . y
1138  84EA B7           	or a			;84ea	b7 	.
1139  84EB 28 2B        	jr z,l8518h		;84eb	28 2b 	( +
1140  84ED 3D           	dec a			;84ed	3d 	=
1141  84EE 32 01 79     	ld (07901h),a		;84ee	32 01 79 	2 . y
1142  84F1 3E 01        	ld a,001h		;84f1	3e 01 	> .
1143  84F3 32 04 79     	ld (07904h),a		;84f3	32 04 79 	2 . y
1144  84F6 2A FE 78     	ld hl,(078feh)		;84f6	2a fe 78 	* . x
1145  84F9 2B           	dec hl			;84f9	2b 	+
1146  84FA 22 FE 78     	ld (078feh),hl		;84fa	22 fe 78 	" . x
1147  84FD CD 60 85     	call sub_8560h		;84fd	cd 60 85 	. ` .
1148  8500              l8500h:
1149  8500 3A 05 79     	ld a,(07905h)		;8500	3a 05 79 	: . y
1150  8503 3D           	dec a			;8503	3d 	=
1151  8504 32 05 79     	ld (07905h),a		;8504	32 05 79 	2 . y
1152  8507 CD 0B 85     	call sub_850bh		;8507	cd 0b 85 	. . .
1153  850A C9           	ret			;850a	c9 	.
1154  850B              sub_850bh:
1155  850B 21 6A 78     	ld hl,0786ah		;850b	21 6a 78 	! j x
1156  850E 11 04 00     	ld de,00004h		;850e	11 04 00 	. . .
1157  8511 06 06        	ld b,006h		;8511	06 06 	. .
1158  8513              l8513h:
1159  8513 35           	dec (hl)			;8513	35 	5
1160  8514 19           	add hl,de			;8514	19 	.
1161  8515 10 FC        	djnz l8513h		;8515	10 fc 	. .
1162  8517 C9           	ret			;8517	c9 	.
1163  8518              l8518h:
1164  8518 3A 08 79     	ld a,(07908h)		;8518	3a 08 79 	: . y
1165  851B FE 06        	cp 006h		;851b	fe 06 	. .
1166  851D C8           	ret z			;851d	c8 	.
1167  851E 3D           	dec a			;851e	3d 	=
1168  851F 32 08 79     	ld (07908h),a		;851f	32 08 79 	2 . y
1169  8522 2A 06 79     	ld hl,(07906h)		;8522	2a 06 79 	* . y
1170  8525 2B           	dec hl			;8525	2b 	+
1171  8526 22 06 79     	ld (07906h),hl		;8526	22 06 79 	" . y
1172  8529 18 D5        	jr l8500h		;8529	18 d5 	. .
1173  852B              l852bh:
1174  852B 3A 00 79     	ld a,(07900h)		;852b	3a 00 79 	: . y
1175  852E FE 35        	cp 035h		;852e	fe 35 	. 5
1176  8530 C8           	ret z			;8530	c8 	.
1177  8531 3A 04 79     	ld a,(07904h)		;8531	3a 04 79 	: . y
1178  8534 B7           	or a			;8534	b7 	.
1179  8535 20 05        	jr nz,l853ch		;8535	20 05 	  .
1180  8537 3C           	inc a			;8537	3c 	<
1181  8538 32 04 79     	ld (07904h),a		;8538	32 04 79 	2 . y
1182  853B C9           	ret			;853b	c9 	.
1183  853C              l853ch:
1184  853C 3A 01 79     	ld a,(07901h)		;853c	3a 01 79 	: . y
1185  853F FE 0C        	cp 00ch		;853f	fe 0c 	. .
1186  8541 28 2A        	jr z,l856dh		;8541	28 2a 	( *
1187  8543 3C           	inc a			;8543	3c 	<
1188  8544 32 01 79     	ld (07901h),a		;8544	32 01 79 	2 . y
1189  8547 AF           	xor a			;8547	af 	.
1190  8548 32 04 79     	ld (07904h),a		;8548	32 04 79 	2 . y
1191  854B 2A FE 78     	ld hl,(078feh)		;854b	2a fe 78 	* . x
1192  854E 23           	inc hl			;854e	23 	#
1193  854F 22 FE 78     	ld (078feh),hl		;854f	22 fe 78 	" . x
1194  8552 CD 0B 85     	call sub_850bh		;8552	cd 0b 85 	. . .
1195  8555              l8555h:
1196  8555 3A 05 79     	ld a,(07905h)		;8555	3a 05 79 	: . y
1197  8558 3C           	inc a			;8558	3c 	<
1198  8559 32 05 79     	ld (07905h),a		;8559	32 05 79 	2 . y
1199  855C CD 60 85     	call sub_8560h		;855c	cd 60 85 	. ` .
1200  855F C9           	ret			;855f	c9 	.
1201  8560              sub_8560h:
1202  8560 21 6A 78     	ld hl,0786ah		;8560	21 6a 78 	! j x
1203  8563 11 04 00     	ld de,00004h		;8563	11 04 00 	. . .
1204  8566 06 06        	ld b,006h		;8566	06 06 	. .
1205  8568              l8568h:
1206  8568 34           	inc (hl)			;8568	34 	4
1207  8569 19           	add hl,de			;8569	19 	.
1208  856A 10 FC        	djnz l8568h		;856a	10 fc 	. .
1209  856C C9           	ret			;856c	c9 	.
1210  856D              l856dh:
1211  856D 3A 08 79     	ld a,(07908h)		;856d	3a 08 79 	: . y
1212  8570 FE F2        	cp 0f2h		;8570	fe f2 	. .
1213  8572 C8           	ret z			;8572	c8 	.
1214  8573 3C           	inc a			;8573	3c 	<
1215  8574 32 08 79     	ld (07908h),a		;8574	32 08 79 	2 . y
1216  8577 2A 06 79     	ld hl,(07906h)		;8577	2a 06 79 	* . y
1217  857A 23           	inc hl			;857a	23 	#
1218  857B 22 06 79     	ld (07906h),hl		;857b	22 06 79 	" . y
1219  857E 18 D5        	jr l8555h		;857e	18 d5 	. .
1220  8580              sub_8580h:
1221  8580 21 FA 78     	ld hl,078fah		;8580	21 fa 78 	! . x
1222  8583 35           	dec (hl)			;8583	35 	5
1223  8584 C0           	ret nz			;8584	c0 	.
1224  8585 36 64        	ld (hl),064h		;8585	36 64 	6 d
1225  8587 3A 03 79     	ld a,(07903h)		;8587	3a 03 79 	: . y
1226  858A EE 01        	xor 001h		;858a	ee 01 	. .
1227  858C 32 03 79     	ld (07903h),a		;858c	32 03 79 	2 . y
1228  858F 3A 85 78     	ld a,(07885h)		;858f	3a 85 78 	: . x
1229  8592 EE 20        	xor 020h		;8592	ee 20 	.
1230  8594 32 85 78     	ld (07885h),a		;8594	32 85 78 	2 . x
1231  8597 3A 8B 78     	ld a,(0788bh)		;8597	3a 8b 78 	: . x
1232  859A EE 20        	xor 020h		;859a	ee 20 	.
1233  859C 32 8B 78     	ld (0788bh),a		;859c	32 8b 78 	2 . x
1234  859F C9           	ret			;859f	c9 	.
1235  85A0 01 1E 00     	ld bc,0001eh		;85a0	01 1e 00 	. . .
1236  85A3              sub_85a3h:
1237  85A3 0B           	dec bc			;85a3	0b 	.
1238  85A4 78           	ld a,b			;85a4	78 	x
1239  85A5 B1           	or c			;85a5	b1 	.
1240  85A6 20 FB        	jr nz,sub_85a3h		;85a6	20 fb 	  .
1241  85A8 C9           	ret			;85a8	c9 	.
1242  85A9              sub_85a9h:
1243  85A9 00           	nop			;85a9	00 	.
1244  85AA 21 F9 78     	ld hl,078f9h		;85aa	21 f9 78 	! . x
1245  85AD 35           	dec (hl)			;85ad	35 	5
1246  85AE C0           	ret nz			;85ae	c0 	.
1247  85AF 36 1E        	ld (hl),01eh		;85af	36 1e 	6 .
1248  85B1 CD ED 86     	call sub_86edh		;85b1	cd ed 86 	. . .
1249  85B4 CD 88 87     	call sub_8788h		;85b4	cd 88 87 	. . .
1250  85B7 CD 70 8F     	call sub_8f70h		;85b7	cd 70 8f 	. p .
1251  85BA CD 81 8D     	call sub_8d81h		;85ba	cd 81 8d 	. . .
1252  85BD CD 39 8C     	call sub_8c39h		;85bd	cd 39 8c 	. 9 .
1253  85C0 CD 88 8C     	call sub_8c88h		;85c0	cd 88 8c 	. . .
1254  85C3 CD 4D 8C     	call sub_8c4dh		;85c3	cd 4d 8c 	. M .
1255  85C6 CD 40 8B     	call sub_8b40h		;85c6	cd 40 8b 	. @ .
1256  85C9 CD 77 86     	call sub_8677h		;85c9	cd 77 86 	. w .
1257  85CC CD FE 8D     	call sub_8dfeh		;85cc	cd fe 8d 	. . .
1258  85CF CD 24 8E     	call sub_8e24h		;85cf	cd 24 8e 	. $ .
1259  85D2 CD 4B 8E     	call sub_8e4bh		;85d2	cd 4b 8e 	. K .
1260  85D5 CD 24 86     	call sub_8624h		;85d5	cd 24 86 	. $ .
1261  85D8 3E 01        	ld a,001h		;85d8	3e 01 	> .
1262  85DA 32 A5 8B     	ld (l8ba5h),a		;85da	32 a5 8b 	2 . .
1263  85DD CD A6 8B     	call sub_8ba6h		;85dd	cd a6 8b 	. . .
1264  85E0 CD 43 8D     	call sub_8d43h		;85e0	cd 43 8d 	. C .
1265  85E3 AF           	xor a			;85e3	af 	.
1266  85E4 32 A5 8B     	ld (l8ba5h),a		;85e4	32 a5 8b 	2 . .
1267  85E7 CD A6 8B     	call sub_8ba6h		;85e7	cd a6 8b 	. . .
1268  85EA CD C3 8A     	call sub_8ac3h		;85ea	cd c3 8a 	. . .
1269  85ED CD 26 8A     	call sub_8a26h		;85ed	cd 26 8a 	. & .
1270  85F0 CD 15 87     	call sub_8715h		;85f0	cd 15 87 	. . .
1271  85F3 CD B9 8D     	call sub_8db9h		;85f3	cd b9 8d 	. . .
1272  85F6 CD 44 86     	call sub_8644h		;85f6	cd 44 86 	. D .
1273  85F9 CD 5B 87     	call sub_875bh		;85f9	cd 5b 87 	. [ .
1274  85FC CD 68 8A     	call sub_8a68h		;85fc	cd 68 8a 	. h .
1275  85FF CD 81 8D     	call sub_8d81h		;85ff	cd 81 8d 	. . .
1276  8602 CD CA 8C     	call sub_8ccah		;8602	cd ca 8c 	. . .
1277  8605 CD 0D 8C     	call sub_8c0dh		;8605	cd 0d 8c 	. . .
1278  8608 CD 7E 8B     	call sub_8b7eh		;8608	cd 7e 8b 	. ~ .
1279  860B CD 16 8B     	call sub_8b16h		;860b	cd 16 8b 	. . .
1280  860E CD 07 87     	call sub_8707h		;860e	cd 07 87 	. . .
1281  8611 CD 74 8E     	call sub_8e74h		;8611	cd 74 8e 	. t .
1282  8614 CD 97 8E     	call sub_8e97h		;8614	cd 97 8e 	. . .
1283  8617 CD BB 8E     	call sub_8ebbh		;8617	cd bb 8e 	. . .
1284  861A CD 9E 86     	call sub_869eh		;861a	cd 9e 86 	. . .
1285  861D CD C7 86     	call sub_86c7h		;861d	cd c7 86 	. . .
1286  8620 CD 8C 86     	call sub_868ch		;8620	cd 8c 86 	. . .
1287  8623 C9           	ret			;8623	c9 	.
1288  8624              sub_8624h:
1289  8624 CD 5E 86     	call sub_865eh		;8624	cd 5e 86 	. ^ .
1290  8627 E5           	push hl			;8627	e5 	.
1291  8628 EB           	ex de,hl			;8628	eb 	.
1292  8629 21 17 A4     	ld hl,la417h		;8629	21 17 a4 	! . .
1293  862C 06 0E        	ld b,00eh		;862c	06 0e 	. .
1294  862E 0E 08        	ld c,008h		;862e	0e 08 	. .
1295  8630 CD A2 8D     	call sub_8da2h		;8630	cd a2 8d 	. . .
1296  8633 E1           	pop hl			;8633	e1 	.
1297  8634 11 08 00     	ld de,00008h		;8634	11 08 00 	. . .
1298  8637 19           	add hl,de			;8637	19 	.
1299  8638 EB           	ex de,hl			;8638	eb 	.
1300  8639 21 87 A4     	ld hl,la487h		;8639	21 87 a4 	! . .
1301  863C 06 0E        	ld b,00eh		;863c	06 0e 	. .
1302  863E 0E 08        	ld c,008h		;863e	0e 08 	. .
1303  8640 CD A2 8D     	call sub_8da2h		;8640	cd a2 8d 	. . .
1304  8643 C9           	ret			;8643	c9 	.
1305  8644              sub_8644h:
1306  8644 CD 5E 86     	call sub_865eh		;8644	cd 5e 86 	. ^ .
1307  8647 EB           	ex de,hl			;8647	eb 	.
1308  8648 3E 10        	ld a,010h		;8648	3e 10 	> .
1309  864A 01 08 00     	ld bc,00008h		;864a	01 08 00 	. . .
1310  864D F5           	push af			;864d	f5 	.
1311  864E C5           	push bc			;864e	c5 	.
1312  864F D5           	push de			;864f	d5 	.
1313  8650 CD 8A 8D     	call sub_8d8ah		;8650	cd 8a 8d 	. . .
1314  8653 E1           	pop hl			;8653	e1 	.
1315  8654 11 08 00     	ld de,00008h		;8654	11 08 00 	. . .
1316  8657 19           	add hl,de			;8657	19 	.
1317  8658 EB           	ex de,hl			;8658	eb 	.
1318  8659 C1           	pop bc			;8659	c1 	.
1319  865A F1           	pop af			;865a	f1 	.
1320  865B C3 8A 8D     	jp sub_8d8ah		;865b	c3 8a 8d 	. . .
1321  865E              sub_865eh:
1322  865E 3A 08 79     	ld a,(07908h)		;865e	3a 08 79 	: . y
1323  8661 CB 7F        	bit 7,a		;8661	cb 7f 	. 
1324  8663 28 10        	jr z,l8675h		;8663	28 10 	( .
1325  8665 CB BF        	res 7,a		;8665	cb bf 	. .
1326  8667 D6 66        	sub 066h		;8667	d6 66 	. f
1327  8669 FA 75 86     	jp m,l8675h		;8669	fa 75 86 	. u .
1328  866C 3C           	inc a			;866c	3c 	<
1329  866D 21 0E B3     	ld hl,0b30eh		;866d	21 0e b3 	! . .
1330  8670              l8670h:
1331  8670 3D           	dec a			;8670	3d 	=
1332  8671 C8           	ret z			;8671	c8 	.
1333  8672 2B           	dec hl			;8672	2b 	+
1334  8673 18 FB        	jr l8670h		;8673	18 fb 	. .
1335  8675              l8675h:
1336  8675 F1           	pop af			;8675	f1 	.
1337  8676 C9           	ret			;8676	c9 	.
1338  8677              sub_8677h:
1339  8677 3E F5        	ld a,0f5h		;8677	3e f5 	> .
1340  8679 CD F1 8C     	call sub_8cf1h		;8679	cd f1 8c 	. . .
1341  867C C0           	ret nz			;867c	c0 	.
1342  867D CD E1 8E     	call sub_8ee1h		;867d	cd e1 8e 	. . .
1343  8680 11 F7 A4     	ld de,la4f7h		;8680	11 f7 a4 	. . .
1344  8683 EB           	ex de,hl			;8683	eb 	.
1345  8684 06 10        	ld b,010h		;8684	06 10 	. .
1346  8686 0E 03        	ld c,003h		;8686	0e 03 	. .
1347  8688 CD A2 8D     	call sub_8da2h		;8688	cd a2 8d 	. . .
1348  868B C9           	ret			;868b	c9 	.
1349  868C              sub_868ch:
1350  868C 3E F5        	ld a,0f5h		;868c	3e f5 	> .
1351  868E CD F1 8C     	call sub_8cf1h		;868e	cd f1 8c 	. . .
1352  8691 C0           	ret nz			;8691	c0 	.
1353  8692 CD E1 8E     	call sub_8ee1h		;8692	cd e1 8e 	. . .
1354  8695 3E 10        	ld a,010h		;8695	3e 10 	> .
1355  8697 01 03 00     	ld bc,00003h		;8697	01 03 00 	. . .
1356  869A EB           	ex de,hl			;869a	eb 	.
1357  869B C3 8A 8D     	jp sub_8d8ah		;869b	c3 8a 8d 	. . .
1358  869E              sub_869eh:
1359  869E DD 21 D7 78  	ld ix,078d7h		;869e	dd 21 d7 78 	. ! . x
1360  86A2 3E 05        	ld a,005h		;86a2	3e 05 	> .
1361  86A4              l86a4h:
1362  86A4 F5           	push af			;86a4	f5 	.
1363  86A5 CD B2 86     	call sub_86b2h		;86a5	cd b2 86 	. . .
1364  86A8 F1           	pop af			;86a8	f1 	.
1365  86A9 01 06 00     	ld bc,00006h		;86a9	01 06 00 	. . .
1366  86AC DD 09        	add ix,bc		;86ac	dd 09 	. .
1367  86AE 3D           	dec a			;86ae	3d 	=
1368  86AF 20 F3        	jr nz,l86a4h		;86af	20 f3 	  .
1369  86B1 C9           	ret			;86b1	c9 	.
1370  86B2              sub_86b2h:
1371  86B2 DD 7E 05     	ld a,(ix+005h)		;86b2	dd 7e 05 	. ~ .
1372  86B5 B7           	or a			;86b5	b7 	.
1373  86B6 C0           	ret nz			;86b6	c0 	.
1374  86B7 DD 7E 00     	ld a,(ix+000h)		;86b7	dd 7e 00 	. ~ .
1375  86BA CD F1 8C     	call sub_8cf1h		;86ba	cd f1 8c 	. . .
1376  86BD C0           	ret nz			;86bd	c0 	.
1377  86BE EB           	ex de,hl			;86be	eb 	.
1378  86BF 3E 09        	ld a,009h		;86bf	3e 09 	> .
1379  86C1 01 06 00     	ld bc,00006h		;86c1	01 06 00 	. . .
1380  86C4 C3 8A 8D     	jp sub_8d8ah		;86c4	c3 8a 8d 	. . .
1381  86C7              sub_86c7h:
1382  86C7 3E 05        	ld a,005h		;86c7	3e 05 	> .
1383  86C9 DD 21 B9 78  	ld ix,078b9h		;86c9	dd 21 b9 78 	. ! . x
1384  86CD              l86cdh:
1385  86CD F5           	push af			;86cd	f5 	.
1386  86CE CD DB 86     	call sub_86dbh		;86ce	cd db 86 	. . .
1387  86D1 F1           	pop af			;86d1	f1 	.
1388  86D2 01 06 00     	ld bc,00006h		;86d2	01 06 00 	. . .
1389  86D5 DD 09        	add ix,bc		;86d5	dd 09 	. .
1390  86D7 3D           	dec a			;86d7	3d 	=
1391  86D8 20 F3        	jr nz,l86cdh		;86d8	20 f3 	  .
1392  86DA C9           	ret			;86da	c9 	.
1393  86DB              sub_86dbh:
1394  86DB DD CB 05 7E  	bit 7,(ix+005h)		;86db	dd cb 05 7e 	. . . ~
1395  86DF C8           	ret z			;86df	c8 	.
1396  86E0 DD 7E 00     	ld a,(ix+000h)		;86e0	dd 7e 00 	. ~ .
1397  86E3 CD F1 8C     	call sub_8cf1h		;86e3	cd f1 8c 	. . .
1398  86E6 C0           	ret nz			;86e6	c0 	.
1399  86E7 CD 7D 8C     	call sub_8c7dh		;86e7	cd 7d 8c 	. } .
1400  86EA 36 00        	ld (hl),000h		;86ea	36 00 	6 .
1401  86EC C9           	ret			;86ec	c9 	.
1402  86ED              sub_86edh:
1403  86ED 3A 35 78     	ld a,(07835h)		;86ed	3a 35 78 	: 5 x
1404  86F0 B7           	or a			;86f0	b7 	.
1405  86F1 C0           	ret nz			;86f1	c0 	.
1406  86F2 3A 00 79     	ld a,(07900h)		;86f2	3a 00 79 	: . y
1407  86F5 FE 35        	cp 035h		;86f5	fe 35 	. 5
1408  86F7 C0           	ret nz			;86f7	c0 	.
1409  86F8 CD D2 83     	call sub_83d2h		;86f8	cd d2 83 	. . .
1410  86FB CB 7F        	bit 7,a		;86fb	cb 7f 	. 
1411  86FD C8           	ret z			;86fd	c8 	.
1412  86FE CB BF        	res 7,a		;86fe	cb bf 	. .
1413  8700 FE 76        	cp 076h		;8700	fe 76 	. v
1414  8702 F8           	ret m			;8702	f8 	.
1415  8703 CD 79 8F     	call sub_8f79h		;8703	cd 79 8f 	. y .
1416  8706 C9           	ret			;8706	c9 	.
1417  8707              sub_8707h:
1418  8707 21 86 AA     	ld hl,0aa86h		;8707	21 86 aa 	! . .
1419  870A 11 87 AA     	ld de,0aa87h		;870a	11 87 aa 	. . .
1420  870D 01 D0 00     	ld bc,000d0h		;870d	01 d0 00 	. . .
1421  8710 36 00        	ld (hl),000h		;8710	36 00 	6 .
1422  8712 ED B0        	ldir		;8712	ed b0 	. .
1423  8714 C9           	ret			;8714	c9 	.
1424  8715              sub_8715h:
1425  8715 DD 21 01 78  	ld ix,07801h		;8715	dd 21 01 78 	. ! . x
1426  8719 3E 04        	ld a,004h		;8719	3e 04 	> .
1427  871B              l871bh:
1428  871B F5           	push af			;871b	f5 	.
1429  871C CD 29 87     	call sub_8729h		;871c	cd 29 87 	. ) .
1430  871F F1           	pop af			;871f	f1 	.
1431  8720 01 04 00     	ld bc,00004h		;8720	01 04 00 	. . .
1432  8723 DD 09        	add ix,bc		;8723	dd 09 	. .
1433  8725 3D           	dec a			;8725	3d 	=
1434  8726 20 F3        	jr nz,l871bh		;8726	20 f3 	  .
1435  8728 C9           	ret			;8728	c9 	.
1436  8729              sub_8729h:
1437  8729 DD CB 03 46  	bit 0,(ix+003h)		;8729	dd cb 03 46 	. . . F
1438  872D C8           	ret z			;872d	c8 	.
1439  872E CD 45 7E     	call sub_7e45h		;872e	cd 45 7e 	. E ~
1440  8731 21 DF A3     	ld hl,la3dfh		;8731	21 df a3 	! . .
1441  8734 11 1C 00     	ld de,0001ch		;8734	11 1c 00 	. . .
1442  8737 28 01        	jr z,l873ah		;8737	28 01 	( .
1443  8739 19           	add hl,de			;8739	19 	.
1444  873A              l873ah:
1445  873A 11 0E 00     	ld de,0000eh		;873a	11 0e 00 	. . .
1446  873D DD CB 03 4E  	bit 1,(ix+003h)		;873d	dd cb 03 4e 	. . . N
1447  8741 28 01        	jr z,l8744h		;8741	28 01 	( .
1448  8743 19           	add hl,de			;8743	19 	.
1449  8744              l8744h:
1450  8744 E5           	push hl			;8744	e5 	.
1451  8745 DD 7E 00     	ld a,(ix+000h)		;8745	dd 7e 00 	. ~ .
1452  8748 CD F1 8C     	call sub_8cf1h		;8748	cd f1 8c 	. . .
1453  874B D1           	pop de			;874b	d1 	.
1454  874C C0           	ret nz			;874c	c0 	.
1455  874D 01 58 00     	ld bc,00058h		;874d	01 58 00 	. X .
1456  8750 09           	add hl,bc			;8750	09 	.
1457  8751 EB           	ex de,hl			;8751	eb 	.
1458  8752 01 02 00     	ld bc,00002h		;8752	01 02 00 	. . .
1459  8755 3E 07        	ld a,007h		;8755	3e 07 	> .
1460  8757 CD 91 8D     	call sub_8d91h		;8757	cd 91 8d 	. . .
1461  875A C9           	ret			;875a	c9 	.
1462  875B              sub_875bh:
1463  875B DD 21 01 78  	ld ix,07801h		;875b	dd 21 01 78 	. ! . x
1464  875F 3E 04        	ld a,004h		;875f	3e 04 	> .
1465  8761              l8761h:
1466  8761 F5           	push af			;8761	f5 	.
1467  8762 CD 6F 87     	call sub_876fh		;8762	cd 6f 87 	. o .
1468  8765 F1           	pop af			;8765	f1 	.
1469  8766 01 04 00     	ld bc,00004h		;8766	01 04 00 	. . .
1470  8769 DD 09        	add ix,bc		;8769	dd 09 	. .
1471  876B 3D           	dec a			;876b	3d 	=
1472  876C 20 F3        	jr nz,l8761h		;876c	20 f3 	  .
1473  876E C9           	ret			;876e	c9 	.
1474  876F              sub_876fh:
1475  876F DD CB 03 46  	bit 0,(ix+003h)		;876f	dd cb 03 46 	. . . F
1476  8773 C8           	ret z			;8773	c8 	.
1477  8774 DD 7E 00     	ld a,(ix+000h)		;8774	dd 7e 00 	. ~ .
1478  8777 CD F1 8C     	call sub_8cf1h		;8777	cd f1 8c 	. . .
1479  877A C0           	ret nz			;877a	c0 	.
1480  877B 01 58 00     	ld bc,00058h		;877b	01 58 00 	. X .
1481  877E 09           	add hl,bc			;877e	09 	.
1482  877F EB           	ex de,hl			;877f	eb 	.
1483  8780 3E 07        	ld a,007h		;8780	3e 07 	> .
1484  8782 01 02 00     	ld bc,00002h		;8782	01 02 00 	. . .
1485  8785 C3 8A 8D     	jp sub_8d8ah		;8785	c3 8a 8d 	. . .
1486  8788              sub_8788h:
1487  8788 DD 21 6A 78  	ld ix,0786ah		;8788	dd 21 6a 78 	. ! j x
1488  878C 3E 06        	ld a,006h		;878c	3e 06 	> .
1489  878E              l878eh:
1490  878E F5           	push af			;878e	f5 	.
1491  878F CD 9C 87     	call sub_879ch		;878f	cd 9c 87 	. . .
1492  8792 01 04 00     	ld bc,00004h		;8792	01 04 00 	. . .
1493  8795 DD 09        	add ix,bc		;8795	dd 09 	. .
1494  8797 F1           	pop af			;8797	f1 	.
1495  8798 3D           	dec a			;8798	3d 	=
1496  8799 20 F3        	jr nz,l878eh		;8799	20 f3 	  .
1497  879B C9           	ret			;879b	c9 	.
1498  879C              sub_879ch:
1499  879C DD 7E 03     	ld a,(ix+003h)		;879c	dd 7e 03 	. ~ .
1500  879F CB 5F        	bit 3,a		;879f	cb 5f 	. _
1501  87A1 C8           	ret z			;87a1	c8 	.
1502  87A2 CD AC 87     	call sub_87ach		;87a2	cd ac 87 	. . .
1503  87A5 CD 19 88     	call sub_8819h		;87a5	cd 19 88 	. . .
1504  87A8 CD 8E 88     	call sub_888eh		;87a8	cd 8e 88 	. . .
1505  87AB C9           	ret			;87ab	c9 	.
1506  87AC              sub_87ach:
1507  87AC 3E 04        	ld a,004h		;87ac	3e 04 	> .
1508  87AE FD 21 9A 78  	ld iy,0789ah		;87ae	fd 21 9a 78 	. ! . x
1509  87B2              l87b2h:
1510  87B2 F5           	push af			;87b2	f5 	.
1511  87B3 CD C0 87     	call sub_87c0h		;87b3	cd c0 87 	. . .
1512  87B6 01 07 00     	ld bc,00007h		;87b6	01 07 00 	. . .
1513  87B9 FD 09        	add iy,bc		;87b9	fd 09 	. .
1514  87BB F1           	pop af			;87bb	f1 	.
1515  87BC 3D           	dec a			;87bc	3d 	=
1516  87BD 20 F3        	jr nz,l87b2h		;87bd	20 f3 	  .
1517  87BF C9           	ret			;87bf	c9 	.
1518  87C0              sub_87c0h:
1519  87C0 FD CB 05 7E  	bit 7,(iy+005h)		;87c0	fd cb 05 7e 	. . . ~
1520  87C4 C8           	ret z			;87c4	c8 	.
1521  87C5 DD 46 00     	ld b,(ix+000h)		;87c5	dd 46 00 	. F .
1522  87C8 FD 7E 00     	ld a,(iy+000h)		;87c8	fd 7e 00 	. ~ .
1523  87CB B8           	cp b			;87cb	b8 	.
1524  87CC 28 05        	jr z,l87d3h		;87cc	28 05 	( .
1525  87CE 3C           	inc a			;87ce	3c 	<
1526  87CF B8           	cp b			;87cf	b8 	.
1527  87D0 28 01        	jr z,l87d3h		;87d0	28 01 	( .
1528  87D2 C9           	ret			;87d2	c9 	.
1529  87D3              l87d3h:
1530  87D3 DD 4E 01     	ld c,(ix+001h)		;87d3	dd 4e 01 	. N .
1531  87D6 FD 7E 01     	ld a,(iy+001h)		;87d6	fd 7e 01 	. ~ .
1532  87D9 C6 08        	add a,008h		;87d9	c6 08 	. .
1533  87DB 06 09        	ld b,009h		;87db	06 09 	. .
1534  87DD              l87ddh:
1535  87DD B9           	cp c			;87dd	b9 	.
1536  87DE 28 04        	jr z,l87e4h		;87de	28 04 	( .
1537  87E0 3D           	dec a			;87e0	3d 	=
1538  87E1 10 FA        	djnz l87ddh		;87e1	10 fa 	. .
1539  87E3 C9           	ret			;87e3	c9 	.
1540  87E4              l87e4h:
1541  87E4 DD 36 03 00  	ld (ix+003h),000h		;87e4	dd 36 03 00 	. 6 . .
1542  87E8 FD 7E 01     	ld a,(iy+001h)		;87e8	fd 7e 01 	. ~ .
1543  87EB C6 08        	add a,008h		;87eb	c6 08 	. .
1544  87ED 4F           	ld c,a			;87ed	4f 	O
1545  87EE FD 46 00     	ld b,(iy+000h)		;87ee	fd 46 00 	. F .
1546  87F1 16 80        	ld d,080h		;87f1	16 80 	. .
1547  87F3 CD C3 89     	call sub_89c3h		;87f3	cd c3 89 	. . .
1548  87F6 FD 7E 06     	ld a,(iy+006h)		;87f6	fd 7e 06 	. ~ .
1549  87F9 FD 77 00     	ld (iy+000h),a		;87f9	fd 77 00 	. w .
1550  87FC AF           	xor a			;87fc	af 	.
1551  87FD FD 77 01     	ld (iy+001h),a		;87fd	fd 77 01 	. w .
1552  8800 FD 77 02     	ld (iy+002h),a		;8800	fd 77 02 	. w .
1553  8803 FD 77 03     	ld (iy+003h),a		;8803	fd 77 03 	. w .
1554  8806 FD 77 04     	ld (iy+004h),a		;8806	fd 77 04 	. w .
1555  8809 ED 5F        	ld a,r		;8809	ed 5f 	. _
1556  880B E6 3F        	and 03fh		;880b	e6 3f 	. ?
1557  880D F6 07        	or 007h		;880d	f6 07 	. .
1558  880F FD 77 05     	ld (iy+005h),a		;880f	fd 77 05 	. w .
1559  8812 CD 85 8F     	call sub_8f85h		;8812	cd 85 8f 	. . .
1560  8815 CD 85 8F     	call sub_8f85h		;8815	cd 85 8f 	. . .
1561  8818 C9           	ret			;8818	c9 	.
1562  8819              sub_8819h:
1563  8819 3E 05        	ld a,005h		;8819	3e 05 	> .
1564  881B FD 21 D7 78  	ld iy,078d7h		;881b	fd 21 d7 78 	. ! . x
1565  881F              l881fh:
1566  881F F5           	push af			;881f	f5 	.
1567  8820 CD 2D 88     	call sub_882dh		;8820	cd 2d 88 	. - .
1568  8823 01 06 00     	ld bc,00006h		;8823	01 06 00 	. . .
1569  8826 FD 09        	add iy,bc		;8826	fd 09 	. .
1570  8828 F1           	pop af			;8828	f1 	.
1571  8829 3D           	dec a			;8829	3d 	=
1572  882A 20 F3        	jr nz,l881fh		;882a	20 f3 	  .
1573  882C C9           	ret			;882c	c9 	.
1574  882D              sub_882dh:
1575  882D FD 7E 05     	ld a,(iy+005h)		;882d	fd 7e 05 	. ~ .
1576  8830 E6 3F        	and 03fh		;8830	e6 3f 	. ?
1577  8832 C0           	ret nz			;8832	c0 	.
1578  8833 DD 4E 00     	ld c,(ix+000h)		;8833	dd 4e 00 	. N .
1579  8836 FD 7E 00     	ld a,(iy+000h)		;8836	fd 7e 00 	. ~ .
1580  8839 06 06        	ld b,006h		;8839	06 06 	. .
1581  883B              l883bh:
1582  883B B9           	cp c			;883b	b9 	.
1583  883C 28 04        	jr z,l8842h		;883c	28 04 	( .
1584  883E 3C           	inc a			;883e	3c 	<
1585  883F 10 FA        	djnz l883bh		;883f	10 fa 	. .
1586  8841 C9           	ret			;8841	c9 	.
1587  8842              l8842h:
1588  8842 DD 7E 01     	ld a,(ix+001h)		;8842	dd 7e 01 	. ~ .
1589  8845 FE 09        	cp 009h		;8845	fe 09 	. .
1590  8847 F0           	ret p			;8847	f0 	.
1591  8848 DD 46 00     	ld b,(ix+000h)		;8848	dd 46 00 	. F .
1592  884B DD 4E 01     	ld c,(ix+001h)		;884b	dd 4e 01 	. N .
1593  884E 16 40        	ld d,040h		;884e	16 40 	. @
1594  8850 CD C3 89     	call sub_89c3h		;8850	cd c3 89 	. . .
1595  8853 DD 36 03 00  	ld (ix+003h),000h		;8853	dd 36 03 00 	. 6 . .
1596  8857 FD 46 00     	ld b,(iy+000h)		;8857	fd 46 00 	. F .
1597  885A 0E 06        	ld c,006h		;885a	0e 06 	. .
1598  885C 16 80        	ld d,080h		;885c	16 80 	. .
1599  885E CD C3 89     	call sub_89c3h		;885e	cd c3 89 	. . .
1600  8861 FD 7E 01     	ld a,(iy+001h)		;8861	fd 7e 01 	. ~ .
1601  8864 06 02        	ld b,002h		;8864	06 02 	. .
1602  8866 FE 01        	cp 001h		;8866	fe 01 	. .
1603  8868 28 14        	jr z,l887eh		;8868	28 14 	( .
1604  886A 06 3C        	ld b,03ch		;886a	06 3c 	. <
1605  886C FE 31        	cp 031h		;886c	fe 31 	. 1
1606  886E 28 0E        	jr z,l887eh		;886e	28 0e 	( .
1607  8870 06 73        	ld b,073h		;8870	06 73 	. s
1608  8872 FE 68        	cp 068h		;8872	fe 68 	. h
1609  8874 28 08        	jr z,l887eh		;8874	28 08 	( .
1610  8876 06 A6        	ld b,0a6h		;8876	06 a6 	. .
1611  8878 FE 9B        	cp 09bh		;8878	fe 9b 	. .
1612  887A 28 02        	jr z,l887eh		;887a	28 02 	( .
1613  887C 06 ED        	ld b,0edh		;887c	06 ed 	. .
1614  887E              l887eh:
1615  887E FD 70 00     	ld (iy+000h),b		;887e	fd 70 00 	. p .
1616  8881 ED 5F        	ld a,r		;8881	ed 5f 	. _
1617  8883 E6 C0        	and 0c0h		;8883	e6 c0 	. .
1618  8885 F6 3F        	or 03fh		;8885	f6 3f 	. ?
1619  8887 FD 77 05     	ld (iy+005h),a		;8887	fd 77 05 	. w .
1620  888A CD 85 8F     	call sub_8f85h		;888a	cd 85 8f 	. . .
1621  888D C9           	ret			;888d	c9 	.
1622  888E              sub_888eh:
1623  888E 3E 04        	ld a,004h		;888e	3e 04 	> .
1624  8890 FD 21 8E 78  	ld iy,0788eh		;8890	fd 21 8e 78 	. ! . x
1625  8894              l8894h:
1626  8894 F5           	push af			;8894	f5 	.
1627  8895 CD A2 88     	call sub_88a2h		;8895	cd a2 88 	. . .
1628  8898 01 06 00     	ld bc,00006h		;8898	01 06 00 	. . .
1629  889B FD 09        	add iy,bc		;889b	fd 09 	. .
1630  889D F1           	pop af			;889d	f1 	.
1631  889E 3D           	dec a			;889e	3d 	=
1632  889F 20 F3        	jr nz,l8894h		;889f	20 f3 	  .
1633  88A1 C9           	ret			;88a1	c9 	.
1634  88A2              sub_88a2h:
1635  88A2 FD 7E 05     	ld a,(iy+005h)		;88a2	fd 7e 05 	. ~ .
1636  88A5 B7           	or a			;88a5	b7 	.
1637  88A6 C8           	ret z			;88a6	c8 	.
1638  88A7 DD 7E 00     	ld a,(ix+000h)		;88a7	dd 7e 00 	. ~ .
1639  88AA FD 4E 00     	ld c,(iy+000h)		;88aa	fd 4e 00 	. N .
1640  88AD B9           	cp c			;88ad	b9 	.
1641  88AE 28 07        	jr z,l88b7h		;88ae	28 07 	( .
1642  88B0 0C           	inc c			;88b0	0c 	.
1643  88B1 B9           	cp c			;88b1	b9 	.
1644  88B2 28 03        	jr z,l88b7h		;88b2	28 03 	( .
1645  88B4 0C           	inc c			;88b4	0c 	.
1646  88B5 B9           	cp c			;88b5	b9 	.
1647  88B6 C0           	ret nz			;88b6	c0 	.
1648  88B7              l88b7h:
1649  88B7 FD 7E 01     	ld a,(iy+001h)		;88b7	fd 7e 01 	. ~ .
1650  88BA C6 08        	add a,008h		;88ba	c6 08 	. .
1651  88BC DD 4E 01     	ld c,(ix+001h)		;88bc	dd 4e 01 	. N .
1652  88BF B9           	cp c			;88bf	b9 	.
1653  88C0 28 07        	jr z,l88c9h		;88c0	28 07 	( .
1654  88C2 3D           	dec a			;88c2	3d 	=
1655  88C3 B9           	cp c			;88c3	b9 	.
1656  88C4 28 03        	jr z,l88c9h		;88c4	28 03 	( .
1657  88C6 3D           	dec a			;88c6	3d 	=
1658  88C7 B9           	cp c			;88c7	b9 	.
1659  88C8 C0           	ret nz			;88c8	c0 	.
1660  88C9              l88c9h:
1661  88C9 C6 03        	add a,003h		;88c9	c6 03 	. .
1662  88CB FD 46 00     	ld b,(iy+000h)		;88cb	fd 46 00 	. F .
1663  88CE 4F           	ld c,a			;88ce	4f 	O
1664  88CF 16 80        	ld d,080h		;88cf	16 80 	. .
1665  88D1 CD C3 89     	call sub_89c3h		;88d1	cd c3 89 	. . .
1666  88D4 FD 36 05 00  	ld (iy+005h),000h		;88d4	fd 36 05 00 	. 6 . .
1667  88D8 DD 36 03 00  	ld (ix+003h),000h		;88d8	dd 36 03 00 	. 6 . .
1668  88DC CD 85 8F     	call sub_8f85h		;88dc	cd 85 8f 	. . .
1669  88DF CD 85 8F     	call sub_8f85h		;88df	cd 85 8f 	. . .
1670  88E2 CD 85 8F     	call sub_8f85h		;88e2	cd 85 8f 	. . .
1671  88E5 C9           	ret			;88e5	c9 	.
1672  88E6              sub_88e6h:
1673  88E6 3A 35 78     	ld a,(07835h)		;88e6	3a 35 78 	: 5 x
1674  88E9 B7           	or a			;88e9	b7 	.
1675  88EA C0           	ret nz			;88ea	c0 	.
1676  88EB E5           	push hl			;88eb	e5 	.
1677  88EC D5           	push de			;88ec	d5 	.
1678  88ED 06 09        	ld b,009h		;88ed	06 09 	. .
1679  88EF              l88efh:
1680  88EF 0E 06        	ld c,006h		;88ef	0e 06 	. .
1681  88F1              l88f1h:
1682  88F1 7E           	ld a,(hl)			;88f1	7e 	~
1683  88F2 B7           	or a			;88f2	b7 	.
1684  88F3 28 04        	jr z,l88f9h		;88f3	28 04 	( .
1685  88F5 1A           	ld a,(de)			;88f5	1a 	.
1686  88F6 B7           	or a			;88f6	b7 	.
1687  88F7 20 11        	jr nz,l890ah		;88f7	20 11 	  .
1688  88F9              l88f9h:
1689  88F9 23           	inc hl			;88f9	23 	#
1690  88FA 13           	inc de			;88fa	13 	.
1691  88FB 0D           	dec c			;88fb	0d 	.
1692  88FC 20 F3        	jr nz,l88f1h		;88fc	20 f3 	  .
1693  88FE E5           	push hl			;88fe	e5 	.
1694  88FF 21 26 00     	ld hl,00026h		;88ff	21 26 00 	! & .
1695  8902 19           	add hl,de			;8902	19 	.
1696  8903 EB           	ex de,hl			;8903	eb 	.
1697  8904 E1           	pop hl			;8904	e1 	.
1698  8905 10 E8        	djnz l88efh		;8905	10 e8 	. .
1699  8907 D1           	pop de			;8907	d1 	.
1700  8908 E1           	pop hl			;8908	e1 	.
1701  8909 C9           	ret			;8909	c9 	.
1702  890A              l890ah:
1703  890A 3E 0A        	ld a,00ah		;890a	3e 0a 	> .
1704  890C 32 35 78     	ld (07835h),a		;890c	32 35 78 	2 5 x
1705  890F CD CA 8C     	call sub_8ccah		;890f	cd ca 8c 	. . .
1706  8912 CD 7E 8B     	call sub_8b7eh		;8912	cd 7e 8b 	. ~ .
1707  8915 DD 21 9A 78  	ld ix,0789ah		;8915	dd 21 9a 78 	. ! . x
1708  8919 11 07 00     	ld de,00007h		;8919	11 07 00 	. . .
1709  891C 06 04        	ld b,004h		;891c	06 04 	. .
1710  891E              l891eh:
1711  891E CD E1 82     	call l82e1h		;891e	cd e1 82 	. . .
1712  8921 DD 19        	add ix,de		;8921	dd 19 	. .
1713  8923 10 F9        	djnz l891eh		;8923	10 f9 	. .
1714  8925 21 BE 78     	ld hl,078beh		;8925	21 be 78 	! . x
1715  8928 11 06 00     	ld de,00006h		;8928	11 06 00 	. . .
1716  892B 06 05        	ld b,005h		;892b	06 05 	. .
1717  892D              l892dh:
1718  892D 36 7F        	ld (hl),07fh		;892d	36 7f 	6 
1719  892F 19           	add hl,de			;892f	19 	.
1720  8930 10 FB        	djnz l892dh		;8930	10 fb 	. .
1721  8932 AF           	xor a			;8932	af 	.
1722  8933 32 93 78     	ld (07893h),a		;8933	32 93 78 	2 . x
1723  8936 32 99 78     	ld (07899h),a		;8936	32 99 78 	2 . x
1724  8939 CD D2 83     	call sub_83d2h		;8939	cd d2 83 	. . .
1725  893C 47           	ld b,a			;893c	47 	G
1726  893D 3A 00 79     	ld a,(07900h)		;893d	3a 00 79 	: . y
1727  8940 4F           	ld c,a			;8940	4f 	O
1728  8941 3E 3B        	ld a,03bh		;8941	3e 3b 	> ;
1729  8943 91           	sub c			;8943	91 	.
1730  8944 4F           	ld c,a			;8944	4f 	O
1731  8945 04           	inc b			;8945	04 	.
1732  8946 16 80        	ld d,080h		;8946	16 80 	. .
1733  8948 CD C3 89     	call sub_89c3h		;8948	cd c3 89 	. . .
1734  894B D1           	pop de			;894b	d1 	.
1735  894C E1           	pop hl			;894c	e1 	.
1736  894D C9           	ret			;894d	c9 	.
1737  894E              sub_894eh:
1738  894E 21 3E 78     	ld hl,0783eh		;894e	21 3e 78 	! > x
1739  8951 35           	dec (hl)			;8951	35 	5
1740  8952 C0           	ret nz			;8952	c0 	.
1741  8953 36 19        	ld (hl),019h		;8953	36 19 	6 .
1742  8955 DD 21 6A 78  	ld ix,0786ah		;8955	dd 21 6a 78 	. ! j x
1743  8959 3E 06        	ld a,006h		;8959	3e 06 	> .
1744  895B              l895bh:
1745  895B F5           	push af			;895b	f5 	.
1746  895C CD 69 89     	call sub_8969h		;895c	cd 69 89 	. i .
1747  895F 01 04 00     	ld bc,00004h		;895f	01 04 00 	. . .
1748  8962 DD 09        	add ix,bc		;8962	dd 09 	. .
1749  8964 F1           	pop af			;8964	f1 	.
1750  8965 3D           	dec a			;8965	3d 	=
1751  8966 20 F3        	jr nz,l895bh		;8966	20 f3 	  .
1752  8968 C9           	ret			;8968	c9 	.
1753  8969              sub_8969h:
1754  8969 DD CB 03 5E  	bit 3,(ix+003h)		;8969	dd cb 03 5e 	. . . ^
1755  896D C8           	ret z			;896d	c8 	.
1756  896E DD 7E 02     	ld a,(ix+002h)		;896e	dd 7e 02 	. ~ .
1757  8971 3D           	dec a			;8971	3d 	=
1758  8972 DD 77 02     	ld (ix+002h),a		;8972	dd 77 02 	. w .
1759  8975 20 10        	jr nz,l8987h		;8975	20 10 	  .
1760  8977              l8977h:
1761  8977 DD 36 03 00  	ld (ix+003h),000h		;8977	dd 36 03 00 	. 6 . .
1762  897B DD 46 00     	ld b,(ix+000h)		;897b	dd 46 00 	. F .
1763  897E DD 4E 01     	ld c,(ix+001h)		;897e	dd 4e 01 	. N .
1764  8981 16 00        	ld d,000h		;8981	16 00 	. .
1765  8983 CD C3 89     	call sub_89c3h		;8983	cd c3 89 	. . .
1766  8986 C9           	ret			;8986	c9 	.
1767  8987              l8987h:
1768  8987 DD 7E 03     	ld a,(ix+003h)		;8987	dd 7e 03 	. ~ .
1769  898A E6 03        	and 003h		;898a	e6 03 	. .
1770  898C 28 1D        	jr z,l89abh		;898c	28 1d 	( .
1771  898E FE 01        	cp 001h		;898e	fe 01 	. .
1772  8990 28 06        	jr z,l8998h		;8990	28 06 	( .
1773  8992 DD 35 01     	dec (ix+001h)		;8992	dd 35 01 	. 5 .
1774  8995 28 E0        	jr z,l8977h		;8995	28 e0 	( .
1775  8997 C9           	ret			;8997	c9 	.
1776  8998              l8998h:
1777  8998 DD CB 03 56  	bit 2,(ix+003h)		;8998	dd cb 03 56 	. . . V
1778  899C 20 05        	jr nz,l89a3h		;899c	20 05 	  .
1779  899E DD CB 03 D6  	set 2,(ix+003h)		;899e	dd cb 03 d6 	. . . .
1780  89A2 C9           	ret			;89a2	c9 	.
1781  89A3              l89a3h:
1782  89A3 DD CB 03 96  	res 2,(ix+003h)		;89a3	dd cb 03 96 	. . . .
1783  89A7 DD 34 00     	inc (ix+000h)		;89a7	dd 34 00 	. 4 .
1784  89AA C9           	ret			;89aa	c9 	.
1785  89AB              l89abh:
1786  89AB DD CB 03 56  	bit 2,(ix+003h)		;89ab	dd cb 03 56 	. . . V
1787  89AF 28 05        	jr z,l89b6h		;89af	28 05 	( .
1788  89B1 DD CB 03 96  	res 2,(ix+003h)		;89b1	dd cb 03 96 	. . . .
1789  89B5 C9           	ret			;89b5	c9 	.
1790  89B6              l89b6h:
1791  89B6 DD 7E 00     	ld a,(ix+000h)		;89b6	dd 7e 00 	. ~ .
1792  89B9 B7           	or a			;89b9	b7 	.
1793  89BA C8           	ret z			;89ba	c8 	.
1794  89BB DD 35 00     	dec (ix+000h)		;89bb	dd 35 00 	. 5 .
1795  89BE DD CB 03 D6  	set 2,(ix+003h)		;89be	dd cb 03 d6 	. . . .
1796  89C2 C9           	ret			;89c2	c9 	.
1797  89C3              sub_89c3h:
1798  89C3 00           	nop			;89c3	00 	.
1799  89C4 3E 0E        	ld a,00eh		;89c4	3e 0e 	> .
1800  89C6 DD E5        	push ix		;89c6	dd e5 	. .
1801  89C8 DD 21 40 78  	ld ix,07840h		;89c8	dd 21 40 78 	. ! @ x
1802  89CC              l89cch:
1803  89CC F5           	push af			;89cc	f5 	.
1804  89CD CD DD 89     	call sub_89ddh		;89cd	cd dd 89 	. . .
1805  89D0 DD 23        	inc ix		;89d0	dd 23 	. #
1806  89D2 DD 23        	inc ix		;89d2	dd 23 	. #
1807  89D4 DD 23        	inc ix		;89d4	dd 23 	. #
1808  89D6 F1           	pop af			;89d6	f1 	.
1809  89D7 3D           	dec a			;89d7	3d 	=
1810  89D8 20 F2        	jr nz,l89cch		;89d8	20 f2 	  .
1811  89DA DD E1        	pop ix		;89da	dd e1 	. .
1812  89DC C9           	ret			;89dc	c9 	.
1813  89DD              sub_89ddh:
1814  89DD DD 7E 02     	ld a,(ix+002h)		;89dd	dd 7e 02 	. ~ .
1815  89E0 B7           	or a			;89e0	b7 	.
1816  89E1 C0           	ret nz			;89e1	c0 	.
1817  89E2 DD 70 00     	ld (ix+000h),b		;89e2	dd 70 00 	. p .
1818  89E5 DD 71 01     	ld (ix+001h),c		;89e5	dd 71 01 	. q .
1819  89E8 3E 02        	ld a,002h		;89e8	3e 02 	> .
1820  89EA B2           	or d			;89ea	b2 	.
1821  89EB DD 77 02     	ld (ix+002h),a		;89eb	dd 77 02 	. w .
1822  89EE 7A           	ld a,d			;89ee	7a 	z
1823  89EF 07           	rlca			;89ef	07 	.
1824  89F0 07           	rlca			;89f0	07 	.
1825  89F1 E6 03        	and 003h		;89f1	e6 03 	. .
1826  89F3 3C           	inc a			;89f3	3c 	<
1827  89F4 CD 41 8F     	call sub_8f41h		;89f4	cd 41 8f 	. A .
1828  89F7 E1           	pop hl			;89f7	e1 	.
1829  89F8 E1           	pop hl			;89f8	e1 	.
1830  89F9 DD E1        	pop ix		;89f9	dd e1 	. .
1831  89FB C9           	ret			;89fb	c9 	.
1832  89FC              sub_89fch:
1833  89FC 00           	nop			;89fc	00 	.
1834  89FD 21 37 78     	ld hl,07837h		;89fd	21 37 78 	! 7 x
1835  8A00 35           	dec (hl)			;8a00	35 	5
1836  8A01 C0           	ret nz			;8a01	c0 	.
1837  8A02 06 0E        	ld b,00eh		;8a02	06 0e 	. .
1838  8A04 DD 21 40 78  	ld ix,07840h		;8a04	dd 21 40 78 	. ! @ x
1839  8A08              l8a08h:
1840  8A08 DD 7E 02     	ld a,(ix+002h)		;8a08	dd 7e 02 	. ~ .
1841  8A0B F5           	push af			;8a0b	f5 	.
1842  8A0C E6 C0        	and 0c0h		;8a0c	e6 c0 	. .
1843  8A0E 4F           	ld c,a			;8a0e	4f 	O
1844  8A0F F1           	pop af			;8a0f	f1 	.
1845  8A10 E6 3F        	and 03fh		;8a10	e6 3f 	. ?
1846  8A12 28 09        	jr z,l8a1dh		;8a12	28 09 	( .
1847  8A14 3D           	dec a			;8a14	3d 	=
1848  8A15 20 02        	jr nz,l8a19h		;8a15	20 02 	  .
1849  8A17 0E 00        	ld c,000h		;8a17	0e 00 	. .
1850  8A19              l8a19h:
1851  8A19 B1           	or c			;8a19	b1 	.
1852  8A1A DD 77 02     	ld (ix+002h),a		;8a1a	dd 77 02 	. w .
1853  8A1D              l8a1dh:
1854  8A1D DD 23        	inc ix		;8a1d	dd 23 	. #
1855  8A1F DD 23        	inc ix		;8a1f	dd 23 	. #
1856  8A21 DD 23        	inc ix		;8a21	dd 23 	. #
1857  8A23 10 E3        	djnz l8a08h		;8a23	10 e3 	. .
1858  8A25 C9           	ret			;8a25	c9 	.
1859  8A26              sub_8a26h:
1860  8A26 3E 0E        	ld a,00eh		;8a26	3e 0e 	> .
1861  8A28 DD 21 40 78  	ld ix,07840h		;8a28	dd 21 40 78 	. ! @ x
1862  8A2C              l8a2ch:
1863  8A2C F5           	push af			;8a2c	f5 	.
1864  8A2D CD 3B 8A     	call sub_8a3bh		;8a2d	cd 3b 8a 	. ; .
1865  8A30 DD 23        	inc ix		;8a30	dd 23 	. #
1866  8A32 DD 23        	inc ix		;8a32	dd 23 	. #
1867  8A34 DD 23        	inc ix		;8a34	dd 23 	. #
1868  8A36 F1           	pop af			;8a36	f1 	.
1869  8A37 3D           	dec a			;8a37	3d 	=
1870  8A38 20 F2        	jr nz,l8a2ch		;8a38	20 f2 	  .
1871  8A3A C9           	ret			;8a3a	c9 	.
1872  8A3B              sub_8a3bh:
1873  8A3B DD 7E 02     	ld a,(ix+002h)		;8a3b	dd 7e 02 	. ~ .
1874  8A3E E6 3F        	and 03fh		;8a3e	e6 3f 	. ?
1875  8A40 C8           	ret z			;8a40	c8 	.
1876  8A41 CD 90 8A     	call sub_8a90h		;8a41	cd 90 8a 	. . .
1877  8A44 C0           	ret nz			;8a44	c0 	.
1878  8A45 E5           	push hl			;8a45	e5 	.
1879  8A46 06 04        	ld b,004h		;8a46	06 04 	. .
1880  8A48 0E 02        	ld c,002h		;8a48	0e 02 	. .
1881  8A4A 21 93 A9     	ld hl,la993h		;8a4a	21 93 a9 	! . .
1882  8A4D DD 7E 02     	ld a,(ix+002h)		;8a4d	dd 7e 02 	. ~ .
1883  8A50 11 08 00     	ld de,00008h		;8a50	11 08 00 	. . .
1884  8A53 07           	rlca			;8a53	07 	.
1885  8A54 07           	rlca			;8a54	07 	.
1886  8A55 E6 03        	and 003h		;8a55	e6 03 	. .
1887  8A57 28 0A        	jr z,l8a63h		;8a57	28 0a 	( .
1888  8A59 19           	add hl,de			;8a59	19 	.
1889  8A5A FE 01        	cp 001h		;8a5a	fe 01 	. .
1890  8A5C 28 05        	jr z,l8a63h		;8a5c	28 05 	( .
1891  8A5E 19           	add hl,de			;8a5e	19 	.
1892  8A5F 06 08        	ld b,008h		;8a5f	06 08 	. .
1893  8A61 0E 04        	ld c,004h		;8a61	0e 04 	. .
1894  8A63              l8a63h:
1895  8A63 D1           	pop de			;8a63	d1 	.
1896  8A64 CD A2 8D     	call sub_8da2h		;8a64	cd a2 8d 	. . .
1897  8A67 C9           	ret			;8a67	c9 	.
1898  8A68              sub_8a68h:
1899  8A68 3E 0E        	ld a,00eh		;8a68	3e 0e 	> .
1900  8A6A DD 21 40 78  	ld ix,07840h		;8a6a	dd 21 40 78 	. ! @ x
1901  8A6E              l8a6eh:
1902  8A6E F5           	push af			;8a6e	f5 	.
1903  8A6F CD 7D 8A     	call sub_8a7dh		;8a6f	cd 7d 8a 	. } .
1904  8A72 DD 23        	inc ix		;8a72	dd 23 	. #
1905  8A74 DD 23        	inc ix		;8a74	dd 23 	. #
1906  8A76 DD 23        	inc ix		;8a76	dd 23 	. #
1907  8A78 F1           	pop af			;8a78	f1 	.
1908  8A79 3D           	dec a			;8a79	3d 	=
1909  8A7A 20 F2        	jr nz,l8a6eh		;8a7a	20 f2 	  .
1910  8A7C C9           	ret			;8a7c	c9 	.
1911  8A7D              sub_8a7dh:
1912  8A7D DD 7E 02     	ld a,(ix+002h)		;8a7d	dd 7e 02 	. ~ .
1913  8A80 E6 3F        	and 03fh		;8a80	e6 3f 	. ?
1914  8A82 C8           	ret z			;8a82	c8 	.
1915  8A83 CD 90 8A     	call sub_8a90h		;8a83	cd 90 8a 	. . .
1916  8A86 C0           	ret nz			;8a86	c0 	.
1917  8A87 EB           	ex de,hl			;8a87	eb 	.
1918  8A88 01 04 00     	ld bc,00004h		;8a88	01 04 00 	. . .
1919  8A8B 3E 08        	ld a,008h		;8a8b	3e 08 	> .
1920  8A8D C3 8A 8D     	jp sub_8d8ah		;8a8d	c3 8a 8d 	. . .
1921  8A90              sub_8a90h:
1922  8A90 DD 6E 00     	ld l,(ix+000h)		;8a90	dd 6e 00 	. n .
1923  8A93 26 00        	ld h,000h		;8a93	26 00 	& .
1924  8A95 3A 08 79     	ld a,(07908h)		;8a95	3a 08 79 	: . y
1925  8A98 D6 06        	sub 006h		;8a98	d6 06 	. .
1926  8A9A 5F           	ld e,a			;8a9a	5f 	_
1927  8A9B 16 00        	ld d,000h		;8a9b	16 00 	. .
1928  8A9D B7           	or a			;8a9d	b7 	.
1929  8A9E ED 52        	sbc hl,de		;8a9e	ed 52 	. R
1930  8AA0 FA BF 8A     	jp m,l8abfh		;8aa0	fa bf 8a 	. . .
1931  8AA3 EB           	ex de,hl			;8aa3	eb 	.
1932  8AA4 21 25 00     	ld hl,00025h		;8aa4	21 25 00 	! % .
1933  8AA7 B7           	or a			;8aa7	b7 	.
1934  8AA8 ED 52        	sbc hl,de		;8aa8	ed 52 	. R
1935  8AAA FA BF 8A     	jp m,l8abfh		;8aaa	fa bf 8a 	. . .
1936  8AAD 21 A4 B4     	ld hl,0b4a4h		;8aad	21 a4 b4 	! . .
1937  8AB0 19           	add hl,de			;8ab0	19 	.
1938  8AB1 11 2C 00     	ld de,0002ch		;8ab1	11 2c 00 	. , .
1939  8AB4 DD 7E 01     	ld a,(ix+001h)		;8ab4	dd 7e 01 	. ~ .
1940  8AB7 3C           	inc a			;8ab7	3c 	<
1941  8AB8              l8ab8h:
1942  8AB8 3D           	dec a			;8ab8	3d 	=
1943  8AB9 C8           	ret z			;8ab9	c8 	.
1944  8ABA B7           	or a			;8aba	b7 	.
1945  8ABB ED 52        	sbc hl,de		;8abb	ed 52 	. R
1946  8ABD 18 F9        	jr l8ab8h		;8abd	18 f9 	. .
1947  8ABF              l8abfh:
1948  8ABF 3E 01        	ld a,001h		;8abf	3e 01 	> .
1949  8AC1 B7           	or a			;8ac1	b7 	.
1950  8AC2 C9           	ret			;8ac2	c9 	.
1951  8AC3              sub_8ac3h:
1952  8AC3 DD 21 6A 78  	ld ix,0786ah		;8ac3	dd 21 6a 78 	. ! j x
1953  8AC7 3E 06        	ld a,006h		;8ac7	3e 06 	> .
1954  8AC9              l8ac9h:
1955  8AC9 F5           	push af			;8ac9	f5 	.
1956  8ACA CD D7 8A     	call sub_8ad7h		;8aca	cd d7 8a 	. . .
1957  8ACD 01 04 00     	ld bc,00004h		;8acd	01 04 00 	. . .
1958  8AD0 DD 09        	add ix,bc		;8ad0	dd 09 	. .
1959  8AD2 F1           	pop af			;8ad2	f1 	.
1960  8AD3 3D           	dec a			;8ad3	3d 	=
1961  8AD4 20 F3        	jr nz,l8ac9h		;8ad4	20 f3 	  .
1962  8AD6 C9           	ret			;8ad6	c9 	.
1963  8AD7              sub_8ad7h:
1964  8AD7 DD CB 03 5E  	bit 3,(ix+003h)		;8ad7	dd cb 03 5e 	. . . ^
1965  8ADB C8           	ret z			;8adb	c8 	.
1966  8ADC DD 7E 00     	ld a,(ix+000h)		;8adc	dd 7e 00 	. ~ .
1967  8ADF CD F1 8C     	call sub_8cf1h		;8adf	cd f1 8c 	. . .
1968  8AE2 C0           	ret nz			;8ae2	c0 	.
1969  8AE3 CD 9C 8C     	call sub_8c9ch		;8ae3	cd 9c 8c 	. . .
1970  8AE6 11 60 01     	ld de,00160h		;8ae6	11 60 01 	. ` .
1971  8AE9 19           	add hl,de			;8ae9	19 	.
1972  8AEA 7E           	ld a,(hl)			;8aea	7e 	~
1973  8AEB B7           	or a			;8aeb	b7 	.
1974  8AEC 20 18        	jr nz,l8b06h		;8aec	20 18 	  .
1975  8AEE 06 05        	ld b,005h		;8aee	06 05 	. .
1976  8AF0 DD 7E 03     	ld a,(ix+003h)		;8af0	dd 7e 03 	. ~ .
1977  8AF3 E6 03        	and 003h		;8af3	e6 03 	. .
1978  8AF5 FE 02        	cp 002h		;8af5	fe 02 	. .
1979  8AF7 78           	ld a,b			;8af7	78 	x
1980  8AF8 28 0A        	jr z,l8b04h		;8af8	28 0a 	( .
1981  8AFA DD CB 03 56  	bit 2,(ix+003h)		;8afa	dd cb 03 56 	. . . V
1982  8AFE 20 04        	jr nz,l8b04h		;8afe	20 04 	  .
1983  8B00 07           	rlca			;8b00	07 	.
1984  8B01 07           	rlca			;8b01	07 	.
1985  8B02 07           	rlca			;8b02	07 	.
1986  8B03 07           	rlca			;8b03	07 	.
1987  8B04              l8b04h:
1988  8B04 77           	ld (hl),a			;8b04	77 	w
1989  8B05 C9           	ret			;8b05	c9 	.
1990  8B06              l8b06h:
1991  8B06 DD 46 00     	ld b,(ix+000h)		;8b06	dd 46 00 	. F .
1992  8B09 DD 4E 01     	ld c,(ix+001h)		;8b09	dd 4e 01 	. N .
1993  8B0C 16 40        	ld d,040h		;8b0c	16 40 	. @
1994  8B0E CD C3 89     	call sub_89c3h		;8b0e	cd c3 89 	. . .
1995  8B11 DD 36 03 00  	ld (ix+003h),000h		;8b11	dd 36 03 00 	. 6 . .
1996  8B15 C9           	ret			;8b15	c9 	.
1997  8B16              sub_8b16h:
1998  8B16 DD 21 6A 78  	ld ix,0786ah		;8b16	dd 21 6a 78 	. ! j x
1999  8B1A 3E 06        	ld a,006h		;8b1a	3e 06 	> .
2000  8B1C              l8b1ch:
2001  8B1C F5           	push af			;8b1c	f5 	.
2002  8B1D CD 2A 8B     	call sub_8b2ah		;8b1d	cd 2a 8b 	. * .
2003  8B20 01 04 00     	ld bc,00004h		;8b20	01 04 00 	. . .
2004  8B23 DD 09        	add ix,bc		;8b23	dd 09 	. .
2005  8B25 F1           	pop af			;8b25	f1 	.
2006  8B26 3D           	dec a			;8b26	3d 	=
2007  8B27 20 F3        	jr nz,l8b1ch		;8b27	20 f3 	  .
2008  8B29 C9           	ret			;8b29	c9 	.
2009  8B2A              sub_8b2ah:
2010  8B2A DD CB 03 5E  	bit 3,(ix+003h)		;8b2a	dd cb 03 5e 	. . . ^
2011  8B2E C8           	ret z			;8b2e	c8 	.
2012  8B2F DD 7E 00     	ld a,(ix+000h)		;8b2f	dd 7e 00 	. ~ .
2013  8B32 CD F1 8C     	call sub_8cf1h		;8b32	cd f1 8c 	. . .
2014  8B35 C0           	ret nz			;8b35	c0 	.
2015  8B36 CD 9C 8C     	call sub_8c9ch		;8b36	cd 9c 8c 	. . .
2016  8B39 11 60 01     	ld de,00160h		;8b39	11 60 01 	. ` .
2017  8B3C 19           	add hl,de			;8b3c	19 	.
2018  8B3D 36 00        	ld (hl),000h		;8b3d	36 00 	6 .
2019  8B3F C9           	ret			;8b3f	c9 	.
2020  8B40              sub_8b40h:
2021  8B40 DD 21 8E 78  	ld ix,0788eh		;8b40	dd 21 8e 78 	. ! . x
2022  8B44 CD 4F 8B     	call sub_8b4fh		;8b44	cd 4f 8b 	. O .
2023  8B47 DD 21 94 78  	ld ix,07894h		;8b47	dd 21 94 78 	. ! . x
2024  8B4B CD 4F 8B     	call sub_8b4fh		;8b4b	cd 4f 8b 	. O .
2025  8B4E C9           	ret			;8b4e	c9 	.
2026  8B4F              sub_8b4fh:
2027  8B4F DD CB 05 46  	bit 0,(ix+005h)		;8b4f	dd cb 05 46 	. . . F
2028  8B53 C8           	ret z			;8b53	c8 	.
2029  8B54 DD 7E 00     	ld a,(ix+000h)		;8b54	dd 7e 00 	. ~ .
2030  8B57 CD F1 8C     	call sub_8cf1h		;8b57	cd f1 8c 	. . .
2031  8B5A C0           	ret nz			;8b5a	c0 	.
2032  8B5B CD 9C 8C     	call sub_8c9ch		;8b5b	cd 9c 8c 	. . .
2033  8B5E EB           	ex de,hl			;8b5e	eb 	.
2034  8B5F 21 63 A9     	ld hl,la963h		;8b5f	21 63 a9 	! c .
2035  8B62 01 18 00     	ld bc,00018h		;8b62	01 18 00 	. . .
2036  8B65 DD CB 04 46  	bit 0,(ix+004h)		;8b65	dd cb 04 46 	. . . F
2037  8B69 28 01        	jr z,l8b6ch		;8b69	28 01 	( .
2038  8B6B 09           	add hl,bc			;8b6b	09 	.
2039  8B6C              l8b6ch:
2040  8B6C 01 0C 00     	ld bc,0000ch		;8b6c	01 0c 00 	. . .
2041  8B6F DD CB 03 46  	bit 0,(ix+003h)		;8b6f	dd cb 03 46 	. . . F
2042  8B73 28 01        	jr z,l8b76h		;8b73	28 01 	( .
2043  8B75 09           	add hl,bc			;8b75	09 	.
2044  8B76              l8b76h:
2045  8B76 06 03        	ld b,003h		;8b76	06 03 	. .
2046  8B78 0E 04        	ld c,004h		;8b78	0e 04 	. .
2047  8B7A CD A2 8D     	call sub_8da2h		;8b7a	cd a2 8d 	. . .
2048  8B7D C9           	ret			;8b7d	c9 	.
2049  8B7E              sub_8b7eh:
2050  8B7E DD 21 8E 78  	ld ix,0788eh		;8b7e	dd 21 8e 78 	. ! . x
2051  8B82 CD 8D 8B     	call sub_8b8dh		;8b82	cd 8d 8b 	. . .
2052  8B85 DD 21 94 78  	ld ix,07894h		;8b85	dd 21 94 78 	. ! . x
2053  8B89 CD 8D 8B     	call sub_8b8dh		;8b89	cd 8d 8b 	. . .
2054  8B8C C9           	ret			;8b8c	c9 	.
2055  8B8D              sub_8b8dh:
2056  8B8D DD CB 05 46  	bit 0,(ix+005h)		;8b8d	dd cb 05 46 	. . . F
2057  8B91 C8           	ret z			;8b91	c8 	.
2058  8B92 DD 7E 00     	ld a,(ix+000h)		;8b92	dd 7e 00 	. ~ .
2059  8B95 CD F1 8C     	call sub_8cf1h		;8b95	cd f1 8c 	. . .
2060  8B98 C0           	ret nz			;8b98	c0 	.
2061  8B99 CD 9C 8C     	call sub_8c9ch		;8b99	cd 9c 8c 	. . .
2062  8B9C EB           	ex de,hl			;8b9c	eb 	.
2063  8B9D 01 04 00     	ld bc,00004h		;8b9d	01 04 00 	. . .
2064  8BA0 3E 03        	ld a,003h		;8ba0	3e 03 	> .
2065  8BA2 C3 8A 8D     	jp sub_8d8ah		;8ba2	c3 8a 8d 	. . .
2066  8BA5              l8ba5h:
2067  8BA5 00           	nop			;8ba5	00 	.
2068  8BA6              sub_8ba6h:
2069  8BA6 DD 21 82 78  	ld ix,07882h		;8ba6	dd 21 82 78 	. ! . x
2070  8BAA CD B5 8B     	call sub_8bb5h		;8baa	cd b5 8b 	. . .
2071  8BAD DD 21 88 78  	ld ix,07888h		;8bad	dd 21 88 78 	. ! . x
2072  8BB1 CD B5 8B     	call sub_8bb5h		;8bb1	cd b5 8b 	. . .
2073  8BB4 C9           	ret			;8bb4	c9 	.
2074  8BB5              sub_8bb5h:
2075  8BB5 DD CB 05 7E  	bit 7,(ix+005h)		;8bb5	dd cb 05 7e 	. . . ~
2076  8BB9 C8           	ret z			;8bb9	c8 	.
2077  8BBA DD 7E 04     	ld a,(ix+004h)		;8bba	dd 7e 04 	. ~ .
2078  8BBD B7           	or a			;8bbd	b7 	.
2079  8BBE 20 39        	jr nz,l8bf9h		;8bbe	20 39 	  9
2080  8BC0 21 A5 A6     	ld hl,0a6a5h		;8bc0	21 a5 a6 	! . .
2081  8BC3 11 D8 00     	ld de,000d8h		;8bc3	11 d8 00 	. . .
2082  8BC6 DD CB 03 7E  	bit 7,(ix+003h)		;8bc6	dd cb 03 7e 	. . . ~
2083  8BCA 28 01        	jr z,l8bcdh		;8bca	28 01 	( .
2084  8BCC 19           	add hl,de			;8bcc	19 	.
2085  8BCD              l8bcdh:
2086  8BCD 11 6C 00     	ld de,0006ch		;8bcd	11 6c 00 	. l .
2087  8BD0 DD CB 03 6E  	bit 5,(ix+003h)		;8bd0	dd cb 03 6e 	. . . n
2088  8BD4 28 01        	jr z,l8bd7h		;8bd4	28 01 	( .
2089  8BD6 19           	add hl,de			;8bd6	19 	.
2090  8BD7              l8bd7h:
2091  8BD7 11 36 00     	ld de,00036h		;8bd7	11 36 00 	. 6 .
2092  8BDA DD CB 03 76  	bit 6,(ix+003h)		;8bda	dd cb 03 76 	. . . v
2093  8BDE 28 01        	jr z,l8be1h		;8bde	28 01 	( .
2094  8BE0 19           	add hl,de			;8be0	19 	.
2095  8BE1              l8be1h:
2096  8BE1 E5           	push hl			;8be1	e5 	.
2097  8BE2 DD 7E 00     	ld a,(ix+000h)		;8be2	dd 7e 00 	. ~ .
2098  8BE5 CD F1 8C     	call sub_8cf1h		;8be5	cd f1 8c 	. . .
2099  8BE8 20 0D        	jr nz,l8bf7h		;8be8	20 0d 	  .
2100  8BEA CD 9C 8C     	call sub_8c9ch		;8bea	cd 9c 8c 	. . .
2101  8BED EB           	ex de,hl			;8bed	eb 	.
2102  8BEE E1           	pop hl			;8bee	e1 	.
2103  8BEF 06 09        	ld b,009h		;8bef	06 09 	. .
2104  8BF1 0E 06        	ld c,006h		;8bf1	0e 06 	. .
2105  8BF3 CD A2 8D     	call sub_8da2h		;8bf3	cd a2 8d 	. . .
2106  8BF6 C9           	ret			;8bf6	c9 	.
2107  8BF7              l8bf7h:
2108  8BF7 E1           	pop hl			;8bf7	e1 	.
2109  8BF8 C9           	ret			;8bf8	c9 	.
2110  8BF9              l8bf9h:
2111  8BF9 3A A5 8B     	ld a,(l8ba5h)		;8bf9	3a a5 8b 	: . .
2112  8BFC B7           	or a			;8bfc	b7 	.
2113  8BFD C0           	ret nz			;8bfd	c0 	.
2114  8BFE DD 7E 04     	ld a,(ix+004h)		;8bfe	dd 7e 04 	. ~ .
2115  8C01 21 55 A8     	ld hl,la855h		;8c01	21 55 a8 	! U .
2116  8C04 11 36 00     	ld de,00036h		;8c04	11 36 00 	. 6 .
2117  8C07              l8c07h:
2118  8C07 3D           	dec a			;8c07	3d 	=
2119  8C08 28 D7        	jr z,l8be1h		;8c08	28 d7 	( .
2120  8C0A 19           	add hl,de			;8c0a	19 	.
2121  8C0B 18 FA        	jr l8c07h		;8c0b	18 fa 	. .
2122  8C0D              sub_8c0dh:
2123  8C0D 3E 02        	ld a,002h		;8c0d	3e 02 	> .
2124  8C0F DD 21 82 78  	ld ix,07882h		;8c0f	dd 21 82 78 	. ! . x
2125  8C13              l8c13h:
2126  8C13 F5           	push af			;8c13	f5 	.
2127  8C14 CD 21 8C     	call sub_8c21h		;8c14	cd 21 8c 	. ! .
2128  8C17 01 06 00     	ld bc,00006h		;8c17	01 06 00 	. . .
2129  8C1A DD 09        	add ix,bc		;8c1a	dd 09 	. .
2130  8C1C F1           	pop af			;8c1c	f1 	.
2131  8C1D 3D           	dec a			;8c1d	3d 	=
2132  8C1E 20 F3        	jr nz,l8c13h		;8c1e	20 f3 	  .
2133  8C20 C9           	ret			;8c20	c9 	.
2134  8C21              sub_8c21h:
2135  8C21 DD CB 05 7E  	bit 7,(ix+005h)		;8c21	dd cb 05 7e 	. . . ~
2136  8C25 C8           	ret z			;8c25	c8 	.
2137  8C26 DD 7E 00     	ld a,(ix+000h)		;8c26	dd 7e 00 	. ~ .
2138  8C29 CD F1 8C     	call sub_8cf1h		;8c29	cd f1 8c 	. . .
2139  8C2C C0           	ret nz			;8c2c	c0 	.
2140  8C2D CD 9C 8C     	call sub_8c9ch		;8c2d	cd 9c 8c 	. . .
2141  8C30 EB           	ex de,hl			;8c30	eb 	.
2142  8C31 01 06 00     	ld bc,00006h		;8c31	01 06 00 	. . .
2143  8C34 3E 09        	ld a,009h		;8c34	3e 09 	> .
2144  8C36 C3 8A 8D     	jp sub_8d8ah		;8c36	c3 8a 8d 	. . .
2145  8C39              sub_8c39h:
2146  8C39 3E 05        	ld a,005h		;8c39	3e 05 	> .
2147  8C3B DD 21 D7 78  	ld ix,078d7h		;8c3b	dd 21 d7 78 	. ! . x
2148  8C3F              l8c3fh:
2149  8C3F F5           	push af			;8c3f	f5 	.
2150  8C40 CD 16 8D     	call sub_8d16h		;8c40	cd 16 8d 	. . .
2151  8C43 F1           	pop af			;8c43	f1 	.
2152  8C44 01 06 00     	ld bc,00006h		;8c44	01 06 00 	. . .
2153  8C47 DD 09        	add ix,bc		;8c47	dd 09 	. .
2154  8C49 3D           	dec a			;8c49	3d 	=
2155  8C4A 20 F3        	jr nz,l8c3fh		;8c4a	20 f3 	  .
2156  8C4C C9           	ret			;8c4c	c9 	.
2157  8C4D              sub_8c4dh:
2158  8C4D 3E 05        	ld a,005h		;8c4d	3e 05 	> .
2159  8C4F DD 21 B9 78  	ld ix,078b9h		;8c4f	dd 21 b9 78 	. ! . x
2160  8C53              l8c53h:
2161  8C53 F5           	push af			;8c53	f5 	.
2162  8C54 CD 61 8C     	call sub_8c61h		;8c54	cd 61 8c 	. a .
2163  8C57 01 06 00     	ld bc,00006h		;8c57	01 06 00 	. . .
2164  8C5A DD 09        	add ix,bc		;8c5a	dd 09 	. .
2165  8C5C F1           	pop af			;8c5c	f1 	.
2166  8C5D 3D           	dec a			;8c5d	3d 	=
2167  8C5E 20 F3        	jr nz,l8c53h		;8c5e	20 f3 	  .
2168  8C60 C9           	ret			;8c60	c9 	.
2169  8C61              sub_8c61h:
2170  8C61 DD 7E 05     	ld a,(ix+005h)		;8c61	dd 7e 05 	. ~ .
2171  8C64 CB 7F        	bit 7,a		;8c64	cb 7f 	. 
2172  8C66 C8           	ret z			;8c66	c8 	.
2173  8C67 DD 7E 00     	ld a,(ix+000h)		;8c67	dd 7e 00 	. ~ .
2174  8C6A CD F1 8C     	call sub_8cf1h		;8c6a	cd f1 8c 	. . .
2175  8C6D C0           	ret nz			;8c6d	c0 	.
2176  8C6E CD 7D 8C     	call sub_8c7dh		;8c6e	cd 7d 8c 	. } .
2177  8C71 DD 46 04     	ld b,(ix+004h)		;8c71	dd 46 04 	. F .
2178  8C74 04           	inc b			;8c74	04 	.
2179  8C75 3E 03        	ld a,003h		;8c75	3e 03 	> .
2180  8C77              l8c77h:
2181  8C77 0F           	rrca			;8c77	0f 	.
2182  8C78 0F           	rrca			;8c78	0f 	.
2183  8C79 10 FC        	djnz l8c77h		;8c79	10 fc 	. .
2184  8C7B 77           	ld (hl),a			;8c7b	77 	w
2185  8C7C C9           	ret			;8c7c	c9 	.
2186  8C7D              sub_8c7dh:
2187  8C7D DD 7E 01     	ld a,(ix+001h)		;8c7d	dd 7e 01 	. ~ .
2188  8C80 11 2C 00     	ld de,0002ch		;8c80	11 2c 00 	. , .
2189  8C83              l8c83h:
2190  8C83 19           	add hl,de			;8c83	19 	.
2191  8C84 3D           	dec a			;8c84	3d 	=
2192  8C85 20 FC        	jr nz,l8c83h		;8c85	20 fc 	  .
2193  8C87 C9           	ret			;8c87	c9 	.
2194  8C88              sub_8c88h:
2195  8C88 3E 04        	ld a,004h		;8c88	3e 04 	> .
2196  8C8A DD 21 9A 78  	ld ix,0789ah		;8c8a	dd 21 9a 78 	. ! . x
2197  8C8E              l8c8eh:
2198  8C8E F5           	push af			;8c8e	f5 	.
2199  8C8F CD AA 8C     	call sub_8caah		;8c8f	cd aa 8c 	. . .
2200  8C92 01 07 00     	ld bc,00007h		;8c92	01 07 00 	. . .
2201  8C95 DD 09        	add ix,bc		;8c95	dd 09 	. .
2202  8C97 F1           	pop af			;8c97	f1 	.
2203  8C98 3D           	dec a			;8c98	3d 	=
2204  8C99 20 F3        	jr nz,l8c8eh		;8c99	20 f3 	  .
2205  8C9B C9           	ret			;8c9b	c9 	.
2206  8C9C              sub_8c9ch:
2207  8C9C DD 7E 01     	ld a,(ix+001h)		;8c9c	dd 7e 01 	. ~ .
2208  8C9F 11 2C 00     	ld de,0002ch		;8c9f	11 2c 00 	. , .
2209  8CA2 3C           	inc a			;8ca2	3c 	<
2210  8CA3              l8ca3h:
2211  8CA3 3D           	dec a			;8ca3	3d 	=
2212  8CA4 C8           	ret z			;8ca4	c8 	.
2213  8CA5 B7           	or a			;8ca5	b7 	.
2214  8CA6 ED 52        	sbc hl,de		;8ca6	ed 52 	. R
2215  8CA8 18 F9        	jr l8ca3h		;8ca8	18 f9 	. .
2216  8CAA              sub_8caah:
2217  8CAA DD 7E 00     	ld a,(ix+000h)		;8caa	dd 7e 00 	. ~ .
2218  8CAD CD F1 8C     	call sub_8cf1h		;8cad	cd f1 8c 	. . .
2219  8CB0 C0           	ret nz			;8cb0	c0 	.
2220  8CB1 CD 9C 8C     	call sub_8c9ch		;8cb1	cd 9c 8c 	. . .
2221  8CB4 EB           	ex de,hl			;8cb4	eb 	.
2222  8CB5 21 6F A6     	ld hl,la66fh		;8cb5	21 6f a6 	! o .
2223  8CB8 01 12 00     	ld bc,00012h		;8cb8	01 12 00 	. . .
2224  8CBB DD 7E 04     	ld a,(ix+004h)		;8cbb	dd 7e 04 	. ~ .
2225  8CBE B7           	or a			;8cbe	b7 	.
2226  8CBF 28 01        	jr z,l8cc2h		;8cbf	28 01 	( .
2227  8CC1 09           	add hl,bc			;8cc1	09 	.
2228  8CC2              l8cc2h:
2229  8CC2 06 09        	ld b,009h		;8cc2	06 09 	. .
2230  8CC4 0E 02        	ld c,002h		;8cc4	0e 02 	. .
2231  8CC6 CD A2 8D     	call sub_8da2h		;8cc6	cd a2 8d 	. . .
2232  8CC9 C9           	ret			;8cc9	c9 	.
2233  8CCA              sub_8ccah:
2234  8CCA 3E 04        	ld a,004h		;8cca	3e 04 	> .
2235  8CCC DD 21 9A 78  	ld ix,0789ah		;8ccc	dd 21 9a 78 	. ! . x
2236  8CD0              l8cd0h:
2237  8CD0 F5           	push af			;8cd0	f5 	.
2238  8CD1 CD DE 8C     	call sub_8cdeh		;8cd1	cd de 8c 	. . .
2239  8CD4 01 07 00     	ld bc,00007h		;8cd4	01 07 00 	. . .
2240  8CD7 DD 09        	add ix,bc		;8cd7	dd 09 	. .
2241  8CD9 F1           	pop af			;8cd9	f1 	.
2242  8CDA 3D           	dec a			;8cda	3d 	=
2243  8CDB 20 F3        	jr nz,l8cd0h		;8cdb	20 f3 	  .
2244  8CDD C9           	ret			;8cdd	c9 	.
2245  8CDE              sub_8cdeh:
2246  8CDE DD 7E 00     	ld a,(ix+000h)		;8cde	dd 7e 00 	. ~ .
2247  8CE1 CD F1 8C     	call sub_8cf1h		;8ce1	cd f1 8c 	. . .
2248  8CE4 C0           	ret nz			;8ce4	c0 	.
2249  8CE5 CD 9C 8C     	call sub_8c9ch		;8ce5	cd 9c 8c 	. . .
2250  8CE8 EB           	ex de,hl			;8ce8	eb 	.
2251  8CE9 01 02 00     	ld bc,00002h		;8ce9	01 02 00 	. . .
2252  8CEC 3E 09        	ld a,009h		;8cec	3e 09 	> .
2253  8CEE C3 8A 8D     	jp sub_8d8ah		;8cee	c3 8a 8d 	. . .
2254  8CF1              sub_8cf1h:
2255  8CF1 6F           	ld l,a			;8cf1	6f 	o
2256  8CF2 26 00        	ld h,000h		;8cf2	26 00 	& .
2257  8CF4 3A 08 79     	ld a,(07908h)		;8cf4	3a 08 79 	: . y
2258  8CF7 D6 06        	sub 006h		;8cf7	d6 06 	. .
2259  8CF9 5F           	ld e,a			;8cf9	5f 	_
2260  8CFA 16 00        	ld d,000h		;8cfa	16 00 	. .
2261  8CFC B7           	or a			;8cfc	b7 	.
2262  8CFD ED 52        	sbc hl,de		;8cfd	ed 52 	. R
2263  8CFF FA 12 8D     	jp m,l8d12h		;8cff	fa 12 8d 	. . .
2264  8D02 EB           	ex de,hl			;8d02	eb 	.
2265  8D03 21 25 00     	ld hl,00025h		;8d03	21 25 00 	! % .
2266  8D06 B7           	or a			;8d06	b7 	.
2267  8D07 ED 52        	sbc hl,de		;8d07	ed 52 	. R
2268  8D09 FA 12 8D     	jp m,l8d12h		;8d09	fa 12 8d 	. . .
2269  8D0C 21 C8 B3     	ld hl,0b3c8h		;8d0c	21 c8 b3 	! . .
2270  8D0F 19           	add hl,de			;8d0f	19 	.
2271  8D10 AF           	xor a			;8d10	af 	.
2272  8D11 C9           	ret			;8d11	c9 	.
2273  8D12              l8d12h:
2274  8D12 3E 01        	ld a,001h		;8d12	3e 01 	> .
2275  8D14 B7           	or a			;8d14	b7 	.
2276  8D15 C9           	ret			;8d15	c9 	.
2277  8D16              sub_8d16h:
2278  8D16 DD 7E 05     	ld a,(ix+005h)		;8d16	dd 7e 05 	. ~ .
2279  8D19 B7           	or a			;8d19	b7 	.
2280  8D1A C0           	ret nz			;8d1a	c0 	.
2281  8D1B DD 7E 00     	ld a,(ix+000h)		;8d1b	dd 7e 00 	. ~ .
2282  8D1E CD F1 8C     	call sub_8cf1h		;8d1e	cd f1 8c 	. . .
2283  8D21 C0           	ret nz			;8d21	c0 	.
2284  8D22 EB           	ex de,hl			;8d22	eb 	.
2285  8D23 21 97 A5     	ld hl,la597h		;8d23	21 97 a5 	! . .
2286  8D26 01 6C 00     	ld bc,0006ch		;8d26	01 6c 00 	. l .
2287  8D29 DD 7E 04     	ld a,(ix+004h)		;8d29	dd 7e 04 	. ~ .
2288  8D2C E6 01        	and 001h		;8d2c	e6 01 	. .
2289  8D2E 28 01        	jr z,l8d31h		;8d2e	28 01 	( .
2290  8D30 09           	add hl,bc			;8d30	09 	.
2291  8D31              l8d31h:
2292  8D31 01 36 00     	ld bc,00036h		;8d31	01 36 00 	. 6 .
2293  8D34 DD 7E 03     	ld a,(ix+003h)		;8d34	dd 7e 03 	. ~ .
2294  8D37 B7           	or a			;8d37	b7 	.
2295  8D38 28 01        	jr z,l8d3bh		;8d38	28 01 	( .
2296  8D3A 09           	add hl,bc			;8d3a	09 	.
2297  8D3B              l8d3bh:
2298  8D3B 0E 06        	ld c,006h		;8d3b	0e 06 	. .
2299  8D3D 06 09        	ld b,009h		;8d3d	06 09 	. .
2300  8D3F CD A2 8D     	call sub_8da2h		;8d3f	cd a2 8d 	. . .
2301  8D42 C9           	ret			;8d42	c9 	.
2302  8D43              sub_8d43h:
2303  8D43 3A 35 78     	ld a,(07835h)		;8d43	3a 35 78 	: 5 x
2304  8D46 B7           	or a			;8d46	b7 	.
2305  8D47 28 03        	jr z,l8d4ch		;8d47	28 03 	( .
2306  8D49 FE 0A        	cp 00ah		;8d49	fe 0a 	. .
2307  8D4B F8           	ret m			;8d4b	f8 	.
2308  8D4C              l8d4ch:
2309  8D4C 21 00 A1     	ld hl,la100h		;8d4c	21 00 a1 	! . .
2310  8D4F 3A 02 79     	ld a,(07902h)		;8d4f	3a 02 79 	: . y
2311  8D52 E6 03        	and 003h		;8d52	e6 03 	. .
2312  8D54 11 6C 00     	ld de,0006ch		;8d54	11 6c 00 	. l .
2313  8D57 3C           	inc a			;8d57	3c 	<
2314  8D58              l8d58h:
2315  8D58 3D           	dec a			;8d58	3d 	=
2316  8D59 28 03        	jr z,l8d5eh		;8d59	28 03 	( .
2317  8D5B 19           	add hl,de			;8d5b	19 	.
2318  8D5C 18 FA        	jr l8d58h		;8d5c	18 fa 	. .
2319  8D5E              l8d5eh:
2320  8D5E 11 44 01     	ld de,00144h		;8d5e	11 44 01 	. D .
2321  8D61 3A 04 79     	ld a,(07904h)		;8d61	3a 04 79 	: . y
2322  8D64 B7           	or a			;8d64	b7 	.
2323  8D65 28 01        	jr z,l8d68h		;8d65	28 01 	( .
2324  8D67 19           	add hl,de			;8d67	19 	.
2325  8D68              l8d68h:
2326  8D68 11 36 00     	ld de,00036h		;8d68	11 36 00 	. 6 .
2327  8D6B 3A 03 79     	ld a,(07903h)		;8d6b	3a 03 79 	: . y
2328  8D6E B7           	or a			;8d6e	b7 	.
2329  8D6F 28 01        	jr z,l8d72h		;8d6f	28 01 	( .
2330  8D71 19           	add hl,de			;8d71	19 	.
2331  8D72              l8d72h:
2332  8D72 ED 5B FE 78  	ld de,(078feh)		;8d72	ed 5b fe 78 	. [ . x
2333  8D76 CD E6 88     	call sub_88e6h		;8d76	cd e6 88 	. . .
2334  8D79 0E 06        	ld c,006h		;8d79	0e 06 	. .
2335  8D7B 06 09        	ld b,009h		;8d7b	06 09 	. .
2336  8D7D CD A2 8D     	call sub_8da2h		;8d7d	cd a2 8d 	. . .
2337  8D80 C9           	ret			;8d80	c9 	.
2338  8D81              sub_8d81h:
2339  8D81 ED 5B FE 78  	ld de,(078feh)		;8d81	ed 5b fe 78 	. [ . x
2340  8D85 01 06 00     	ld bc,00006h		;8d85	01 06 00 	. . .
2341  8D88 3E 09        	ld a,009h		;8d88	3e 09 	> .
2342  8D8A              sub_8d8ah:
2343  8D8A 21 27 A5     	ld hl,la527h		;8d8a	21 27 a5 	! ' .
2344  8D8D CD 91 8D     	call sub_8d91h		;8d8d	cd 91 8d 	. . .
2345  8D90 C9           	ret			;8d90	c9 	.
2346  8D91              sub_8d91h:
2347  8D91 C5           	push bc			;8d91	c5 	.
2348  8D92 D5           	push de			;8d92	d5 	.
2349  8D93 ED B0        	ldir		;8d93	ed b0 	. .
2350  8D95 D1           	pop de			;8d95	d1 	.
2351  8D96 E5           	push hl			;8d96	e5 	.
2352  8D97 21 2C 00     	ld hl,0002ch		;8d97	21 2c 00 	! , .
2353  8D9A 19           	add hl,de			;8d9a	19 	.
2354  8D9B EB           	ex de,hl			;8d9b	eb 	.
2355  8D9C E1           	pop hl			;8d9c	e1 	.
2356  8D9D C1           	pop bc			;8d9d	c1 	.
2357  8D9E 3D           	dec a			;8d9e	3d 	=
2358  8D9F 20 F0        	jr nz,sub_8d91h		;8d9f	20 f0 	  .
2359  8DA1 C9           	ret			;8da1	c9 	.
2360  8DA2              sub_8da2h:
2361  8DA2 C5           	push bc			;8da2	c5 	.
2362  8DA3 D5           	push de			;8da3	d5 	.
2363  8DA4              l8da4h:
2364  8DA4 1A           	ld a,(de)			;8da4	1a 	.
2365  8DA5 B6           	or (hl)			;8da5	b6 	.
2366  8DA6 12           	ld (de),a			;8da6	12 	.
2367  8DA7 23           	inc hl			;8da7	23 	#
2368  8DA8 13           	inc de			;8da8	13 	.
2369  8DA9 0D           	dec c			;8da9	0d 	.
2370  8DAA 20 F8        	jr nz,l8da4h		;8daa	20 f8 	  .
2371  8DAC D1           	pop de			;8dac	d1 	.
2372  8DAD E5           	push hl			;8dad	e5 	.
2373  8DAE 21 2C 00     	ld hl,0002ch		;8dae	21 2c 00 	! , .
2374  8DB1 19           	add hl,de			;8db1	19 	.
2375  8DB2 EB           	ex de,hl			;8db2	eb 	.
2376  8DB3 E1           	pop hl			;8db3	e1 	.
2377  8DB4 C1           	pop bc			;8db4	c1 	.
2378  8DB5 05           	dec b			;8db5	05 	.
2379  8DB6 20 EA        	jr nz,sub_8da2h		;8db6	20 ea 	  .
2380  8DB8 C9           	ret			;8db8	c9 	.
2381  8DB9              sub_8db9h:
2382  8DB9 21 5A B5     	ld hl,0b55ah		;8db9	21 5a b5 	! Z .
2383  8DBC 11 5B B5     	ld de,0b55bh		;8dbc	11 5b b5 	. [ .
2384  8DBF 01 1F 00     	ld bc,0001fh		;8dbf	01 1f 00 	. . .
2385  8DC2 36 55        	ld (hl),055h		;8dc2	36 55 	6 U
2386  8DC4 ED B0        	ldir		;8dc4	ed b0 	. .
2387  8DC6 21 86 AA     	ld hl,0aa86h		;8dc6	21 86 aa 	! . .
2388  8DC9 11 00 70     	ld de,VRAM				; Video Memory address (0,0)						;8dc9	11 00 70
2389  8DCC 0E 20        	ld c,020h		;8dcc	0e 20 	.
2390  8DCE 06 40        	ld b,040h		;8dce	06 40 	. @
2391  8DD0              l8dd0h:
2392  8DD0 C5           	push bc			;8dd0	c5 	.
2393  8DD1 06 00        	ld b,000h		;8dd1	06 00 	. .
2394  8DD3 ED B0        	ldir		;8dd3	ed b0 	. .
2395  8DD5 01 0C 00     	ld bc,0000ch		;8dd5	01 0c 00 	. . .
2396  8DD8 09           	add hl,bc			;8dd8	09 	.
2397  8DD9 C1           	pop bc			;8dd9	c1 	.
2398  8DDA 05           	dec b			;8dda	05 	.
2399  8DDB 20 F3        	jr nz,l8dd0h		;8ddb	20 f3 	  .
2400  8DDD C9           	ret			;8ddd	c9 	.
2401  8DDE              sub_8ddeh:
2402  8DDE 21 80 AA     	ld hl,0aa80h		;8dde	21 80 aa 	! . .
2403  8DE1 11 81 AA     	ld de,0aa81h		;8de1	11 81 aa 	. . .
2404  8DE4 01 FF 0A     	ld bc,00affh		;8de4	01 ff 0a 	. . .
2405  8DE7 36 00        	ld (hl),000h		;8de7	36 00 	6 .
2406  8DE9 ED B0        	ldir		;8de9	ed b0 	. .
2407  8DEB              ; -- Clear Screen and set Graphics MODE 1
2408  8DEB 21 00 70     	ld hl,VRAM				; src - video memory start							;8deb	21 00 70
2409  8DEE 11 01 70     	ld de,VRAM+1			; dst - next byte									;8dee	11 01 70
2410  8DF1 01 FF 07     	ld bc,2047				; ctn - size of video memory in MODE 1 (gfx)		;8df1	01 ff 07
2411  8DF4 36 00        	ld (hl),0				; 4 green (background) pixels						;8df4	36 00
2412  8DF6 ED B0        	ldir					; fill VRAM with green pixels						;8df6	ed b0
2413  8DF8              ; -- set Video Graphics Mode 1, Color Palette 0
2414  8DF8 3E 08        	ld a,VDG_GFX_COLORS_0	; VDG Gfx MODE 1 Colors (Green/Yellow/Blue/Red)	 	;8df8	3e 08
2415  8DFA 32 00 68     	ld (IOLATCH),a			; store to hardware register						;8dfa	32 00 68
2416  8DFD C9           	ret						; ----------------- End of Proc ---------------		;8dfd	c9
2417  8DFE
2418  8DFE              sub_8dfeh:
2419  8DFE DD 21 1F 78  	ld ix,0781fh		;8dfe	dd 21 1f 78 	. ! . x
2420  8E02 CD 0F 8E     	call sub_8e0fh		;8e02	cd 0f 8e 	. . .
2421  8E05 CD 0F 8E     	call sub_8e0fh		;8e05	cd 0f 8e 	. . .
2422  8E08 CD 0F 8E     	call sub_8e0fh		;8e08	cd 0f 8e 	. . .
2423  8E0B CD 0F 8E     	call sub_8e0fh		;8e0b	cd 0f 8e 	. . .
2424  8E0E C9           	ret			;8e0e	c9 	.
2425  8E0F              sub_8e0fh:
2426  8E0F DD 7E 00     	ld a,(ix+000h)		;8e0f	dd 7e 00 	. ~ .
2427  8E12 DD 23        	inc ix		;8e12	dd 23 	. #
2428  8E14 CD F1 8C     	call sub_8cf1h		;8e14	cd f1 8c 	. . .
2429  8E17 C0           	ret nz			;8e17	c0 	.
2430  8E18 11 93 A6     	ld de,la693h		;8e18	11 93 a6 	. . .
2431  8E1B EB           	ex de,hl			;8e1b	eb 	.
2432  8E1C 06 09        	ld b,009h		;8e1c	06 09 	. .
2433  8E1E 0E 02        	ld c,002h		;8e1e	0e 02 	. .
2434  8E20 CD A2 8D     	call sub_8da2h		;8e20	cd a2 8d 	. . .
2435  8E23 C9           	ret			;8e23	c9 	.
2436  8E24              sub_8e24h:
2437  8E24 DD 21 23 78  	ld ix,07823h		;8e24	dd 21 23 78 	. ! # x
2438  8E28 3E 08        	ld a,008h		;8e28	3e 08 	> .
2439  8E2A              l8e2ah:
2440  8E2A F5           	push af			;8e2a	f5 	.
2441  8E2B CD 35 8E     	call sub_8e35h		;8e2b	cd 35 8e 	. 5 .
2442  8E2E F1           	pop af			;8e2e	f1 	.
2443  8E2F DD 23        	inc ix		;8e2f	dd 23 	. #
2444  8E31 3D           	dec a			;8e31	3d 	=
2445  8E32 20 F6        	jr nz,l8e2ah		;8e32	20 f6 	  .
2446  8E34 C9           	ret			;8e34	c9 	.
2447  8E35              sub_8e35h:
2448  8E35 DD 7E 00     	ld a,(ix+000h)		;8e35	dd 7e 00 	. ~ .
2449  8E38 CD F1 8C     	call sub_8cf1h		;8e38	cd f1 8c 	. . .
2450  8E3B C0           	ret nz			;8e3b	c0 	.
2451  8E3C CD E1 8E     	call sub_8ee1h		;8e3c	cd e1 8e 	. . .
2452  8E3F 11 88 A3     	ld de,la388h		;8e3f	11 88 a3 	. . .
2453  8E42 EB           	ex de,hl			;8e42	eb 	.
2454  8E43 06 10        	ld b,010h		;8e43	06 10 	. .
2455  8E45 0E 02        	ld c,002h		;8e45	0e 02 	. .
2456  8E47 CD A2 8D     	call sub_8da2h		;8e47	cd a2 8d 	. . .
2457  8E4A C9           	ret			;8e4a	c9 	.
2458  8E4B              sub_8e4bh:
2459  8E4B DD 21 2B 78  	ld ix,0782bh		;8e4b	dd 21 2b 78 	. ! + x
2460  8E4F CD 5C 8E     	call sub_8e5ch		;8e4f	cd 5c 8e 	. \ .
2461  8E52 CD 5C 8E     	call sub_8e5ch		;8e52	cd 5c 8e 	. \ .
2462  8E55 CD 5C 8E     	call sub_8e5ch		;8e55	cd 5c 8e 	. \ .
2463  8E58 CD 5C 8E     	call sub_8e5ch		;8e58	cd 5c 8e 	. \ .
2464  8E5B C9           	ret			;8e5b	c9 	.
2465  8E5C              sub_8e5ch:
2466  8E5C DD 7E 00     	ld a,(ix+000h)		;8e5c	dd 7e 00 	. ~ .
2467  8E5F DD 23        	inc ix		;8e5f	dd 23 	. #
2468  8E61 CD F1 8C     	call sub_8cf1h		;8e61	cd f1 8c 	. . .
2469  8E64 C0           	ret nz			;8e64	c0 	.
2470  8E65 CD E5 8E     	call sub_8ee5h		;8e65	cd e5 8e 	. . .
2471  8E68 11 A8 A3     	ld de,la3a8h		;8e68	11 a8 a3 	. . .
2472  8E6B EB           	ex de,hl			;8e6b	eb 	.
2473  8E6C 06 0B        	ld b,00bh		;8e6c	06 0b 	. .
2474  8E6E 0E 05        	ld c,005h		;8e6e	0e 05 	. .
2475  8E70 CD A2 8D     	call sub_8da2h		;8e70	cd a2 8d 	. . .
2476  8E73 C9           	ret			;8e73	c9 	.
2477  8E74              sub_8e74h:
2478  8E74 DD 21 1F 78  	ld ix,0781fh		;8e74	dd 21 1f 78 	. ! . x
2479  8E78 CD 85 8E     	call sub_8e85h		;8e78	cd 85 8e 	. . .
2480  8E7B CD 85 8E     	call sub_8e85h		;8e7b	cd 85 8e 	. . .
2481  8E7E CD 85 8E     	call sub_8e85h		;8e7e	cd 85 8e 	. . .
2482  8E81 CD 85 8E     	call sub_8e85h		;8e81	cd 85 8e 	. . .
2483  8E84 C9           	ret			;8e84	c9 	.
2484  8E85              sub_8e85h:
2485  8E85 DD 7E 00     	ld a,(ix+000h)		;8e85	dd 7e 00 	. ~ .
2486  8E88 DD 23        	inc ix		;8e88	dd 23 	. #
2487  8E8A CD F1 8C     	call sub_8cf1h		;8e8a	cd f1 8c 	. . .
2488  8E8D C0           	ret nz			;8e8d	c0 	.
2489  8E8E EB           	ex de,hl			;8e8e	eb 	.
2490  8E8F 01 02 00     	ld bc,00002h		;8e8f	01 02 00 	. . .
2491  8E92 3E 09        	ld a,009h		;8e92	3e 09 	> .
2492  8E94 C3 8A 8D     	jp sub_8d8ah		;8e94	c3 8a 8d 	. . .
2493  8E97              sub_8e97h:
2494  8E97 DD 21 23 78  	ld ix,07823h		;8e97	dd 21 23 78 	. ! # x
2495  8E9B 3E 08        	ld a,008h		;8e9b	3e 08 	> .
2496  8E9D              l8e9dh:
2497  8E9D F5           	push af			;8e9d	f5 	.
2498  8E9E CD A8 8E     	call sub_8ea8h		;8e9e	cd a8 8e 	. . .
2499  8EA1 F1           	pop af			;8ea1	f1 	.
2500  8EA2 DD 23        	inc ix		;8ea2	dd 23 	. #
2501  8EA4 3D           	dec a			;8ea4	3d 	=
2502  8EA5 20 F6        	jr nz,l8e9dh		;8ea5	20 f6 	  .
2503  8EA7 C9           	ret			;8ea7	c9 	.
2504  8EA8              sub_8ea8h:
2505  8EA8 DD 7E 00     	ld a,(ix+000h)		;8ea8	dd 7e 00 	. ~ .
2506  8EAB CD F1 8C     	call sub_8cf1h		;8eab	cd f1 8c 	. . .
2507  8EAE C0           	ret nz			;8eae	c0 	.
2508  8EAF CD E1 8E     	call sub_8ee1h		;8eaf	cd e1 8e 	. . .
2509  8EB2 EB           	ex de,hl			;8eb2	eb 	.
2510  8EB3 01 02 00     	ld bc,00002h		;8eb3	01 02 00 	. . .
2511  8EB6 3E 10        	ld a,010h		;8eb6	3e 10 	> .
2512  8EB8 C3 8A 8D     	jp sub_8d8ah		;8eb8	c3 8a 8d 	. . .
2513  8EBB              sub_8ebbh:
2514  8EBB DD 21 2B 78  	ld ix,0782bh		;8ebb	dd 21 2b 78 	. ! + x
2515  8EBF CD CC 8E     	call sub_8ecch		;8ebf	cd cc 8e 	. . .
2516  8EC2 CD CC 8E     	call sub_8ecch		;8ec2	cd cc 8e 	. . .
2517  8EC5 CD CC 8E     	call sub_8ecch		;8ec5	cd cc 8e 	. . .
2518  8EC8 CD CC 8E     	call sub_8ecch		;8ec8	cd cc 8e 	. . .
2519  8ECB C9           	ret			;8ecb	c9 	.
2520  8ECC              sub_8ecch:
2521  8ECC DD 7E 00     	ld a,(ix+000h)		;8ecc	dd 7e 00 	. ~ .
2522  8ECF DD 23        	inc ix		;8ecf	dd 23 	. #
2523  8ED1 CD F1 8C     	call sub_8cf1h		;8ed1	cd f1 8c 	. . .
2524  8ED4 C0           	ret nz			;8ed4	c0 	.
2525  8ED5 CD E5 8E     	call sub_8ee5h		;8ed5	cd e5 8e 	. . .
2526  8ED8 EB           	ex de,hl			;8ed8	eb 	.
2527  8ED9 01 05 00     	ld bc,00005h		;8ed9	01 05 00 	. . .
2528  8EDC 3E 0B        	ld a,00bh		;8edc	3e 0b 	> .
2529  8EDE C3 8A 8D     	jp sub_8d8ah		;8ede	c3 8a 8d 	. . .
2530  8EE1              sub_8ee1h:
2531  8EE1 06 07        	ld b,007h		;8ee1	06 07 	. .
2532  8EE3 18 02        	jr l8ee7h		;8ee3	18 02 	. .
2533  8EE5              sub_8ee5h:
2534  8EE5 06 02        	ld b,002h		;8ee5	06 02 	. .
2535  8EE7              l8ee7h:
2536  8EE7 11 2C 00     	ld de,0002ch		;8ee7	11 2c 00 	. , .
2537  8EEA B7           	or a			;8eea	b7 	.
2538  8EEB ED 52        	sbc hl,de		;8eeb	ed 52 	. R
2539  8EED 10 F8        	djnz l8ee7h		;8eed	10 f8 	. .
2540  8EEF C9           	ret			;8eef	c9 	.
2541  8EF0              sub_8ef0h:
2542  8EF0 3A 35 78     	ld a,(07835h)		;8ef0	3a 35 78 	: 5 x
2543  8EF3 B7           	or a			;8ef3	b7 	.
2544  8EF4 28 02        	jr z,READ_INPUT		;8ef4	28 02 	( .
2545  8EF6 AF           	xor a			;8ef6	af 	.
2546  8EF7 C9           	ret			;8ef7	c9 	.
2547  8EF8
2548  8EF8
2549  8EF8              ;***********************************************************************************************
2550  8EF8              ; Read keys and joystick (if allowed by player)
2551  8EF8              ; OUT: a - bitmask with input events (keys or joystick)
2552  8EF8              ;          bit 0 - UP, bit 1 - DOWN, bit 2 - LEFT, bit 3 - RIGHT, bit 4 - FIRE, bit 5 - ROTATE
2553  8EF8
2554  8EF8              READ_INPUT:
2555  8EF8 0E 00        	ld c,%00000000			; initial empty bitmask - no input detected				;8ef8	0e 00
2556  8EFA              TEST_KEY_Q
2557  8EFA 3A FE 6F     	ld a,(KEYS_ROW_0F)		; select Keyboard row 0 								;8efa	3a fe 6f
2558  8EFD CB 67        	bit 4,a					; check if key 'Q' is pressed							;8efd	cb 67
2559  8EFF 20 02        	jr nz,TEST_KEY_A		; no - check next key									;8eff	20 02
2560  8F01              ; -- set bit UP in input bitmask variable
2561  8F01 CB C1        	set UP,c				; set bit for UP key pressed							;8f01	cb c1
2562  8F03              TEST_KEY_A:
2563  8F03 3A FD 6F     	ld a,(KEYS_ROW_1F)		; select Keyboard row 1 								;8f03	3a fd 6f
2564  8F06 CB 67        	bit 4,a					; check if key 'A' is pressed							;8f06	cb 67
2565  8F08 20 02        	jr nz,TEST_KEY_M		; no - check next key									;8f08	20 02
2566  8F0A              ; -- set bit DOWN in input bitmask variable
2567  8F0A CB C9        	set DOWN,c				; set bit for DOWN key pressed							;8f0a	cb c9
2568  8F0C              TEST_KEY_M:
2569  8F0C 3A EF 6F     	ld a,(KEYS_ROW_4F)		; select Keyboard row 4 								;8f0c	3a ef 6f
2570  8F0F CB 6F        	bit 5,a					; check if key 'M' pressed								;8f0f	cb 6f
2571  8F11 20 02        	jr nz,TEST_KEY_COMMA	; no - check next key									;8f11	20 02
2572  8F13              ; -- set bit LEFT in input bitmask variable
2573  8F13 CB D1        	set LEFT,c				; set bit for LEFT key pressed							;8f13	cb d1
2574  8F15              TEST_KEY_COMMA:
2575  8F15 2F           	cpl						; invert bits - 1 means key pressed	 					;8f15	2f
2576  8F16 E6 18        	and %00011000			; mask keys ',' (RIGHT) and SPACE (FIRE)				;8f16	e6 18
2577  8F18              ; -- set bit RIGHT and/or FIRE if key pressed
2578  8F18 B1           	or c					; a - bitmask with inputs detected						;8f18	b1
2579  8F19 4F           	ld c,a					; store to local variable								;8f19	4f
2580  8F1A              TEST_KEY_Z
2581  8F1A 3A FB 6F     	ld a,(KEYS_ROW_2F)		; select Keyboard row 2									;8f1a	3a fb 6f
2582  8F1D 2F           	cpl						; invert bits - 1 means key pressed						;8f1d	2f
2583  8F1E E6 10        	and %00010000			; mask on key 'Z' (bit FIRE)							;8f1e	e6 10
2584  8F20              ; -- set bit FIRE if key 'Z' is pressed
2585  8F20 B1           	or c					; a - all detected keys									;8f20	b1
2586  8F21 79           	ld a,c					; BUG - seems like should be ld c,a instad				;8f21	79
2587  8F22              TEST_KEY_N
2588  8F22 3A EF 68     	ld a,(KEYS_ROW_4)		; select Keyboard row 4 								;8f22	3a ef 68
2589  8F25 CB 47        	bit 0,a					; check if key 'N' pressed								;8f25	cb 47
2590  8F27 20 02        	jr nz,l8f2bh			; no - return if any key detected						;8f27	20 02
2591  8F29              ; -- set bit ROTATE in input bitmask variable
2592  8F29 CB E9        	set ROTATE,c			; set bit for ROTATE key pressed						;8f29	cb e9
2593  8F2B              l8f2bh:
2594  8F2B 79           	ld a,c					; a - all detected keys									;8f2b	79
2595  8F2C B7           	or a					; is any key detected?									;8f2c	b7
2596  8F2D C0           	ret nz					; yes ------------- End of Proc ----------------------- ;8f2d	c0
2597  8F2E              ; -- no keys pressed detected - check joystick if enabled
2598  8F2E 3A 00 78     	ld a,(JOY_ENABLE)		; a - Joystick Enabled Flag								;8f2e	3a 00 78
2599  8F31 B7           	or a					; is Joystick enabled? 									;8f31	b7
2600  8F32 C8           	ret z					; no -------------- End of Proc (no input detected) ---	;8f32	c8
2601  8F33              ; -- check joystick 1 - moves and fire
2602  8F33 DB 2A        	in a,(JOY_PORT_1)		; read Joystick 1										;8f33	db 2a
2603  8F35 2F           	cpl						; invert bits - 1 means joystick move/fire				;8f35	2f
2604  8F36 E6 1F        	and %00011111			; mask UP/DOWN/LEFT/RIGHT/FIRE							;8f36	e6 1f
2605  8F38 4F           	ld c,a					; store to local bitmask variable						;8f38	4f
2606  8F39              ; -- check joystick 2 - fire as ROTATE
2607  8F39 DB 25        	in a,(JOY_PORT_2)		; read Joystick 2										;8f39	db 25
2608  8F3B 2F           	cpl						; invert bits - 1 means joystick move/fire				;8f3b	2f
2609  8F3C 07           	rlca					; shift value so FIRE bit is placed as ROTATE (5) bit	;8f3c	07
2610  8F3D E6 20        	and %00100000			; mask only ROTATE bit									;8f3d	e6 20
2611  8F3F B1           	or c					; add already detected input bits from Joystick 1 		;8f3f	b1
2612  8F40 C9           	ret						; ----------------- End of Proc (input detected)		;8f40	c9
2613  8F41
2614  8F41
2615  8F41
2616  8F41              sub_8f41h:
2617  8F41 01 80 20     	ld bc,02080h		;8f41	01 80 20 	. .
2618  8F44 3D           	dec a			;8f44	3d 	=
2619  8F45 28 0F        	jr z,l8f56h		;8f45	28 0f 	( .
2620  8F47 01 60 30     	ld bc,03060h		;8f47	01 60 30 	. ` 0
2621  8F4A 3D           	dec a			;8f4a	3d 	=
2622  8F4B 28 09        	jr z,l8f56h		;8f4b	28 09 	( .
2623  8F4D 01 40 40     	ld bc,04040h		;8f4d	01 40 40 	. @ @
2624  8F50 3D           	dec a			;8f50	3d 	=
2625  8F51 28 03        	jr z,l8f56h		;8f51	28 03 	( .
2626  8F53 01 20 80     	ld bc,sub_801fh+1		;8f53	01 20 80 	.   .
2627  8F56              l8f56h:
2628  8F56 3E 28        	ld a,028h		;8f56	3e 28 	> (
2629  8F58 32 00 68     	ld (IOLATCH),a		;8f58	32 00 68 	2 . h
2630  8F5B CD 6A 8F     	call sub_8f6ah		;8f5b	cd 6a 8f 	. j .
2631  8F5E 3E 09        	ld a,009h		;8f5e	3e 09 	> .
2632  8F60 32 00 68     	ld (IOLATCH),a		;8f60	32 00 68 	2 . h
2633  8F63 CD 6A 8F     	call sub_8f6ah		;8f63	cd 6a 8f 	. j .
2634  8F66 0D           	dec c			;8f66	0d 	.
2635  8F67 20 ED        	jr nz,l8f56h		;8f67	20 ed 	  .
2636  8F69 C9           	ret			;8f69	c9 	.
2637  8F6A              sub_8f6ah:
2638  8F6A C5           	push bc			;8f6a	c5 	.
2639  8F6B              l8f6bh:
2640  8F6B 05           	dec b			;8f6b	05 	.
2641  8F6C 20 FD        	jr nz,l8f6bh		;8f6c	20 fd 	  .
2642  8F6E C1           	pop bc			;8f6e	c1 	.
2643  8F6F C9           	ret			;8f6f	c9 	.
2644  8F70
2645  8F70
2646  8F70              ;***********************************************************************************************
2647  8F70              ;
2648  8F70              ;    G A M E   J U M P   T A B L E
2649  8F70              ;
2650  8F70              ;***********************************************************************************************
2651  8F70
2652  8F70              sub_8f70h:
2653  8F70 C3 FC 97     	jp l97fch		;8f70	c3 fc 97 	. . .
2654  8F73              sub_8f73h:
2655  8F73 C3 86 97     	jp l9786h		;8f73	c3 86 97 	. . .
2656  8F76              sub_8f76h:
2657  8F76 C3 B7 97     	jp l97b7h		;8f76	c3 b7 97 	. . .
2658  8F79              sub_8f79h:
2659  8F79 C3 12 97     	jp l9712h		;8f79	c3 12 97 	. . .
2660  8F7C              l8f7ch:
2661  8F7C C3 CB 8F     	jp l8fcbh		;8f7c	c3 cb 8f 	. . .
2662  8F7F              l8f7fh:
2663  8F7F C3 56 90     	jp l9056h		;8f7f	c3 56 90 	. V .
2664  8F82              JMP_GAME_INIT:
2665  8F82 C3 88 8F     	jp GAME_INIT			; jump to GAME_INIT routine							;8f82	c3 88 8f
2666  8F85              sub_8f85h:
2667  8F85 C3 74 97     	jp l9774h		;8f85	c3 74 97 	. t .
2668  8F88
2669  8F88
2670  8F88              ;***********************************************************************************************
2671  8F88              ;
2672  8F88              ;    G A M E   I N I T
2673  8F88              ;
2674  8F88              ;***********************************************************************************************
2675  8F88              GAME_INIT:
2676  8F88 F3           	di						; disable interrupts									;8f88	f3
2677  8F89 31 F0 7C     	ld sp,BASE_SP			; reset CPU Stack Pointer to base address				;8f89	31 f0 7c
2678  8F8C CD 4B 94     	call CLEAR_SCREEN_GFX	; clear screen - MOde 1 (Gfx)							;8f8c	cd 4b 94
2679  8F8F 21 C5 9A     	ld hl,TXT_JOYSTICK_Q	; text to display - Joystick Question					;8f8f	21 c5 9a
2680  8F92 11 00 70     	ld de,VRAM				; dst - screen position (0,0)							;8f92	11 00 70
2681  8F95 CD 23 94     	call sub_9423h		;8f95	cd 23 94 	. # .
2682  8F98              l8f98h:
2683  8F98 AF           	xor a					; default 0 - Joystick disabled							;8f98	af
2684  8F99 32 00 78     	ld (JOY_ENABLE),a		; store in Game Settings variable						;8f99	32 00 78
2685  8F9C 3A EF 68     	ld a,(KEYS_ROW_4)		; select Keyboard row 4 								;8f9c	3a ef 68
2686  8F9F CB 47        	bit 0,a					; check if key 'N' is pressed							;8f9f	cb 47
2687  8FA1 CA B1 8F     	jp z,l8fb1h				; yes - ;8fa1	ca b1 8f 	. . .
2688  8FA4 3E 01        	ld a,1					; value 1 - Joystick Enabled							;8fa4	3e 01
2689  8FA6 32 00 78     	ld (JOY_ENABLE),a		; store in Game Settings variable						;8fa6	32 00 78
2690  8FA9 3A BF 68     	ld a,(KEYS_ROW_6)		; select Keyboard row 6 								;8fa9	3a bf 68
2691  8FAC CB 47        	bit 0,a					; check if key 'Y' is pressed							;8fac	cb 47
2692  8FAE C2 98 8F     	jp nz,l8f98h			; no - wait until player press 'N' or 'Y'				;8fae	c2 98 8f
2693  8FB1              l8fb1h:
2694  8FB1 21 E0 96     	ld hl,l96e0h		;8fb1	21 e0 96 	! . .
2695  8FB4 11 E1 96     	ld de,l96e1h		;8fb4	11 e1 96 	. . .
2696  8FB7 36 00        	ld (hl),000h		;8fb7	36 00 	6 .
2697  8FB9 01 31 00     	ld bc,00031h		;8fb9	01 31 00 	. 1 .
2698  8FBC ED B0        	ldir		;8fbc	ed b0 	. .
2699  8FBE 21 AE 96     	ld hl,l96aeh		;8fbe	21 ae 96 	! . .
2700  8FC1 11 AF 96     	ld de,l96afh		;8fc1	11 af 96 	. . .
2701  8FC4 01 31 00     	ld bc,00031h		;8fc4	01 31 00 	. 1 .
2702  8FC7 36 2E        	ld (hl),02eh		;8fc7	36 2e 	6 .
2703  8FC9 ED B0        	ldir		;8fc9	ed b0 	. .
2704  8FCB              l8fcbh:
2705  8FCB F3           	di			;8fcb	f3 	.
2706  8FCC 31 F0 7C     	ld sp,BASE_SP			; reset CPU Stack Pointer to base address			;8fcc	31 f0 7c
2707  8FCF 21 20 00     	ld hl,00020h		;8fcf	21 20 00 	!   .
2708  8FD2 22 AB 98     	ld (l98abh),hl		;8fd2	22 ab 98 	" . .
2709  8FD5 CD 46 94     	call sub_9446h		;8fd5	cd 46 94 	. F .
2710  8FD8 21 81 95     	ld hl,l9581h		;8fd8	21 81 95 	! . .
2711  8FDB 11 80 AA     	ld de,0aa80h		;8fdb	11 80 aa 	. . .
2712  8FDE CD 23 94     	call sub_9423h		;8fde	cd 23 94 	. # .
2713  8FE1 CD 0E 93     	call sub_930eh		;8fe1	cd 0e 93 	. . .
2714  8FE4 CD 46 94     	call sub_9446h		;8fe4	cd 46 94 	. F .
2715  8FE7 21 F7 95     	ld hl,l95f7h		;8fe7	21 f7 95 	! . .
2716  8FEA 11 80 AA     	ld de,0aa80h		;8fea	11 80 aa 	. . .
2717  8FED CD 23 94     	call sub_9423h		;8fed	cd 23 94 	. # .
2718  8FF0 CD 0E 93     	call sub_930eh		;8ff0	cd 0e 93 	. . .
2719  8FF3 CD F8 8F     	call sub_8ff8h		;8ff3	cd f8 8f 	. . .
2720  8FF6 18 D3        	jr l8fcbh		;8ff6	18 d3 	. .
2721  8FF8              sub_8ff8h:
2722  8FF8 CD FF 8F     	call sub_8fffh		;8ff8	cd ff 8f 	. . .
2723  8FFB CD 0E 93     	call sub_930eh		;8ffb	cd 0e 93 	. . .
2724  8FFE C9           	ret			;8ffe	c9 	.
2725  8FFF              sub_8fffh:
2726  8FFF CD 46 94     	call sub_9446h		;8fff	cd 46 94 	. F .
2727  9002 21 AE 96     	ld hl,l96aeh		;9002	21 ae 96 	! . .
2728  9005 11 C8 AA     	ld de,0aac8h		;9005	11 c8 aa 	. . .
2729  9008 3E 0A        	ld a,00ah		;9008	3e 0a 	> .
2730  900A              l900ah:
2731  900A F5           	push af			;900a	f5 	.
2732  900B 3E 05        	ld a,005h		;900b	3e 05 	> .
2733  900D              l900dh:
2734  900D F5           	push af			;900d	f5 	.
2735  900E D5           	push de			;900e	d5 	.
2736  900F E5           	push hl			;900f	e5 	.
2737  9010 7E           	ld a,(hl)			;9010	7e 	~
2738  9011 CD E9 98     	call sub_98e9h		;9011	cd e9 98 	. . .
2739  9014 E1           	pop hl			;9014	e1 	.
2740  9015 D1           	pop de			;9015	d1 	.
2741  9016 23           	inc hl			;9016	23 	#
2742  9017 13           	inc de			;9017	13 	.
2743  9018 F1           	pop af			;9018	f1 	.
2744  9019 3D           	dec a			;9019	3d 	=
2745  901A 20 F1        	jr nz,l900dh		;901a	20 f1 	  .
2746  901C E5           	push hl			;901c	e5 	.
2747  901D D5           	push de			;901d	d5 	.
2748  901E 13           	inc de			;901e	13 	.
2749  901F 13           	inc de			;901f	13 	.
2750  9020 3E 3D        	ld a,03dh		;9020	3e 3d 	> =
2751  9022 CD E9 98     	call sub_98e9h		;9022	cd e9 98 	. . .
2752  9025 D1           	pop de			;9025	d1 	.
2753  9026 21 BB 00     	ld hl,000bbh		;9026	21 bb 00 	! . .
2754  9029 19           	add hl,de			;9029	19 	.
2755  902A EB           	ex de,hl			;902a	eb 	.
2756  902B E1           	pop hl			;902b	e1 	.
2757  902C F1           	pop af			;902c	f1 	.
2758  902D 3D           	dec a			;902d	3d 	=
2759  902E 20 DA        	jr nz,l900ah		;902e	20 da 	  .
2760  9030 21 E0 96     	ld hl,l96e0h		;9030	21 e0 96 	! . .
2761  9033 11 D2 AA     	ld de,0aad2h		;9033	11 d2 aa 	. . .
2762  9036 3E 0A        	ld a,00ah		;9036	3e 0a 	> .
2763  9038              l9038h:
2764  9038 F5           	push af			;9038	f5 	.
2765  9039 3E 05        	ld a,005h		;9039	3e 05 	> .
2766  903B              l903bh:
2767  903B F5           	push af			;903b	f5 	.
2768  903C D5           	push de			;903c	d5 	.
2769  903D E5           	push hl			;903d	e5 	.
2770  903E 7E           	ld a,(hl)			;903e	7e 	~
2771  903F CD 89 98     	call sub_9889h		;903f	cd 89 98 	. . .
2772  9042 E1           	pop hl			;9042	e1 	.
2773  9043 D1           	pop de			;9043	d1 	.
2774  9044 23           	inc hl			;9044	23 	#
2775  9045 13           	inc de			;9045	13 	.
2776  9046 F1           	pop af			;9046	f1 	.
2777  9047 3D           	dec a			;9047	3d 	=
2778  9048 20 F1        	jr nz,l903bh		;9048	20 f1 	  .
2779  904A E5           	push hl			;904a	e5 	.
2780  904B 21 BB 00     	ld hl,000bbh		;904b	21 bb 00 	! . .
2781  904E 19           	add hl,de			;904e	19 	.
2782  904F EB           	ex de,hl			;904f	eb 	.
2783  9050 E1           	pop hl			;9050	e1 	.
2784  9051 F1           	pop af			;9051	f1 	.
2785  9052 3D           	dec a			;9052	3d 	=
2786  9053 20 E3        	jr nz,l9038h		;9053	20 e3 	  .
2787  9055 C9           	ret			;9055	c9 	.
2788  9056              l9056h:
2789  9056 21 5E 94     	ld hl,l945eh		;9056	21 5e 94 	! ^ .
2790  9059 B7           	or a			;9059	b7 	.
2791  905A 28 0A        	jr z,l9066h		;905a	28 0a 	( .
2792  905C 21 7D 94     	ld hl,l947dh		;905c	21 7d 94 	! } .
2793  905F FE 01        	cp 001h		;905f	fe 01 	. .
2794  9061 28 03        	jr z,l9066h		;9061	28 03 	( .
2795  9063 21 99 94     	ld hl,l9499h		;9063	21 99 94 	! . .
2796  9066              l9066h:
2797  9066 E5           	push hl			;9066	e5 	.
2798  9067 21 20 00     	ld hl,00020h		;9067	21 20 00 	!   .
2799  906A 22 AB 98     	ld (l98abh),hl		;906a	22 ab 98 	" . .
2800  906D CD 46 94     	call sub_9446h		;906d	cd 46 94 	. F .
2801  9070 21 B9 94     	ld hl,l94b9h		;9070	21 b9 94 	! . .
2802  9073 11 80 AA     	ld de,0aa80h		;9073	11 80 aa 	. . .
2803  9076 CD 23 94     	call sub_9423h		;9076	cd 23 94 	. # .
2804  9079 E1           	pop hl			;9079	e1 	.
2805  907A CD 23 94     	call sub_9423h		;907a	cd 23 94 	. # .
2806  907D 21 D3 94     	ld hl,l94d3h		;907d	21 d3 94 	! . .
2807  9080 CD 23 94     	call sub_9423h		;9080	cd 23 94 	. # .
2808  9083 21 15 00     	ld hl,00015h		;9083	21 15 00 	! . .
2809  9086 19           	add hl,de			;9086	19 	.
2810  9087 EB           	ex de,hl			;9087	eb 	.
2811  9088 21 12 78     	ld hl,07812h		;9088	21 12 78 	! . x
2812  908B 3E 05        	ld a,005h		;908b	3e 05 	> .
2813  908D              l908dh:
2814  908D F5           	push af			;908d	f5 	.
2815  908E E5           	push hl			;908e	e5 	.
2816  908F D5           	push de			;908f	d5 	.
2817  9090 7E           	ld a,(hl)			;9090	7e 	~
2818  9091 CD 89 98     	call sub_9889h		;9091	cd 89 98 	. . .
2819  9094 D1           	pop de			;9094	d1 	.
2820  9095 E1           	pop hl			;9095	e1 	.
2821  9096 F1           	pop af			;9096	f1 	.
2822  9097 23           	inc hl			;9097	23 	#
2823  9098 13           	inc de			;9098	13 	.
2824  9099 3D           	dec a			;9099	3d 	=
2825  909A 20 F1        	jr nz,l908dh		;909a	20 f1 	  .
2826  909C CD 0E 93     	call sub_930eh		;909c	cd 0e 93 	. . .
2827  909F CD DC 90     	call sub_90dch		;909f	cd dc 90 	. . .
2828  90A2 CA CB 8F     	jp z,l8fcbh		;90a2	ca cb 8f 	. . .
2829  90A5 F5           	push af			;90a5	f5 	.
2830  90A6 CD FF 8F     	call sub_8fffh		;90a6	cd ff 8f 	. . .
2831  90A9 F1           	pop af			;90a9	f1 	.
2832  90AA 21 C5 AA     	ld hl,0aac5h		;90aa	21 c5 aa 	! . .
2833  90AD 11 C0 00     	ld de,000c0h		;90ad	11 c0 00 	. . .
2834  90B0              l90b0h:
2835  90B0 3D           	dec a			;90b0	3d 	=
2836  90B1 28 03        	jr z,l90b6h		;90b1	28 03 	( .
2837  90B3 19           	add hl,de			;90b3	19 	.
2838  90B4 18 FA        	jr l90b0h		;90b4	18 fa 	. .
2839  90B6              l90b6h:
2840  90B6 11 1F 00     	ld de,0001fh		;90b6	11 1f 00 	. . .
2841  90B9 36 00        	ld (hl),000h		;90b9	36 00 	6 .
2842  90BB 23           	inc hl			;90bb	23 	#
2843  90BC 36 50        	ld (hl),050h		;90bc	36 50 	6 P
2844  90BE 19           	add hl,de			;90be	19 	.
2845  90BF 36 00        	ld (hl),000h		;90bf	36 00 	6 .
2846  90C1 23           	inc hl			;90c1	23 	#
2847  90C2 36 54        	ld (hl),054h		;90c2	36 54 	6 T
2848  90C4 19           	add hl,de			;90c4	19 	.
2849  90C5 36 55        	ld (hl),055h		;90c5	36 55 	6 U
2850  90C7 23           	inc hl			;90c7	23 	#
2851  90C8 36 55        	ld (hl),055h		;90c8	36 55 	6 U
2852  90CA 19           	add hl,de			;90ca	19 	.
2853  90CB 36 00        	ld (hl),000h		;90cb	36 00 	6 .
2854  90CD 23           	inc hl			;90cd	23 	#
2855  90CE 36 54        	ld (hl),054h		;90ce	36 54 	6 T
2856  90D0 19           	add hl,de			;90d0	19 	.
2857  90D1 36 00        	ld (hl),000h		;90d1	36 00 	6 .
2858  90D3 23           	inc hl			;90d3	23 	#
2859  90D4 36 50        	ld (hl),050h		;90d4	36 50 	6 P
2860  90D6 CD 0E 93     	call sub_930eh		;90d6	cd 0e 93 	. . .
2861  90D9 C3 CB 8F     	jp l8fcbh		;90d9	c3 cb 8f 	. . .
2862  90DC              sub_90dch:
2863  90DC 11 E0 96     	ld de,l96e0h		;90dc	11 e0 96 	. . .
2864  90DF 06 0A        	ld b,00ah		;90df	06 0a 	. .
2865  90E1 0E 01        	ld c,001h		;90e1	0e 01 	. .
2866  90E3              l90e3h:
2867  90E3 21 12 78     	ld hl,07812h		;90e3	21 12 78 	! . x
2868  90E6 1A           	ld a,(de)			;90e6	1a 	.
2869  90E7 BE           	cp (hl)			;90e7	be 	.
2870  90E8 FA 0F 91     	jp m,l910fh		;90e8	fa 0f 91 	. . .
2871  90EB 28 02        	jr z,l90efh		;90eb	28 02 	( .
2872  90ED 18 14        	jr l9103h		;90ed	18 14 	. .
2873  90EF              l90efh:
2874  90EF 23           	inc hl			;90ef	23 	#
2875  90F0 13           	inc de			;90f0	13 	.
2876  90F1 1A           	ld a,(de)			;90f1	1a 	.
2877  90F2 BE           	cp (hl)			;90f2	be 	.
2878  90F3 FA 0E 91     	jp m,l910eh		;90f3	fa 0e 91 	. . .
2879  90F6 28 02        	jr z,l90fah		;90f6	28 02 	( .
2880  90F8 18 0A        	jr l9104h		;90f8	18 0a 	. .
2881  90FA              l90fah:
2882  90FA 23           	inc hl			;90fa	23 	#
2883  90FB 13           	inc de			;90fb	13 	.
2884  90FC 1A           	ld a,(de)			;90fc	1a 	.
2885  90FD BE           	cp (hl)			;90fd	be 	.
2886  90FE FA 0D 91     	jp m,l910dh		;90fe	fa 0d 91 	. . .
2887  9101 18 02        	jr l9105h		;9101	18 02 	. .
2888  9103              l9103h:
2889  9103 13           	inc de			;9103	13 	.
2890  9104              l9104h:
2891  9104 13           	inc de			;9104	13 	.
2892  9105              l9105h:
2893  9105 13           	inc de			;9105	13 	.
2894  9106 13           	inc de			;9106	13 	.
2895  9107 13           	inc de			;9107	13 	.
2896  9108 0C           	inc c			;9108	0c 	.
2897  9109 10 D8        	djnz l90e3h		;9109	10 d8 	. .
2898  910B AF           	xor a			;910b	af 	.
2899  910C C9           	ret			;910c	c9 	.
2900  910D              l910dh:
2901  910D 1B           	dec de			;910d	1b 	.
2902  910E              l910eh:
2903  910E 1B           	dec de			;910e	1b 	.
2904  910F              l910fh:
2905  910F 79           	ld a,c			;910f	79 	y
2906  9110 F5           	push af			;9110	f5 	.
2907  9111 D5           	push de			;9111	d5 	.
2908  9112 FE 0A        	cp 00ah		;9112	fe 0a 	. .
2909  9114 28 13        	jr z,l9129h		;9114	28 13 	( .
2910  9116 47           	ld b,a			;9116	47 	G
2911  9117 3E 0A        	ld a,00ah		;9117	3e 0a 	> .
2912  9119 90           	sub b			;9119	90 	.
2913  911A 47           	ld b,a			;911a	47 	G
2914  911B C5           	push bc			;911b	c5 	.
2915  911C 21 08 97     	ld hl,l9708h		;911c	21 08 97 	! . .
2916  911F CD F6 92     	call sub_92f6h		;911f	cd f6 92 	. . .
2917  9122 C1           	pop bc			;9122	c1 	.
2918  9123 21 D6 96     	ld hl,l96d6h		;9123	21 d6 96 	! . .
2919  9126 CD F6 92     	call sub_92f6h		;9126	cd f6 92 	. . .
2920  9129              l9129h:
2921  9129 D1           	pop de			;9129	d1 	.
2922  912A D5           	push de			;912a	d5 	.
2923  912B 21 12 78     	ld hl,07812h		;912b	21 12 78 	! . x
2924  912E 01 05 00     	ld bc,00005h		;912e	01 05 00 	. . .
2925  9131 ED B0        	ldir		;9131	ed b0 	. .
2926  9133 E1           	pop hl			;9133	e1 	.
2927  9134 11 32 00     	ld de,00032h		;9134	11 32 00 	. 2 .
2928  9137 B7           	or a			;9137	b7 	.
2929  9138 ED 52        	sbc hl,de		;9138	ed 52 	. R
2930  913A E5           	push hl			;913a	e5 	.
2931  913B CD 46 94     	call sub_9446h		;913b	cd 46 94 	. F .
2932  913E 21 EA 94     	ld hl,l94eah		;913e	21 ea 94 	! . .
2933  9141 11 40 AB     	ld de,0ab40h		;9141	11 40 ab 	. @ .
2934  9144 3E 05        	ld a,005h		;9144	3e 05 	> .
2935  9146              l9146h:
2936  9146 F5           	push af			;9146	f5 	.
2937  9147 CD 23 94     	call sub_9423h		;9147	cd 23 94 	. # .
2938  914A 23           	inc hl			;914a	23 	#
2939  914B E5           	push hl			;914b	e5 	.
2940  914C 21 20 01     	ld hl,00120h		;914c	21 20 01 	!   .
2941  914F 19           	add hl,de			;914f	19 	.
2942  9150 EB           	ex de,hl			;9150	eb 	.
2943  9151 E1           	pop hl			;9151	e1 	.
2944  9152 F1           	pop af			;9152	f1 	.
2945  9153 3D           	dec a			;9153	3d 	=
2946  9154 20 F0        	jr nz,l9146h		;9154	20 f0 	  .
2947  9156 21 C2 B0     	ld hl,0b0c2h		;9156	21 c2 b0 	! . .
2948  9159 01 06 00     	ld bc,00006h		;9159	01 06 00 	. . .
2949  915C CD CA 92     	call sub_92cah		;915c	cd ca 92 	. . .
2950  915F 09           	add hl,bc			;915f	09 	.
2951  9160 CD CA 92     	call sub_92cah		;9160	cd ca 92 	. . .
2952  9163 09           	add hl,bc			;9163	09 	.
2953  9164 CD CA 92     	call sub_92cah		;9164	cd ca 92 	. . .
2954  9167 09           	add hl,bc			;9167	09 	.
2955  9168 CD CA 92     	call sub_92cah		;9168	cd ca 92 	. . .
2956  916B 09           	add hl,bc			;916b	09 	.
2957  916C CD CA 92     	call sub_92cah		;916c	cd ca 92 	. . .
2958  916F CD 1B 93     	call sub_931bh		;916f	cd 1b 93 	. . .
2959  9172 21 0E 92     	ld hl,l920eh		;9172	21 0e 92 	! . .
2960  9175 22 0A 92     	ld (l920ah),hl		;9175	22 0a 92 	" . .
2961  9178 11 0F 92     	ld de,l920fh		;9178	11 0f 92 	. . .
2962  917B 01 04 00     	ld bc,00004h		;917b	01 04 00 	. . .
2963  917E 36 20        	ld (hl),020h		;917e	36 20 	6
2964  9180 ED B0        	ldir		;9180	ed b0 	. .
2965  9182 21 84 76     	ld hl,07684h		;9182	21 84 76 	! . v
2966  9185 22 0C 92     	ld (l920ch),hl		;9185	22 0c 92 	" . .
2967  9188 AF           	xor a			;9188	af 	.
2968  9189 32 09 92     	ld (l9209h),a		;9189	32 09 92 	2 . .
2969  918C 3E 41        	ld a,041h		;918c	3e 41 	> A
2970  918E 32 08 92     	ld (l9208h),a		;918e	32 08 92 	2 . .
2971  9191 21 81 70     	ld hl,07081h		;9191	21 81 70 	! . p
2972  9194 01 01 01     	ld bc,00101h		;9194	01 01 01 	. . .
2973  9197              l9197h:
2974  9197 CD CA 92     	call sub_92cah		;9197	cd ca 92 	. . .
2975  919A              l919ah:
2976  919A 11 00 60     	ld de,$6000				; delay parameter value 								;919a	11 00 60
2977  919D CD 1D 94     	call DELAY_DE			; wait delay											;919d	cd 1d 94
2978  91A0              l91a0h:
2979  91A0 3A EF 68     	ld a,(KEYS_ROW_4)		; select Keyboard row 4 								;91a0	3a ef 68
2980  91A3 CB 5F        	bit 3,a					; check if key ',' is pressed							;91a3	cb 5f
2981  91A5 28 15        	jr z,l91bch		; yes - ;91a5	28 15 	( .
2982  91A7 CB 6F        	bit 5,a					; check if key 'M' is pressed							;91a7	cb 6f
2983  91A9 28 15        	jr z,l91c0h		; yes - ;91a9	28 15 	( .
2984  91AB CB 4F        	bit 1,a					; check if key '.' is pressed							;91ab	cb 4f
2985  91AD 28 15        	jr z,l91c4h		; yes - ;91ad	28 15 	( .
2986  91AF CB 67        	bit 4,a					; check if key 'SPACE' is pressed						;91af	cb 67
2987  91B1 28 15        	jr z,l91c8h		; yes - ;91b1	28 15 	( .
2988  91B3 3A BF 68     	ld a,(KEYS_ROW_6)		; select Keyboard row 6 								;91b3	3a bf 68
2989  91B6 CB 57        	bit 2,a					; check if 'RETURN' key is pressed						;91b6	cb 57
2990  91B8 28 59        	jr z,l9213h		; yes - ;91b8	28 59 	( Y
2991  91BA 18 E4        	jr l91a0h				; wait for one of defined keys							;91ba	18 e4
2992  91BC              ; -- key ',' (comma) is pressed
2993  91BC              l91bch:
2994  91BC 3E 01        	ld a,001h		;91bc	3e 01 	> .
2995  91BE 18 0A        	jr l91cah		;91be	18 0a 	. .
2996  91C0              ; -- key 'M' is pressed
2997  91C0              l91c0h:
2998  91C0 3E 1D        	ld a,01dh		;91c0	3e 1d 	> .
2999  91C2 18 06        	jr l91cah		;91c2	18 06 	. .
3000  91C4              ; -- key '.' (dot) is pressed
3001  91C4              l91c4h:
3002  91C4 3E 18        	ld a,018h		;91c4	3e 18 	> .
3003  91C6 18 02        	jr l91cah		;91c6	18 02 	. .
3004  91C8              ; -- key 'SPACE' is pressed
3005  91C8              l91c8h:
3006  91C8 3E 06        	ld a,006h		;91c8	3e 06 	> .
3007  91CA              l91cah:
3008  91CA F5           	push af			;91ca	f5 	.
3009  91CB CD 9E 92     	call sub_929eh		;91cb	cd 9e 92 	. . .
3010  91CE F1           	pop af			;91ce	f1 	.
3011  91CF              l91cfh:
3012  91CF F5           	push af			;91cf	f5 	.
3013  91D0 CD D9 91     	call sub_91d9h		;91d0	cd d9 91 	. . .
3014  91D3 F1           	pop af			;91d3	f1 	.
3015  91D4 3D           	dec a			;91d4	3d 	=
3016  91D5 20 F8        	jr nz,l91cfh		;91d5	20 f8 	  .
3017  91D7 18 BE        	jr l9197h		;91d7	18 be 	. .
3018  91D9              sub_91d9h:
3019  91D9 00           	nop			;91d9	00 	.
3020  91DA 3A 08 92     	ld a,(l9208h)		;91da	3a 08 92 	: . .
3021  91DD 3C           	inc a			;91dd	3c 	<
3022  91DE 32 08 92     	ld (l9208h),a		;91de	32 08 92 	2 . .
3023  91E1 78           	ld a,b			;91e1	78 	x
3024  91E2 FE 06        	cp 006h		;91e2	fe 06 	. .
3025  91E4 28 07        	jr z,l91edh		;91e4	28 07 	( .
3026  91E6 04           	inc b			;91e6	04 	.
3027  91E7 23           	inc hl			;91e7	23 	#
3028  91E8 23           	inc hl			;91e8	23 	#
3029  91E9 23           	inc hl			;91e9	23 	#
3030  91EA 23           	inc hl			;91ea	23 	#
3031  91EB 23           	inc hl			;91eb	23 	#
3032  91EC C9           	ret			;91ec	c9 	.
3033  91ED              l91edh:
3034  91ED 06 01        	ld b,001h		;91ed	06 01 	. .
3035  91EF 79           	ld a,c			;91ef	79 	y
3036  91F0 FE 05        	cp 005h		;91f0	fe 05 	. .
3037  91F2 28 06        	jr z,l91fah		;91f2	28 06 	( .
3038  91F4 11 07 01     	ld de,00107h		;91f4	11 07 01 	. . .
3039  91F7 19           	add hl,de			;91f7	19 	.
3040  91F8 0C           	inc c			;91f8	0c 	.
3041  91F9 C9           	ret			;91f9	c9 	.
3042  91FA              l91fah:
3043  91FA 11 99 04     	ld de,00499h		;91fa	11 99 04 	. . .
3044  91FD B7           	or a			;91fd	b7 	.
3045  91FE ED 52        	sbc hl,de		;91fe	ed 52 	. R
3046  9200 0E 01        	ld c,001h		;9200	0e 01 	. .
3047  9202 3E 41        	ld a,041h		;9202	3e 41 	> A
3048  9204 32 08 92     	ld (l9208h),a		;9204	32 08 92 	2 . .
3049  9207 C9           	ret			;9207	c9 	.
3050  9208              l9208h:
3051  9208 00           	nop			;9208	00 	.
3052  9209              l9209h:
3053  9209 00           	nop			;9209	00 	.
3054  920A              l920ah:
3055  920A 00           	nop			;920a	00 	.
3056  920B 00           	nop			;920b	00 	.
3057  920C              l920ch:
3058  920C 00           	nop			;920c	00 	.
3059  920D 00           	nop			;920d	00 	.
3060  920E              l920eh:
3061  920E 00           	nop			;920e	00 	.
3062  920F              l920fh:
3063  920F 00           	nop			;920f	00 	.
3064  9210 00           	nop			;9210	00 	.
3065  9211 00           	nop			;9211	00 	.
3066  9212 00           	nop			;9212	00 	.
3067  9213
3068  9213              ; -- key 'RETURN' is pressed
3069  9213              l9213h:
3070  9213 C5           	push bc			;9213	c5 	.
3071  9214 E5           	push hl			;9214	e5 	.
3072  9215 3A 08 92     	ld a,(l9208h)		;9215	3a 08 92 	: . .
3073  9218 FE 5B        	cp 05bh		;9218	fe 5b 	. [
3074  921A 28 3A        	jr z,l9256h		;921a	28 3a 	( :
3075  921C FE 5C        	cp 05ch		;921c	fe 5c 	. \
3076  921E 28 3A        	jr z,l925ah		;921e	28 3a 	( :
3077  9220 FE 5D        	cp 05dh		;9220	fe 5d 	. ]
3078  9222 28 3A        	jr z,l925eh		;9222	28 3a 	( :
3079  9224 FE 5E        	cp 05eh		;9224	fe 5e 	. ^
3080  9226 28 68        	jr z,l9290h		;9226	28 68 	( h
3081  9228              l9228h:
3082  9228 2A 0A 92     	ld hl,(l920ah)		;9228	2a 0a 92 	* . .
3083  922B 77           	ld (hl),a			;922b	77 	w
3084  922C ED 5B 0C 92  	ld de,(l920ch)		;922c	ed 5b 0c 92 	. [ . .
3085  9230 CD E9 98     	call sub_98e9h		;9230	cd e9 98 	. . .
3086  9233 3A 09 92     	ld a,(l9209h)		;9233	3a 09 92 	: . .
3087  9236 FE 04        	cp 004h		;9236	fe 04 	. .
3088  9238 20 05        	jr nz,l923fh		;9238	20 05 	  .
3089  923A              l923ah:
3090  923A E1           	pop hl			;923a	e1 	.
3091  923B C1           	pop bc			;923b	c1 	.
3092  923C C3 9A 91     	jp l919ah		;923c	c3 9a 91 	. . .
3093  923F              l923fh:
3094  923F 3C           	inc a			;923f	3c 	<
3095  9240 32 09 92     	ld (l9209h),a		;9240	32 09 92 	2 . .
3096  9243 2A 0A 92     	ld hl,(l920ah)		;9243	2a 0a 92 	* . .
3097  9246 23           	inc hl			;9246	23 	#
3098  9247 22 0A 92     	ld (l920ah),hl		;9247	22 0a 92 	" . .
3099  924A 2A 0C 92     	ld hl,(l920ch)		;924a	2a 0c 92 	* . .
3100  924D 01 06 00     	ld bc,00006h		;924d	01 06 00 	. . .
3101  9250 09           	add hl,bc			;9250	09 	.
3102  9251 22 0C 92     	ld (l920ch),hl		;9251	22 0c 92 	" . .
3103  9254 18 E4        	jr l923ah		;9254	18 e4 	. .
3104  9256              l9256h:
3105  9256 3E 2E        	ld a,02eh		;9256	3e 2e 	> .
3106  9258 18 CE        	jr l9228h		;9258	18 ce 	. .
3107  925A              l925ah:
3108  925A 3E 20        	ld a,020h		;925a	3e 20 	>
3109  925C 18 CA        	jr l9228h		;925c	18 ca 	. .
3110  925E              l925eh:
3111  925E 3E 20        	ld a,020h		;925e	3e 20 	>
3112  9260 ED 5B 0C 92  	ld de,(l920ch)		;9260	ed 5b 0c 92 	. [ . .
3113  9264 D5           	push de			;9264	d5 	.
3114  9265 CD E9 98     	call sub_98e9h		;9265	cd e9 98 	. . .
3115  9268 2A 0A 92     	ld hl,(l920ah)		;9268	2a 0a 92 	* . .
3116  926B 36 20        	ld (hl),020h		;926b	36 20 	6
3117  926D D1           	pop de			;926d	d1 	.
3118  926E 3A 09 92     	ld a,(l9209h)		;926e	3a 09 92 	: . .
3119  9271 B7           	or a			;9271	b7 	.
3120  9272 28 C6        	jr z,l923ah		;9272	28 c6 	( .
3121  9274 3D           	dec a			;9274	3d 	=
3122  9275 32 09 92     	ld (l9209h),a		;9275	32 09 92 	2 . .
3123  9278 2B           	dec hl			;9278	2b 	+
3124  9279 36 20        	ld (hl),020h		;9279	36 20 	6
3125  927B 22 0A 92     	ld (l920ah),hl		;927b	22 0a 92 	" . .
3126  927E EB           	ex de,hl			;927e	eb 	.
3127  927F 11 06 00     	ld de,00006h		;927f	11 06 00 	. . .
3128  9282 B7           	or a			;9282	b7 	.
3129  9283 ED 52        	sbc hl,de		;9283	ed 52 	. R
3130  9285 22 0C 92     	ld (l920ch),hl		;9285	22 0c 92 	" . .
3131  9288 EB           	ex de,hl			;9288	eb 	.
3132  9289 3E 20        	ld a,020h		;9289	3e 20 	>
3133  928B CD E9 98     	call sub_98e9h		;928b	cd e9 98 	. . .
3134  928E 18 AA        	jr l923ah		;928e	18 aa 	. .
3135  9290              l9290h:
3136  9290 E1           	pop hl			;9290	e1 	.
3137  9291 C1           	pop bc			;9291	c1 	.
3138  9292 D1           	pop de			;9292	d1 	.
3139  9293 21 0E 92     	ld hl,l920eh		;9293	21 0e 92 	! . .
3140  9296 01 05 00     	ld bc,00005h		;9296	01 05 00 	. . .
3141  9299 ED B0        	ldir		;9299	ed b0 	. .
3142  929B F1           	pop af			;929b	f1 	.
3143  929C B7           	or a			;929c	b7 	.
3144  929D C9           	ret			;929d	c9 	.
3145  929E              sub_929eh:
3146  929E E5           	push hl			;929e	e5 	.
3147  929F C5           	push bc			;929f	c5 	.
3148  92A0 11 1C 00     	ld de,0001ch		;92a0	11 1c 00 	. . .
3149  92A3 CD BA 92     	call sub_92bah		;92a3	cd ba 92 	. . .
3150  92A6 3E 07        	ld a,007h		;92a6	3e 07 	> .
3151  92A8 01 04 00     	ld bc,00004h		;92a8	01 04 00 	. . .
3152  92AB              l92abh:
3153  92AB 36 00        	ld (hl),000h		;92ab	36 00 	6 .
3154  92AD 09           	add hl,bc			;92ad	09 	.
3155  92AE 36 00        	ld (hl),000h		;92ae	36 00 	6 .
3156  92B0 19           	add hl,de			;92b0	19 	.
3157  92B1 3D           	dec a			;92b1	3d 	=
3158  92B2 20 F7        	jr nz,l92abh		;92b2	20 f7 	  .
3159  92B4 CD BA 92     	call sub_92bah		;92b4	cd ba 92 	. . .
3160  92B7 C1           	pop bc			;92b7	c1 	.
3161  92B8 E1           	pop hl			;92b8	e1 	.
3162  92B9 C9           	ret			;92b9	c9 	.
3163  92BA              sub_92bah:
3164  92BA 36 00        	ld (hl),000h		;92ba	36 00 	6 .
3165  92BC 23           	inc hl			;92bc	23 	#
3166  92BD 36 00        	ld (hl),000h		;92bd	36 00 	6 .
3167  92BF 23           	inc hl			;92bf	23 	#
3168  92C0 36 00        	ld (hl),000h		;92c0	36 00 	6 .
3169  92C2 23           	inc hl			;92c2	23 	#
3170  92C3 36 00        	ld (hl),000h		;92c3	36 00 	6 .
3171  92C5 23           	inc hl			;92c5	23 	#
3172  92C6 36 00        	ld (hl),000h		;92c6	36 00 	6 .
3173  92C8 19           	add hl,de			;92c8	19 	.
3174  92C9 C9           	ret			;92c9	c9 	.
3175  92CA              sub_92cah:
3176  92CA E5           	push hl			;92ca	e5 	.
3177  92CB C5           	push bc			;92cb	c5 	.
3178  92CC 11 1C 00     	ld de,0001ch		;92cc	11 1c 00 	. . .
3179  92CF CD E6 92     	call sub_92e6h		;92cf	cd e6 92 	. . .
3180  92D2 01 04 00     	ld bc,00004h		;92d2	01 04 00 	. . .
3181  92D5 3E 07        	ld a,007h		;92d5	3e 07 	> .
3182  92D7              l92d7h:
3183  92D7 36 10        	ld (hl),010h		;92d7	36 10 	6 .
3184  92D9 09           	add hl,bc			;92d9	09 	.
3185  92DA 36 10        	ld (hl),010h		;92da	36 10 	6 .
3186  92DC 19           	add hl,de			;92dc	19 	.
3187  92DD 3D           	dec a			;92dd	3d 	=
3188  92DE 20 F7        	jr nz,l92d7h		;92de	20 f7 	  .
3189  92E0 CD E6 92     	call sub_92e6h		;92e0	cd e6 92 	. . .
3190  92E3 C1           	pop bc			;92e3	c1 	.
3191  92E4 E1           	pop hl			;92e4	e1 	.
3192  92E5 C9           	ret			;92e5	c9 	.
3193  92E6              sub_92e6h:
3194  92E6 36 15        	ld (hl),015h		;92e6	36 15 	6 .
3195  92E8 23           	inc hl			;92e8	23 	#
3196  92E9 36 55        	ld (hl),055h		;92e9	36 55 	6 U
3197  92EB 23           	inc hl			;92eb	23 	#
3198  92EC 36 55        	ld (hl),055h		;92ec	36 55 	6 U
3199  92EE 23           	inc hl			;92ee	23 	#
3200  92EF 36 55        	ld (hl),055h		;92ef	36 55 	6 U
3201  92F1 23           	inc hl			;92f1	23 	#
3202  92F2 36 50        	ld (hl),050h		;92f2	36 50 	6 P
3203  92F4 19           	add hl,de			;92f4	19 	.
3204  92F5 C9           	ret			;92f5	c9 	.
3205  92F6              sub_92f6h:
3206  92F6 C5           	push bc			;92f6	c5 	.
3207  92F7 E5           	push hl			;92f7	e5 	.
3208  92F8 E5           	push hl			;92f8	e5 	.
3209  92F9 D1           	pop de			;92f9	d1 	.
3210  92FA 13           	inc de			;92fa	13 	.
3211  92FB 13           	inc de			;92fb	13 	.
3212  92FC 13           	inc de			;92fc	13 	.
3213  92FD 13           	inc de			;92fd	13 	.
3214  92FE 13           	inc de			;92fe	13 	.
3215  92FF 01 05 00     	ld bc,00005h		;92ff	01 05 00 	. . .
3216  9302 ED B0        	ldir		;9302	ed b0 	. .
3217  9304 E1           	pop hl			;9304	e1 	.
3218  9305 2B           	dec hl			;9305	2b 	+
3219  9306 2B           	dec hl			;9306	2b 	+
3220  9307 2B           	dec hl			;9307	2b 	+
3221  9308 2B           	dec hl			;9308	2b 	+
3222  9309 2B           	dec hl			;9309	2b 	+
3223  930A C1           	pop bc			;930a	c1 	.
3224  930B 10 E9        	djnz sub_92f6h		;930b	10 e9 	. .
3225  930D C9           	ret			;930d	c9 	.
3226  930E              sub_930eh:
3227  930E CD 1B 93     	call sub_931bh		;930e	cd 1b 93 	. . .
3228  9311 CD 0F 94     	call sub_940fh		;9311	cd 0f 94 	. . .
3229  9314 CD 0F 94     	call sub_940fh		;9314	cd 0f 94 	. . .
3230  9317 CD 0F 94     	call sub_940fh		;9317	cd 0f 94 	. . .
3231  931A C9           	ret			;931a	c9 	.
3232  931B              sub_931bh:
3233  931B 21 00 70     	ld hl,VRAM			; screen coord (0,0)px									;931b	21 00 70
3234  931E 01 1F 40     	ld bc,0401fh		;931e	01 1f 40 	. . @
3235  9321 3E 10        	ld a,010h		;9321	3e 10 	> .
3236  9323              l9323h:
3237  9323 F5           	push af			;9323	f5 	.
3238  9324 E5           	push hl			;9324	e5 	.
3239  9325 C5           	push bc			;9325	c5 	.
3240  9326 CD B9 93     	call sub_93b9h		;9326	cd b9 93 	. . .
3241  9329 11 00 20     	ld de,$2000				; delay parameter value								;9329	11 00 20
3242  932C CD 1D 94     	call DELAY_DE			; wait delay										;932c	cd 1d 94
3243  932F C1           	pop bc			;932f	c1 	.
3244  9330 E1           	pop hl			;9330	e1 	.
3245  9331 F1           	pop af			;9331	f1 	.
3246  9332 11 41 00     	ld de,00041h		;9332	11 41 00 	. A .
3247  9335 19           	add hl,de			;9335	19 	.
3248  9336 05           	dec b			;9336	05 	.
3249  9337 05           	dec b			;9337	05 	.
3250  9338 05           	dec b			;9338	05 	.
3251  9339 05           	dec b			;9339	05 	.
3252  933A 0D           	dec c			;933a	0d 	.
3253  933B 0D           	dec c			;933b	0d 	.
3254  933C 3D           	dec a			;933c	3d 	=
3255  933D 20 E4        	jr nz,l9323h		;933d	20 e4 	  .
3256  933F 21 CF 73     	ld hl,073cfh		;933f	21 cf 73 	! . s
3257  9342 11 4F AE     	ld de,0ae4fh		;9342	11 4f ae 	. O .
3258  9345 01 01 04     	ld bc,00401h		;9345	01 01 04 	. . .
3259  9348 3E 0F        	ld a,00fh		;9348	3e 0f 	> .
3260  934A              l934ah:
3261  934A F5           	push af			;934a	f5 	.
3262  934B C5           	push bc			;934b	c5 	.
3263  934C D5           	push de			;934c	d5 	.
3264  934D E5           	push hl			;934d	e5 	.
3265  934E CD 6F 93     	call sub_936fh		;934e	cd 6f 93 	. o .
3266  9351 11 00 20     	ld de,$2000				; delay parameter value									;9351	11 00 20
3267  9354 CD 1D 94     	call DELAY_DE			; wait delay											;9354	cd 1d 94
3268  9357 D1           	pop de			;9357	d1 	.
3269  9358 E1           	pop hl			;9358	e1 	.
3270  9359 01 41 00     	ld bc,00041h		;9359	01 41 00 	. A .
3271  935C B7           	or a			;935c	b7 	.
3272  935D ED 42        	sbc hl,bc		;935d	ed 42 	. B
3273  935F EB           	ex de,hl			;935f	eb 	.
3274  9360 B7           	or a			;9360	b7 	.
3275  9361 ED 42        	sbc hl,bc		;9361	ed 42 	. B
3276  9363 C1           	pop bc			;9363	c1 	.
3277  9364 F1           	pop af			;9364	f1 	.
3278  9365 04           	inc b			;9365	04 	.
3279  9366 04           	inc b			;9366	04 	.
3280  9367 04           	inc b			;9367	04 	.
3281  9368 04           	inc b			;9368	04 	.
3282  9369 0C           	inc c			;9369	0c 	.
3283  936A 0C           	inc c			;936a	0c 	.
3284  936B 3D           	dec a			;936b	3d 	=
3285  936C 20 DC        	jr nz,l934ah		;936c	20 dc 	  .
3286  936E C9           	ret			;936e	c9 	.
3287  936F              sub_936fh:
3288  936F CD 8F 93     	call sub_938fh		;936f	cd 8f 93 	. . .
3289  9372 CD 8F 93     	call sub_938fh		;9372	cd 8f 93 	. . .
3290  9375 C5           	push bc			;9375	c5 	.
3291  9376 78           	ld a,b			;9376	78 	x
3292  9377 3D           	dec a			;9377	3d 	=
3293  9378 3D           	dec a			;9378	3d 	=
3294  9379 3D           	dec a			;9379	3d 	=
3295  937A 3D           	dec a			;937a	3d 	=
3296  937B 28 0A        	jr z,l9387h		;937b	28 0a 	( .
3297  937D 06 00        	ld b,000h		;937d	06 00 	. .
3298  937F              l937fh:
3299  937F F5           	push af			;937f	f5 	.
3300  9380 CD A4 93     	call sub_93a4h		;9380	cd a4 93 	. . .
3301  9383 F1           	pop af			;9383	f1 	.
3302  9384 3D           	dec a			;9384	3d 	=
3303  9385 20 F8        	jr nz,l937fh		;9385	20 f8 	  .
3304  9387              l9387h:
3305  9387 C1           	pop bc			;9387	c1 	.
3306  9388 CD 8F 93     	call sub_938fh		;9388	cd 8f 93 	. . .
3307  938B CD 8F 93     	call sub_938fh		;938b	cd 8f 93 	. . .
3308  938E C9           	ret			;938e	c9 	.
3309  938F              sub_938fh:
3310  938F C5           	push bc			;938f	c5 	.
3311  9390 D5           	push de			;9390	d5 	.
3312  9391 E5           	push hl			;9391	e5 	.
3313  9392 0C           	inc c			;9392	0c 	.
3314  9393              l9393h:
3315  9393 1A           	ld a,(de)			;9393	1a 	.
3316  9394 77           	ld (hl),a			;9394	77 	w
3317  9395 23           	inc hl			;9395	23 	#
3318  9396 13           	inc de			;9396	13 	.
3319  9397 0D           	dec c			;9397	0d 	.
3320  9398 20 F9        	jr nz,l9393h		;9398	20 f9 	  .
3321  939A D1           	pop de			;939a	d1 	.
3322  939B E1           	pop hl			;939b	e1 	.
3323  939C 01 20 00     	ld bc,00020h		;939c	01 20 00 	.   .
3324  939F 09           	add hl,bc			;939f	09 	.
3325  93A0 EB           	ex de,hl			;93a0	eb 	.
3326  93A1 09           	add hl,bc			;93a1	09 	.
3327  93A2 C1           	pop bc			;93a2	c1 	.
3328  93A3 C9           	ret			;93a3	c9 	.
3329  93A4              sub_93a4h:
3330  93A4 C5           	push bc			;93a4	c5 	.
3331  93A5 D5           	push de			;93a5	d5 	.
3332  93A6 E5           	push hl			;93a6	e5 	.
3333  93A7 1A           	ld a,(de)			;93a7	1a 	.
3334  93A8 77           	ld (hl),a			;93a8	77 	w
3335  93A9 09           	add hl,bc			;93a9	09 	.
3336  93AA EB           	ex de,hl			;93aa	eb 	.
3337  93AB 09           	add hl,bc			;93ab	09 	.
3338  93AC EB           	ex de,hl			;93ac	eb 	.
3339  93AD 1A           	ld a,(de)			;93ad	1a 	.
3340  93AE 77           	ld (hl),a			;93ae	77 	w
3341  93AF 01 20 00     	ld bc,00020h		;93af	01 20 00 	.   .
3342  93B2 D1           	pop de			;93b2	d1 	.
3343  93B3 E1           	pop hl			;93b3	e1 	.
3344  93B4 09           	add hl,bc			;93b4	09 	.
3345  93B5 EB           	ex de,hl			;93b5	eb 	.
3346  93B6 09           	add hl,bc			;93b6	09 	.
3347  93B7 C1           	pop bc			;93b7	c1 	.
3348  93B8 C9           	ret			;93b8	c9 	.
3349  93B9              sub_93b9h:
3350  93B9 CD D9 93     	call sub_93d9h		;93b9	cd d9 93 	. . .
3351  93BC CD D9 93     	call sub_93d9h		;93bc	cd d9 93 	. . .
3352  93BF C5           	push bc			;93bf	c5 	.
3353  93C0 78           	ld a,b			;93c0	78 	x
3354  93C1 3D           	dec a			;93c1	3d 	=
3355  93C2 3D           	dec a			;93c2	3d 	=
3356  93C3 3D           	dec a			;93c3	3d 	=
3357  93C4 3D           	dec a			;93c4	3d 	=
3358  93C5 28 0A        	jr z,l93d1h		;93c5	28 0a 	( .
3359  93C7 06 00        	ld b,000h		;93c7	06 00 	. .
3360  93C9              l93c9h:
3361  93C9 F5           	push af			;93c9	f5 	.
3362  93CA CD EB 93     	call sub_93ebh		;93ca	cd eb 93 	. . .
3363  93CD F1           	pop af			;93cd	f1 	.
3364  93CE 3D           	dec a			;93ce	3d 	=
3365  93CF 20 F8        	jr nz,l93c9h		;93cf	20 f8 	  .
3366  93D1              l93d1h:
3367  93D1 C1           	pop bc			;93d1	c1 	.
3368  93D2 CD D9 93     	call sub_93d9h		;93d2	cd d9 93 	. . .
3369  93D5 CD D9 93     	call sub_93d9h		;93d5	cd d9 93 	. . .
3370  93D8 C9           	ret			;93d8	c9 	.
3371  93D9              sub_93d9h:
3372  93D9 C5           	push bc			;93d9	c5 	.
3373  93DA E5           	push hl			;93da	e5 	.
3374  93DB E5           	push hl			;93db	e5 	.
3375  93DC D1           	pop de			;93dc	d1 	.
3376  93DD 13           	inc de			;93dd	13 	.
3377  93DE 06 00        	ld b,000h		;93de	06 00 	. .
3378  93E0 36 FF        	ld (hl),0ffh		;93e0	36 ff 	6 .
3379  93E2 ED B0        	ldir		;93e2	ed b0 	. .
3380  93E4 E1           	pop hl			;93e4	e1 	.
3381  93E5 11 20 00     	ld de,00020h		;93e5	11 20 00 	.   .
3382  93E8 19           	add hl,de			;93e8	19 	.
3383  93E9 C1           	pop bc			;93e9	c1 	.
3384  93EA C9           	ret			;93ea	c9 	.
3385  93EB              sub_93ebh:
3386  93EB C5           	push bc			;93eb	c5 	.
3387  93EC E5           	push hl			;93ec	e5 	.
3388  93ED 36 FF        	ld (hl),0ffh		;93ed	36 ff 	6 .
3389  93EF 06 00        	ld b,000h		;93ef	06 00 	. .
3390  93F1 09           	add hl,bc			;93f1	09 	.
3391  93F2 36 FF        	ld (hl),0ffh		;93f2	36 ff 	6 .
3392  93F4 E1           	pop hl			;93f4	e1 	.
3393  93F5 11 20 00     	ld de,00020h		;93f5	11 20 00 	.   .
3394  93F8 19           	add hl,de			;93f8	19 	.
3395  93F9 C1           	pop bc			;93f9	c1 	.
3396  93FA C9           	ret			;93fa	c9 	.
3397  93FB              sub_93fbh:
3398  93FB 3A BF 68     	ld a,(KEYS_ROW_6)		; select Keyboard row 6 								;93fb	3a bf 68
3399  93FE CB 5F        	bit 3,a					; check if key 'I' is pressed							;93fe	cb 5f
3400  9400 CA 4F 9A     	jp z,SHOW_MANUAL		; yes - show Manual/Instruction pages;9400	ca 4f 9a 	. O .
3401  9403 CB 67        	bit 4,a					; check if key 'P' is pressed							;9403	cb 67
3402  9405 C0           	ret nz					; no ------------ End of Proc (no key) ----------------	;9405	c0
3403  9406              ; -- key 'P' is pressed
3404  9406 21 2C 00     	ld hl,0002ch		;9406	21 2c 00 	! , .
3405  9409 22 AB 98     	ld (l98abh),hl		;9409	22 ab 98 	" . .
3406  940C C3 03 7D     	jp l7d03h		;940c	c3 03 7d 	. . }
3407  940F              sub_940fh:
3408  940F 06 14        	ld b,014h		;940f	06 14 	. .
3409  9411              l9411h:
3410  9411 11 00 40     	ld de,$4000				; delay parameter value									;9411	11 00 40
3411  9414 CD 1D 94     	call DELAY_DE			; wait delay											;9414	cd 1d 94
3412  9417 CD FB 93     	call sub_93fbh		;9417	cd fb 93 	. . .
3413  941A 10 F5        	djnz l9411h		;941a	10 f5 	. .
3414  941C C9           	ret			;941c	c9 	.
3415  941D
3416  941D
3417  941D              ;***********************************************************************************************
3418  941D              ; Delay by decrementing register de
3419  941D              ; IN: de - value determining time to delay
3420  941D              DELAY_DE:
3421  941D 1B           	dec de					; decrement de											;941d	1b
3422  941E 7A           	ld a,d					; check if de = 0										;941e	7a
3423  941F B3           	or e																			;941f	b3
3424  9420 20 FB        	jr nz,DELAY_DE			; no - wait until de = 0								;9420	20 fb
3425  9422 C9           	ret						; ------------------- End of Proc --------------------- ;9422	c9
3426  9423
3427  9423
3428  9423              sub_9423h:
3429  9423 D5           	push de			;9423	d5 	.
3430  9424              l9424h:
3431  9424 E5           	push hl			;9424	e5 	.
3432  9425 D5           	push de			;9425	d5 	.
3433  9426 7E           	ld a,(hl)			;9426	7e 	~
3434  9427 B7           	or a			;9427	b7 	.
3435  9428 28 0D        	jr z,l9437h		;9428	28 0d 	( .
3436  942A FE 0D        	cp 00dh		;942a	fe 0d 	. .
3437  942C 28 0D        	jr z,l943bh		;942c	28 0d 	( .
3438  942E CD E9 98     	call sub_98e9h		;942e	cd e9 98 	. . .
3439  9431 D1           	pop de			;9431	d1 	.
3440  9432 E1           	pop hl			;9432	e1 	.
3441  9433 23           	inc hl			;9433	23 	#
3442  9434 13           	inc de			;9434	13 	.
3443  9435 18 ED        	jr l9424h		;9435	18 ed 	. .
3444  9437              l9437h:
3445  9437 D1           	pop de			;9437	d1 	.
3446  9438 E1           	pop hl			;9438	e1 	.
3447  9439 D1           	pop de			;9439	d1 	.
3448  943A C9           	ret			;943a	c9 	.
3449  943B              l943bh:
3450  943B D1           	pop de			;943b	d1 	.
3451  943C D1           	pop de			;943c	d1 	.
3452  943D E1           	pop hl			;943d	e1 	.
3453  943E 01 C0 00     	ld bc,000c0h		;943e	01 c0 00 	. . .
3454  9441 09           	add hl,bc			;9441	09 	.
3455  9442 EB           	ex de,hl			;9442	eb 	.
3456  9443 23           	inc hl			;9443	23 	#
3457  9444 18 DD        	jr sub_9423h		;9444	18 dd 	. .
3458  9446              sub_9446h:
3459  9446 21 80 AA     	ld hl,0aa80h		;9446	21 80 aa 	! . .
3460  9449 18 03        	jr l944eh		;9449	18 03 	. .
3461  944B
3462  944B
3463  944B              ;***********************************************************************************************
3464  944B              ; Clear Screen and set Graphics MODE 1 with default Color Palette
3465  944B              CLEAR_SCREEN_GFX:
3466  944B 21 00 70     	ld hl,VRAM				; screen coord (0,0)px								;944b	21 00 70
3467  944E              l944eh:
3468  944E              ; -- set Video Graphics Mode 1
3469  944E 3E 08        	ld a,VDG_GFX_COLORS_0	; Video Graphics Mode 1 (128x64)px					;944e	3e 08
3470  9450 32 00 68     	ld (IOLATCH),a			; set in hardware register							;9450	32 00 68
3471  9453              ; -- fill 2048 bytes of RAM pointed by hl
3472  9453 E5           	push hl					; copy hl to de										;9453	e5
3473  9454 D1           	pop de					; de - destination VRAM address						;9454	d1
3474  9455 13           	inc de					; de - address + 1									;9455	13
3475  9456 01 FF 07     	ld bc,2047				; 2048 bytes to fill with 0	(4 greeen pixels)		;9456	01 ff 07
3476  9459 36 00        	ld (hl),0				; put 0 into first VRAM byte						;9459	36 00
3477  945B ED B0        	ldir					; fill all 2047 bytes with 0						;945b	ed b0
3478  945D C9           	ret						; --------------------- End of Proc --------------- ;945d	c9
3479  945E
3480  945E
3481  945E              l945eh:
3482  945E 0D           	defb 13										;945e	0d
3483  945F 20 20 20 20  	defb "    ALL HELICOPTER DESTROYED",13,0	;945f	20 20 20 20 41 4c 4c 20 48 45 4c 49 43 4f 50 54 45 52 20 44 45 53 54 52 4f 59 45 44 0d 00
3483  9463 41 4C 4C 20
3483  9467 48 45 4C 49
3483  946B 43 4F 50 54
3483  946F 45 52 20 44
3483  9473 45 53 54 52
3483  9477 4F 59 45 44
3483  947B 0D 00
3484  947D
3485  947D
3486  947D              l947dh:
3487  947D 0D           	defb 13										;947d	0d
3488  947E 20 20 20 20  	defb "      6.00 A.M. - TIME UP",13,0		;947e	20 20 20 20 20 20 36 2e 30 30 20 41 2e 4d 2e 20 2d 20 54 49 4d 45 20 55 50 0d 00
3488  9482 20 20 36 2E
3488  9486 30 30 20 41
3488  948A 2E 4D 2E 20
3488  948E 2D 20 54 49
3488  9492 4D 45 20 55
3488  9496 50 0D 00
3489  9499
3490  9499              l9499h:
3491  9499 0D           	defb 13										;9499	0d
3492  949A 20 20 4E 4F  	defb "  NO PRISONERS LEFT TO RESCUE",13,0	;949a	20 20 4e 4f 20 50 52 49 53 4f 4e 45 52 53 20 4c 45 46 54 20 54 4f 20 52 45 53 43 55 45 0d 00
3492  949E 20 50 52 49
3492  94A2 53 4F 4E 45
3492  94A6 52 53 20 4C
3492  94AA 45 46 54 20
3492  94AE 54 4F 20 52
3492  94B2 45 53 43 55
3492  94B6 45 0D 00
3493  94B9
3494  94B9
3495  94B9              l94b9h:
3496  94B9 0D           	defb 13										;94b9	0d
3497  94BA 0D           	defb 13										;94ba	0d
3498  94BB 20 20 20 20  	defb "         MISSION OVER",13				;94bb	20 20 20 20 20 20 20 20 20 4d 49 53 53 49 4f 4e 20 4f 56 45 52 0d
3498  94BF 20 20 20 20
3498  94C3 20 4D 49 53
3498  94C7 53 49 4F 4E
3498  94CB 20 4F 56 45
3498  94CF 52 0D
3499  94D1 0D 00        	defb 13,0									;94d1	0d 00
3500  94D3
3501  94D3
3502  94D3              l94d3h:
3503  94D3 0D           	defb 13										;94d3	0d
3504  94D4 0D           	defb 13										;94d4	0d
3505  94D5 20 20 20 20  	defb "    YOUR SCORE WAS  ",0				;94d5	20 20 20 20 59 4f 55 52 20 53 43 4f 52 45 20 57 41 53 20 20 00
3505  94D9 59 4F 55 52
3505  94DD 20 53 43 4F
3505  94E1 52 45 20 57
3505  94E5 41 53 20 20
3505  94E9 00
3506  94EA
3507  94EA
3508  94EA              l94eah:
3509  94EA 20 20 20 41  	defb "   A    B    C    D    E    F",0		;94ea	20 20 20 41 20 20 20 20 42 20 20 20 20 43 20 20 20 20 44 20 20 20 20 45 20 20 20 20 46 00
3509  94EE 20 20 20 20
3509  94F2 42 20 20 20
3509  94F6 20 43 20 20
3509  94FA 20 20 44 20
3509  94FE 20 20 20 45
3509  9502 20 20 20 20
3509  9506 46 00
3510  9508 20 20 20 47  	defb "   G    H    I    J    K    L",0		;9508	20 20 20 47 20 20 20 20 48 20 20 20 20 49 20 20 20 20 4a 20 20 20 20 4b 20 20 20 20 4c 00
3510  950C 20 20 20 20
3510  9510 48 20 20 20
3510  9514 20 49 20 20
3510  9518 20 20 4A 20
3510  951C 20 20 20 4B
3510  9520 20 20 20 20
3510  9524 4C 00
3511  9526 20 20 20 4D  	defb "   M    N    O    P    Q    R",0		;9526	20 20 20 4d 20 20 20 20 4e 20 20 20 20 4f 20 20 20 20 50 20 20 20 20 51 20 20 20 20 52 00
3511  952A 20 20 20 20
3511  952E 4E 20 20 20
3511  9532 20 4F 20 20
3511  9536 20 20 50 20
3511  953A 20 20 20 51
3511  953E 20 20 20 20
3511  9542 52 00
3512  9544 20 20 20 53  	defb "   S    T    U    V    W    X",0		;9544	20 20 20 53 20 20 20 20 54 20 20 20 20 55 20 20 20 20 56 20 20 20 20 57 20 20 20 20 58 00
3512  9548 20 20 20 20
3512  954C 54 20 20 20
3512  9550 20 55 20 20
3512  9554 20 20 56 20
3512  9558 20 20 20 57
3512  955C 20 20 20 20
3512  9560 58 00
3513  9562 20 20 20 59  	defb "   Y    Z    .   SPC  DEL  END",0		;9562	20 20 20 59 20 20 20 20 5a 20 20 20 20 2e 20 20 20 53 50 43 20 20 44 45 4c 20 20 45 4e 44 00
3513  9566 20 20 20 20
3513  956A 5A 20 20 20
3513  956E 20 2E 20 20
3513  9572 20 53 50 43
3513  9576 20 20 44 45
3513  957A 4C 20 20 45
3513  957E 4E 44 00
3514  9581
3515  9581
3516  9581              l9581h:
3517  9581 0D           	defb 13										;9581	0d
3518  9582 0D           	defb 13										;9582	0d
3519  9583 20 20 20 20  	defb "        D    A    W    N",13			;9583	20 20 20 20 20 20 20 20 44 20 20 20 20 41 20 20 20 20 57 20 20 20 20 4e 0d
3519  9587 20 20 20 20
3519  958B 44 20 20 20
3519  958F 20 41 20 20
3519  9593 20 20 57 20
3519  9597 20 20 20 4E
3519  959B 0D
3520  959C 0D           	defb 13										;959c	0d
3521  959D 20 20 20 50  	defb "   P    A    T    R    O    L",13		;959d	20 20 20 50 20 20 20 20 41 20 20 20 20 54 20 20 20 20 52 20 20 20 20 4f 20 20 20 20 4c 0d
3521  95A1 20 20 20 20
3521  95A5 41 20 20 20
3521  95A9 20 54 20 20
3521  95AD 20 20 52 20
3521  95B1 20 20 20 4F
3521  95B5 20 20 20 20
3521  95B9 4C 0D
3522  95BB 0D           	defb 13										;95bb	0d
3523  95BC 0D           	defb 13										;95bc	0d
3524  95BD 20 20 20 20  	defb "      PRESS  <P>  TO  PLAY",13		;95bd	20 20 20 20 20 20 50 52 45 53 53 20 20 3c 50 3e 20 20 54 4f 20 20 50 4c 41 59 0d
3524  95C1 20 20 50 52
3524  95C5 45 53 53 20
3524  95C9 20 3C 50 3E
3524  95CD 20 20 54 4F
3524  95D1 20 20 50 4C
3524  95D5 41 59 0D
3525  95D8 20 20 20 20  	defb "    PRESS <I> FOR INSTRUCTIONS",0		;95d8	20 20 20 20 50 52 45 53 53 20 3c 49 3e 20 46 4f 52 20 49 4e 53 54 52 55 43 54 49 4f 4e 53 00
3525  95DC 50 52 45 53
3525  95E0 53 20 3C 49
3525  95E4 3E 20 46 4F
3525  95E8 52 20 49 4E
3525  95EC 53 54 52 55
3525  95F0 43 54 49 4F
3525  95F4 4E 53 00
3526  95F7
3527  95F7
3528  95F7              l95f7h:
3529  95F7 0D           	defb 13										;95f7	0d
3530  95F8 20 20 20 20  	defb "    HELICOPTER CONTROL KEYS",13		;95f8	20 20 20 20 48 45 4c 49 43 4f 50 54 45 52 20 43 4f 4e 54 52 4f 4c 20 4b 45 59 53 0d
3530  95FC 48 45 4C 49
3530  9600 43 4F 50 54
3530  9604 45 52 20 43
3530  9608 4F 4E 54 52
3530  960C 4F 4C 20 4B
3530  9610 45 59 53 0D
3531  9614 0D           	defb 13										;9614	0d
3532  9615 20 20 20 20  	defb "     Q  =  HELICOPTER UP",13			;9615	20 20 20 20 20 51 20 20 3d 20 20 48 45 4c 49 43 4f 50 54 45 52 20 55 50 0d
3532  9619 20 51 20 20
3532  961D 3D 20 20 48
3532  9621 45 4C 49 43
3532  9625 4F 50 54 45
3532  9629 52 20 55 50
3532  962D 0D
3533  962E 20 20 20 20  	defb "     A  =  HELICOPTER DOWN",13		;962e	20 20 20 20 20 41 20 20 3d 20 20 48 45 4c 49 43 4f 50 54 45 52 20 44 4f 57 4e 0d
3533  9632 20 41 20 20
3533  9636 3D 20 20 48
3533  963A 45 4C 49 43
3533  963E 4F 50 54 45
3533  9642 52 20 44 4F
3533  9646 57 4E 0D
3534  9649 20 20 20 20  	defb "     M  =  HELICOPTER RIGHT",13		;9649	20 20 20 20 20 4d 20 20 3d 20 20 48 45 4c 49 43 4f 50 54 45 52 20 52 49 47 48 54 0d
3534  964D 20 4D 20 20
3534  9651 3D 20 20 48
3534  9655 45 4C 49 43
3534  9659 4F 50 54 45
3534  965D 52 20 52 49
3534  9661 47 48 54 0D
3535  9665 20 20 20 20  	defb "     ,  =  HELICOPTER LEFT",13		;9665	20 20 20 20 20 2c 20 20 3d 20 20 48 45 4c 49 43 4f 50 54 45 52 20 4c 45 46 54 0d
3535  9669 20 2C 20 20
3535  966D 3D 20 20 48
3535  9671 45 4C 49 43
3535  9675 4F 50 54 45
3535  9679 52 20 4C 45
3535  967D 46 54 0D
3536  9680 0D           	defb 13										;9680	0d
3537  9681 20 20 20 20  	defb "     N  =  ROTATE HELICOPTER",13		;9681	20 20 20 20 20 4e 20 20 3d 20 20 52 4f 54 41 54 45 20 48 45 4c 49 43 4f 50 54 45 52 0d
3537  9685 20 4E 20 20
3537  9689 3D 20 20 52
3537  968D 4F 54 41 54
3537  9691 45 20 48 45
3537  9695 4C 49 43 4F
3537  9699 50 54 45 52
3537  969D 0D
3538  969E 20 20 20 20  	defb "    SPC =  FIRE",0					;969e	20 20 20 20 53 50 43 20 3d 20 20 46 49 52 45 00
3538  96A2 53 50 43 20
3538  96A6 3D 20 20 46
3538  96AA 49 52 45 00
3539  96AE
3540  96AE
3541  96AE              l96aeh:
3542  96AE 00           	nop			;96ae	00 	.
3543  96AF              l96afh:
3544  96AF 00           	nop			;96af	00 	.
3545  96B0 00           	nop			;96b0	00 	.
3546  96B1 00           	nop			;96b1	00 	.
3547  96B2              l96b2h:
3548  96B2 00           	nop			;96b2	00 	.
3549  96B3 00           	nop			;96b3	00 	.
3550  96B4 00           	nop			;96b4	00 	.
3551  96B5 00           	nop			;96b5	00 	.
3552  96B6 00           	nop			;96b6	00 	.
3553  96B7 00           	nop			;96b7	00 	.
3554  96B8 00           	nop			;96b8	00 	.
3555  96B9 00           	nop			;96b9	00 	.
3556  96BA 00           	nop			;96ba	00 	.
3557  96BB 00           	nop			;96bb	00 	.
3558  96BC 00           	nop			;96bc	00 	.
3559  96BD 00           	nop			;96bd	00 	.
3560  96BE 00           	nop			;96be	00 	.
3561  96BF 00           	nop			;96bf	00 	.
3562  96C0              l96c0h:
3563  96C0 00           	nop			;96c0	00 	.
3564  96C1 00           	nop			;96c1	00 	.
3565  96C2              l96c2h:
3566  96C2 00           	nop			;96c2	00 	.
3567  96C3 00           	nop			;96c3	00 	.
3568  96C4 00           	nop			;96c4	00 	.
3569  96C5 00           	nop			;96c5	00 	.
3570  96C6 00           	nop			;96c6	00 	.
3571  96C7 00           	nop			;96c7	00 	.
3572  96C8              l96c8h:
3573  96C8 00           	nop			;96c8	00 	.
3574  96C9              l96c9h:
3575  96C9 00           	nop			;96c9	00 	.
3576  96CA 00           	nop			;96ca	00 	.
3577  96CB 00           	nop			;96cb	00 	.
3578  96CC 00           	nop			;96cc	00 	.
3579  96CD 00           	nop			;96cd	00 	.
3580  96CE 00           	nop			;96ce	00 	.
3581  96CF 00           	nop			;96cf	00 	.
3582  96D0 00           	nop			;96d0	00 	.
3583  96D1 00           	nop			;96d1	00 	.
3584  96D2 00           	nop			;96d2	00 	.
3585  96D3 00           	nop			;96d3	00 	.
3586  96D4 00           	nop			;96d4	00 	.
3587  96D5              l96d5h:
3588  96D5 00           	nop			;96d5	00 	.
3589  96D6              l96d6h:
3590  96D6 00           	nop			;96d6	00 	.
3591  96D7 00           	nop			;96d7	00 	.
3592  96D8 00           	nop			;96d8	00 	.
3593  96D9 00           	nop			;96d9	00 	.
3594  96DA 00           	nop			;96da	00 	.
3595  96DB 00           	nop			;96db	00 	.
3596  96DC              l96dch:
3597  96DC 00           	nop			;96dc	00 	.
3598  96DD 00           	nop			;96dd	00 	.
3599  96DE 00           	nop			;96de	00 	.
3600  96DF 00           	nop			;96df	00 	.
3601  96E0              l96e0h:
3602  96E0 00           	nop			;96e0	00 	.
3603  96E1              l96e1h:
3604  96E1 00           	nop			;96e1	00 	.
3605  96E2 00           	nop			;96e2	00 	.
3606  96E3 00           	nop			;96e3	00 	.
3607  96E4              l96e4h:
3608  96E4 00           	nop			;96e4	00 	.
3609  96E5 00           	nop			;96e5	00 	.
3610  96E6 00           	nop			;96e6	00 	.
3611  96E7 00           	nop			;96e7	00 	.
3612  96E8 00           	nop			;96e8	00 	.
3613  96E9 00           	nop			;96e9	00 	.
3614  96EA 00           	nop			;96ea	00 	.
3615  96EB 00           	nop			;96eb	00 	.
3616  96EC 00           	nop			;96ec	00 	.
3617  96ED 00           	nop			;96ed	00 	.
3618  96EE 00           	nop			;96ee	00 	.
3619  96EF 00           	nop			;96ef	00 	.
3620  96F0 00           	nop			;96f0	00 	.
3621  96F1 00           	nop			;96f1	00 	.
3622  96F2 00           	nop			;96f2	00 	.
3623  96F3 00           	nop			;96f3	00 	.
3624  96F4 00           	nop			;96f4	00 	.
3625  96F5 00           	nop			;96f5	00 	.
3626  96F6 00           	nop			;96f6	00 	.
3627  96F7 00           	nop			;96f7	00 	.
3628  96F8 00           	nop			;96f8	00 	.
3629  96F9 00           	nop			;96f9	00 	.
3630  96FA 00           	nop			;96fa	00 	.
3631  96FB 00           	nop			;96fb	00 	.
3632  96FC 00           	nop			;96fc	00 	.
3633  96FD 00           	nop			;96fd	00 	.
3634  96FE 00           	nop			;96fe	00 	.
3635  96FF 00           	nop			;96ff	00 	.
3636  9700 00           	nop			;9700	00 	.
3637  9701 00           	nop			;9701	00 	.
3638  9702 00           	nop			;9702	00 	.
3639  9703 00           	nop			;9703	00 	.
3640  9704 00           	nop			;9704	00 	.
3641  9705 00           	nop			;9705	00 	.
3642  9706 00           	nop			;9706	00 	.
3643  9707 00           	nop			;9707	00 	.
3644  9708              l9708h:
3645  9708 00           	nop			;9708	00 	.
3646  9709 00           	nop			;9709	00 	.
3647  970A 00           	nop			;970a	00 	.
3648  970B 00           	nop			;970b	00 	.
3649  970C 00           	nop			;970c	00 	.
3650  970D 00           	nop			;970d	00 	.
3651  970E 00           	nop			;970e	00 	.
3652  970F 00           	nop			;970f	00 	.
3653  9710 00           	nop			;9710	00 	.
3654  9711 00           	nop			;9711	00 	.
3655  9712              l9712h:
3656  9712 21 1A 78     	ld hl,0781ah		;9712	21 1a 78 	! . x
3657  9715 3E 09        	ld a,009h		;9715	3e 09 	> .
3658  9717 77           	ld (hl),a			;9717	77 	w
3659  9718 23           	inc hl			;9718	23 	#
3660  9719 77           	ld (hl),a			;9719	77 	w
3661  971A 23           	inc hl			;971a	23 	#
3662  971B 77           	ld (hl),a			;971b	77 	w
3663  971C 3A 33 78     	ld a,(07833h)		;971c	3a 33 78 	: 3 x
3664  971F B7           	or a			;971f	b7 	.
3665  9720 28 06        	jr z,l9728h		;9720	28 06 	( .
3666  9722 47           	ld b,a			;9722	47 	G
3667  9723              l9723h:
3668  9723 CD 70 97     	call sub_9770h		;9723	cd 70 97 	. p .
3669  9726 10 FB        	djnz l9723h		;9726	10 fb 	. .
3670  9728              l9728h:
3671  9728 3A 32 78     	ld a,(07832h)		;9728	3a 32 78 	: 2 x
3672  972B B7           	or a			;972b	b7 	.
3673  972C 28 06        	jr z,l9734h		;972c	28 06 	( .
3674  972E 47           	ld b,a			;972e	47 	G
3675  972F              l972fh:
3676  972F CD 6D 97     	call sub_976dh		;972f	cd 6d 97 	. m .
3677  9732 10 FB        	djnz l972fh		;9732	10 fb 	. .
3678  9734              l9734h:
3679  9734 3A 31 78     	ld a,(07831h)		;9734	3a 31 78 	: 1 x
3680  9737 B7           	or a			;9737	b7 	.
3681  9738 28 06        	jr z,l9740h		;9738	28 06 	( .
3682  973A 47           	ld b,a			;973a	47 	G
3683  973B              l973bh:
3684  973B CD 64 97     	call sub_9764h		;973b	cd 64 97 	. d .
3685  973E 10 FB        	djnz l973bh		;973e	10 fb 	. .
3686  9740              l9740h:
3687  9740 3A 30 78     	ld a,(07830h)		;9740	3a 30 78 	: 0 x
3688  9743 B7           	or a			;9743	b7 	.
3689  9744 28 06        	jr z,l974ch		;9744	28 06 	( .
3690  9746 47           	ld b,a			;9746	47 	G
3691  9747              l9747h:
3692  9747 CD 61 97     	call sub_9761h		;9747	cd 61 97 	. a .
3693  974A 10 FB        	djnz l9747h		;974a	10 fb 	. .
3694  974C              l974ch:
3695  974C 21 2F 78     	ld hl,0782fh		;974c	21 2f 78 	! / x
3696  974F 3A 1D 78     	ld a,(0781dh)		;974f	3a 1d 78 	: . x
3697  9752 86           	add a,(hl)			;9752	86 	.
3698  9753 32 1D 78     	ld (0781dh),a		;9753	32 1d 78 	2 . x
3699  9756 11 30 78     	ld de,07830h		;9756	11 30 78 	. 0 x
3700  9759 01 04 00     	ld bc,00004h		;9759	01 04 00 	. . .
3701  975C 36 00        	ld (hl),000h		;975c	36 00 	6 .
3702  975E ED B0        	ldir		;975e	ed b0 	. .
3703  9760 C9           	ret			;9760	c9 	.
3704  9761              sub_9761h:
3705  9761 CD 79 97     	call sub_9779h		;9761	cd 79 97 	. y .
3706  9764              sub_9764h:
3707  9764 CD 74 97     	call l9774h		;9764	cd 74 97 	. t .
3708  9767 CD 74 97     	call l9774h		;9767	cd 74 97 	. t .
3709  976A CD 74 97     	call l9774h		;976a	cd 74 97 	. t .
3710  976D              sub_976dh:
3711  976D CD 74 97     	call l9774h		;976d	cd 74 97 	. t .
3712  9770              sub_9770h:
3713  9770 CD 74 97     	call l9774h		;9770	cd 74 97 	. t .
3714  9773 C9           	ret			;9773	c9 	.
3715  9774              l9774h:
3716  9774 21 14 78     	ld hl,07814h		;9774	21 14 78 	! . x
3717  9777 18 03        	jr l977ch		;9777	18 03 	. .
3718  9779              sub_9779h:
3719  9779 21 13 78     	ld hl,07813h		;9779	21 13 78 	! . x
3720  977C              l977ch:
3721  977C 3E 0A        	ld a,00ah		;977c	3e 0a 	> .
3722  977E 34           	inc (hl)			;977e	34 	4
3723  977F BE           	cp (hl)			;977f	be 	.
3724  9780 C0           	ret nz			;9780	c0 	.
3725  9781 36 00        	ld (hl),000h		;9781	36 00 	6 .
3726  9783 2B           	dec hl			;9783	2b 	+
3727  9784 18 F6        	jr l977ch		;9784	18 f6 	. .
3728  9786              l9786h:
3729  9786 ED 4B 09 79  	ld bc,(07909h)		;9786	ed 4b 09 79 	. K . y
3730  978A 0B           	dec bc			;978a	0b 	.
3731  978B ED 43 09 79  	ld (07909h),bc		;978b	ed 43 09 79 	. C . y
3732  978F 78           	ld a,b			;978f	78 	x
3733  9790 B1           	or c			;9790	b1 	.
3734  9791 20 67        	jr nz,l97fah		;9791	20 67 	  g
3735  9793 01 B8 0B     	ld bc,00bb8h		;9793	01 b8 0b 	. . .
3736  9796 ED 43 09 79  	ld (07909h),bc		;9796	ed 43 09 79 	. C . y
3737  979A 21 19 78     	ld hl,07819h		;979a	21 19 78 	! . x
3738  979D 3E 0A        	ld a,00ah		;979d	3e 0a 	> .
3739  979F 34           	inc (hl)			;979f	34 	4
3740  97A0 BE           	cp (hl)			;97a0	be 	.
3741  97A1 20 57        	jr nz,l97fah		;97a1	20 57 	  W
3742  97A3 36 00        	ld (hl),000h		;97a3	36 00 	6 .
3743  97A5 2B           	dec hl			;97a5	2b 	+
3744  97A6 3E 06        	ld a,006h		;97a6	3e 06 	> .
3745  97A8 34           	inc (hl)			;97a8	34 	4
3746  97A9 BE           	cp (hl)			;97a9	be 	.
3747  97AA 20 4E        	jr nz,l97fah		;97aa	20 4e 	  N
3748  97AC 36 00        	ld (hl),000h		;97ac	36 00 	6 .
3749  97AE 2B           	dec hl			;97ae	2b 	+
3750  97AF 34           	inc (hl)			;97af	34 	4
3751  97B0 3E 06        	ld a,006h		;97b0	3e 06 	> .
3752  97B2 BE           	cp (hl)			;97b2	be 	.
3753  97B3 20 45        	jr nz,l97fah		;97b3	20 45 	  E
3754  97B5 18 3F        	jr l97f6h		;97b5	18 3f 	. ?
3755  97B7              l97b7h:
3756  97B7 ED 4B 0B 79  	ld bc,(0790bh)		;97b7	ed 4b 0b 79 	. K . y
3757  97BB 0B           	dec bc			;97bb	0b 	.
3758  97BC ED 43 0B 79  	ld (0790bh),bc		;97bc	ed 43 0b 79 	. C . y
3759  97C0 78           	ld a,b			;97c0	78 	x
3760  97C1 B1           	or c			;97c1	b1 	.
3761  97C2 20 36        	jr nz,l97fah		;97c2	20 36 	  6
3762  97C4 21 A3 01     	ld hl,001a3h		;97c4	21 a3 01 	! . .
3763  97C7 01 14 00     	ld bc,00014h		;97c7	01 14 00 	. . .
3764  97CA 3A 2F 78     	ld a,(0782fh)		;97ca	3a 2f 78 	: / x
3765  97CD 3C           	inc a			;97cd	3c 	<
3766  97CE              l97ceh:
3767  97CE 3D           	dec a			;97ce	3d 	=
3768  97CF 28 09        	jr z,l97dah		;97cf	28 09 	( .
3769  97D1 B7           	or a			;97d1	b7 	.
3770  97D2 ED 42        	sbc hl,bc		;97d2	ed 42 	. B
3771  97D4 F2 CE 97     	jp p,l97ceh		;97d4	f2 ce 97 	. . .
3772  97D7 21 05 00     	ld hl,00005h		;97d7	21 05 00 	! . .
3773  97DA              l97dah:
3774  97DA 22 0B 79     	ld (0790bh),hl		;97da	22 0b 79 	" . y
3775  97DD 21 1C 78     	ld hl,0781ch		;97dd	21 1c 78 	! . x
3776  97E0 3E FF        	ld a,0ffh		;97e0	3e ff 	> .
3777  97E2 35           	dec (hl)			;97e2	35 	5
3778  97E3 BE           	cp (hl)			;97e3	be 	.
3779  97E4 20 14        	jr nz,l97fah		;97e4	20 14 	  .
3780  97E6 36 09        	ld (hl),009h		;97e6	36 09 	6 .
3781  97E8 2B           	dec hl			;97e8	2b 	+
3782  97E9 35           	dec (hl)			;97e9	35 	5
3783  97EA BE           	cp (hl)			;97ea	be 	.
3784  97EB 20 0D        	jr nz,l97fah		;97eb	20 0d 	  .
3785  97ED 36 09        	ld (hl),009h		;97ed	36 09 	6 .
3786  97EF 2B           	dec hl			;97ef	2b 	+
3787  97F0 35           	dec (hl)			;97f0	35 	5
3788  97F1 BE           	cp (hl)			;97f1	be 	.
3789  97F2 20 06        	jr nz,l97fah		;97f2	20 06 	  .
3790  97F4 36 09        	ld (hl),009h		;97f4	36 09 	6 .
3791  97F6              l97f6h:
3792  97F6 3E 01        	ld a,001h		;97f6	3e 01 	> .
3793  97F8 B7           	or a			;97f8	b7 	.
3794  97F9 C9           	ret			;97f9	c9 	.
3795  97FA              l97fah:
3796  97FA AF           	xor a			;97fa	af 	.
3797  97FB C9           	ret			;97fb	c9 	.
3798  97FC              l97fch:
3799  97FC 21 38 B6     	ld hl,0b638h		;97fc	21 38 b6 	! 8 .
3800  97FF 11 39 B6     	ld de,0b639h		;97ff	11 39 b6 	. 9 .
3801  9802 01 1F 00     	ld bc,0001fh		;9802	01 1f 00 	. . .
3802  9805 36 20        	ld (hl),020h		;9805	36 20 	6
3803  9807 ED B0        	ldir		;9807	ed b0 	. .
3804  9809 3E 21        	ld a,021h		;9809	3e 21 	> !
3805  980B 32 58 B6     	ld (0b658h),a		;980b	32 58 b6 	2 X .
3806  980E 21 38 B6     	ld hl,0b638h		;980e	21 38 b6 	! 8 .
3807  9811 3A 03 78     	ld a,(07803h)		;9811	3a 03 78 	: . x
3808  9814 CD 74 98     	call sub_9874h		;9814	cd 74 98 	. t .
3809  9817 23           	inc hl			;9817	23 	#
3810  9818 3A 07 78     	ld a,(07807h)		;9818	3a 07 78 	: . x
3811  981B CD 74 98     	call sub_9874h		;981b	cd 74 98 	. t .
3812  981E 23           	inc hl			;981e	23 	#
3813  981F 3A 0B 78     	ld a,(0780bh)		;981f	3a 0b 78 	: . x
3814  9822 CD 74 98     	call sub_9874h		;9822	cd 74 98 	. t .
3815  9825 23           	inc hl			;9825	23 	#
3816  9826 3A 0F 78     	ld a,(0780fh)		;9826	3a 0f 78 	: . x
3817  9829 CD 74 98     	call sub_9874h		;9829	cd 74 98 	. t .
3818  982C 23           	inc hl			;982c	23 	#
3819  982D 23           	inc hl			;982d	23 	#
3820  982E 11 1A 78     	ld de,0781ah		;982e	11 1a 78 	. . x
3821  9831 EB           	ex de,hl			;9831	eb 	.
3822  9832 01 03 00     	ld bc,00003h		;9832	01 03 00 	. . .
3823  9835 ED B0        	ldir		;9835	ed b0 	. .
3824  9837 13           	inc de			;9837	13 	.
3825  9838 13           	inc de			;9838	13 	.
3826  9839 21 12 78     	ld hl,07812h		;9839	21 12 78 	! . x
3827  983C 01 05 00     	ld bc,00005h		;983c	01 05 00 	. . .
3828  983F ED B0        	ldir		;983f	ed b0 	. .
3829  9841 13           	inc de			;9841	13 	.
3830  9842 13           	inc de			;9842	13 	.
3831  9843 3A 11 78     	ld a,(07811h)		;9843	3a 11 78 	: . x
3832  9846 12           	ld (de),a			;9846	12 	.
3833  9847 13           	inc de			;9847	13 	.
3834  9848 13           	inc de			;9848	13 	.
3835  9849 13           	inc de			;9849	13 	.
3836  984A 21 17 78     	ld hl,07817h		;984a	21 17 78 	! . x
3837  984D 01 01 00     	ld bc,00001h		;984d	01 01 00 	. . .
3838  9850 ED B0        	ldir		;9850	ed b0 	. .
3839  9852 03           	inc bc			;9852	03 	.
3840  9853 03           	inc bc			;9853	03 	.
3841  9854 13           	inc de			;9854	13 	.
3842  9855 ED B0        	ldir		;9855	ed b0 	. .
3843  9857 3E 14        	ld a,014h		;9857	3e 14 	> .
3844  9859 32 CF AA     	ld (0aacfh),a		;9859	32 cf aa 	2 . .
3845  985C 32 27 AB     	ld (0ab27h),a		;985c	32 27 ab 	2 ' .
3846  985F 21 38 B6     	ld hl,0b638h		;985f	21 38 b6 	! 8 .
3847  9862 11 86 AA     	ld de,0aa86h		;9862	11 86 aa 	. . .
3848  9865              l9865h:
3849  9865 7E           	ld a,(hl)			;9865	7e 	~
3850  9866 FE 21        	cp 021h		;9866	fe 21 	. !
3851  9868 C8           	ret z			;9868	c8 	.
3852  9869 E5           	push hl			;9869	e5 	.
3853  986A FE 20        	cp 020h		;986a	fe 20 	.
3854  986C C4 89 98     	call nz,sub_9889h		;986c	c4 89 98 	. . .
3855  986F E1           	pop hl			;986f	e1 	.
3856  9870 13           	inc de			;9870	13 	.
3857  9871 23           	inc hl			;9871	23 	#
3858  9872 18 F1        	jr l9865h		;9872	18 f1 	. .
3859  9874              sub_9874h:
3860  9874 FE 0A        	cp 00ah		;9874	fe 0a 	. .
3861  9876 FA 85 98     	jp m,l9885h		;9876	fa 85 98 	. . .
3862  9879 36 01        	ld (hl),001h		;9879	36 01 	6 .
3863  987B D6 0A        	sub 00ah		;987b	d6 0a 	. .
3864  987D FE 0A        	cp 00ah		;987d	fe 0a 	. .
3865  987F FA 85 98     	jp m,l9885h		;987f	fa 85 98 	. . .
3866  9882 34           	inc (hl)			;9882	34 	4
3867  9883 D6 0A        	sub 00ah		;9883	d6 0a 	. .
3868  9885              l9885h:
3869  9885 23           	inc hl			;9885	23 	#
3870  9886 77           	ld (hl),a			;9886	77 	w
3871  9887 23           	inc hl			;9887	23 	#
3872  9888 C9           	ret			;9888	c9 	.
3873  9889              sub_9889h:
3874  9889 21 AD 98     	ld hl,l98adh		;9889	21 ad 98 	! . .
3875  988C D5           	push de			;988c	d5 	.
3876  988D 11 06 00     	ld de,00006h		;988d	11 06 00 	. . .
3877  9890 3C           	inc a			;9890	3c 	<
3878  9891              l9891h:
3879  9891 3D           	dec a			;9891	3d 	=
3880  9892 28 03        	jr z,l9897h		;9892	28 03 	( .
3881  9894 19           	add hl,de			;9894	19 	.
3882  9895 18 FA        	jr l9891h		;9895	18 fa 	. .
3883  9897              l9897h:
3884  9897 D1           	pop de			;9897	d1 	.
3885  9898 D5           	push de			;9898	d5 	.
3886  9899 EB           	ex de,hl			;9899	eb 	.
3887  989A ED 4B AB 98  	ld bc,(l98abh)		;989a	ed 4b ab 98 	. K . .
3888  989E 3E 05        	ld a,005h		;989e	3e 05 	> .
3889  98A0              l98a0h:
3890  98A0 F5           	push af			;98a0	f5 	.
3891  98A1 1A           	ld a,(de)			;98a1	1a 	.
3892  98A2 77           	ld (hl),a			;98a2	77 	w
3893  98A3 13           	inc de			;98a3	13 	.
3894  98A4 09           	add hl,bc			;98a4	09 	.
3895  98A5 F1           	pop af			;98a5	f1 	.
3896  98A6 3D           	dec a			;98a6	3d 	=
3897  98A7 20 F7        	jr nz,l98a0h		;98a7	20 f7 	  .
3898  98A9 D1           	pop de			;98a9	d1 	.
3899  98AA C9           	ret			;98aa	c9 	.
3900  98AB              l98abh:
3901  98AB 00           	nop			;98ab	00 	.
3902  98AC 00           	nop			;98ac	00 	.
3903  98AD              l98adh:
3904  98AD 54           	ld d,h			;98ad	54 	T
3905  98AE 44           	ld b,h			;98ae	44 	D
3906  98AF 44           	ld b,h			;98af	44 	D
3907  98B0 44           	ld b,h			;98b0	44 	D
3908  98B1 54           	ld d,h			;98b1	54 	T
3909  98B2 00           	nop			;98b2	00 	.
3910  98B3 10 50        	djnz $+82		;98b3	10 50 	. P
3911  98B5 10 10        	djnz l98c7h		;98b5	10 10 	. .
3912  98B7 54           	ld d,h			;98b7	54 	T
3913  98B8 00           	nop			;98b8	00 	.
3914  98B9 54           	ld d,h			;98b9	54 	T
3915  98BA 04           	inc b			;98ba	04 	.
3916  98BB 54           	ld d,h			;98bb	54 	T
3917  98BC 40           	ld b,b			;98bc	40 	@
3918  98BD 54           	ld d,h			;98bd	54 	T
3919  98BE 00           	nop			;98be	00 	.
3920  98BF 54           	ld d,h			;98bf	54 	T
3921  98C0 04           	inc b			;98c0	04 	.
3922  98C1 14           	inc d			;98c1	14 	.
3923  98C2 04           	inc b			;98c2	04 	.
3924  98C3 54           	ld d,h			;98c3	54 	T
3925  98C4 00           	nop			;98c4	00 	.
3926  98C5 40           	ld b,b			;98c5	40 	@
3927  98C6 40           	ld b,b			;98c6	40 	@
3928  98C7              l98c7h:
3929  98C7 44           	ld b,h			;98c7	44 	D
3930  98C8 54           	ld d,h			;98c8	54 	T
3931  98C9 04           	inc b			;98c9	04 	.
3932  98CA 00           	nop			;98ca	00 	.
3933  98CB 54           	ld d,h			;98cb	54 	T
3934  98CC 40           	ld b,b			;98cc	40 	@
3935  98CD 54           	ld d,h			;98cd	54 	T
3936  98CE 04           	inc b			;98ce	04 	.
3937  98CF 54           	ld d,h			;98cf	54 	T
3938  98D0 00           	nop			;98d0	00 	.
3939  98D1 54           	ld d,h			;98d1	54 	T
3940  98D2 40           	ld b,b			;98d2	40 	@
3941  98D3 54           	ld d,h			;98d3	54 	T
3942  98D4 44           	ld b,h			;98d4	44 	D
3943  98D5 54           	ld d,h			;98d5	54 	T
3944  98D6 00           	nop			;98d6	00 	.
3945  98D7 54           	ld d,h			;98d7	54 	T
3946  98D8 04           	inc b			;98d8	04 	.
3947  98D9 04           	inc b			;98d9	04 	.
3948  98DA 04           	inc b			;98da	04 	.
3949  98DB 04           	inc b			;98db	04 	.
3950  98DC 00           	nop			;98dc	00 	.
3951  98DD 54           	ld d,h			;98dd	54 	T
3952  98DE 44           	ld b,h			;98de	44 	D
3953  98DF 54           	ld d,h			;98df	54 	T
3954  98E0 44           	ld b,h			;98e0	44 	D
3955  98E1 54           	ld d,h			;98e1	54 	T
3956  98E2 00           	nop			;98e2	00 	.
3957  98E3 54           	ld d,h			;98e3	54 	T
3958  98E4 44           	ld b,h			;98e4	44 	D
3959  98E5 54           	ld d,h			;98e5	54 	T
3960  98E6 04           	inc b			;98e6	04 	.
3961  98E7 54           	ld d,h			;98e7	54 	T
3962  98E8 00           	nop			;98e8	00 	.
3963  98E9              sub_98e9h:
3964  98E9 FE 2E        	cp 02eh		;98e9	fe 2e 	. .
3965  98EB 28 37        	jr z,l9924h		;98eb	28 37 	( 7
3966  98ED FE 2C        	cp 02ch		;98ed	fe 2c 	. ,
3967  98EF 28 2C        	jr z,l991dh		;98ef	28 2c 	( ,
3968  98F1 FE 3D        	cp 03dh		;98f1	fe 3d 	. =
3969  98F3 28 21        	jr z,l9916h		;98f3	28 21 	( !
3970  98F5 FE 20        	cp 020h		;98f5	fe 20 	.
3971  98F7 28 32        	jr z,l992bh		;98f7	28 32 	( 2
3972  98F9 FE 30        	cp 030h		;98f9	fe 30 	. 0
3973  98FB F8           	ret m			;98fb	f8 	.
3974  98FC FE 3A        	cp 03ah		;98fc	fe 3a 	. :
3975  98FE FA 0E 99     	jp m,l990eh		;98fe	fa 0e 99 	. . .
3976  9901 FE 41        	cp 041h		;9901	fe 41 	. A
3977  9903 F8           	ret m			;9903	f8 	.
3978  9904 FE 5B        	cp 05bh		;9904	fe 5b 	. [
3979  9906 F0           	ret p			;9906	f0 	.
3980  9907 D6 40        	sub 040h		;9907	d6 40 	. @
3981  9909 21 6C 99     	ld hl,l996ch		;9909	21 6c 99 	! l .
3982  990C 18 22        	jr l9930h		;990c	18 22 	. "
3983  990E              l990eh:
3984  990E 21 AD 98     	ld hl,l98adh		;990e	21 ad 98 	! . .
3985  9911 D6 2F        	sub 02fh		;9911	d6 2f 	. /
3986  9913 C3 30 99     	jp l9930h		;9913	c3 30 99 	. 0 .
3987  9916              l9916h:
3988  9916 3E 01        	ld a,001h		;9916	3e 01 	> .
3989  9918 21 08 9A     	ld hl,l9a08h		;9918	21 08 9a 	! . .
3990  991B 18 13        	jr l9930h		;991b	18 13 	. .
3991  991D              l991dh:
3992  991D 3E 01        	ld a,001h		;991d	3e 01 	> .
3993  991F 21 14 9A     	ld hl,l9a14h		;991f	21 14 9a 	! . .
3994  9922 18 0C        	jr l9930h		;9922	18 0c 	. .
3995  9924              l9924h:
3996  9924 3E 01        	ld a,001h		;9924	3e 01 	> .
3997  9926 21 0E 9A     	ld hl,l9a0eh		;9926	21 0e 9a 	! . .
3998  9929 18 05        	jr l9930h		;9929	18 05 	. .
3999  992B              l992bh:
4000  992B 3E 01        	ld a,001h		;992b	3e 01 	> .
4001  992D 21 1A 9A     	ld hl,l9a1ah		;992d	21 1a 9a 	! . .
4002  9930              l9930h:
4003  9930 D5           	push de			;9930	d5 	.
4004  9931 11 06 00     	ld de,00006h		;9931	11 06 00 	. . .
4005  9934              l9934h:
4006  9934 3D           	dec a			;9934	3d 	=
4007  9935 28 03        	jr z,l993ah		;9935	28 03 	( .
4008  9937 19           	add hl,de			;9937	19 	.
4009  9938 18 FA        	jr l9934h		;9938	18 fa 	. .
4010  993A              l993ah:
4011  993A D1           	pop de			;993a	d1 	.
4012  993B EB           	ex de,hl			;993b	eb 	.
4013  993C 01 20 00     	ld bc,00020h		;993c	01 20 00 	.   .
4014  993F 3E 06        	ld a,006h		;993f	3e 06 	> .
4015  9941              l9941h:
4016  9941 F5           	push af			;9941	f5 	.
4017  9942 1A           	ld a,(de)			;9942	1a 	.
4018  9943 77           	ld (hl),a			;9943	77 	w
4019  9944 13           	inc de			;9944	13 	.
4020  9945 09           	add hl,bc			;9945	09 	.
4021  9946 F1           	pop af			;9946	f1 	.
4022  9947 3D           	dec a			;9947	3d 	=
4023  9948 20 F7        	jr nz,l9941h		;9948	20 f7 	  .
4024  994A C9           	ret			;994a	c9 	.
4025  994B              l994bh:
4026  994B D5           	push de			;994b	d5 	.
4027  994C              l994ch:
4028  994C 7E           	ld a,(hl)			;994c	7e 	~
4029  994D B7           	or a			;994d	b7 	.
4030  994E 28 0F        	jr z,l995fh		;994e	28 0f 	( .
4031  9950 FE 0D        	cp 00dh		;9950	fe 0d 	. .
4032  9952 28 0D        	jr z,l9961h		;9952	28 0d 	( .
4033  9954 E5           	push hl			;9954	e5 	.
4034  9955 D5           	push de			;9955	d5 	.
4035  9956 CD E9 98     	call sub_98e9h		;9956	cd e9 98 	. . .
4036  9959 D1           	pop de			;9959	d1 	.
4037  995A E1           	pop hl			;995a	e1 	.
4038  995B 13           	inc de			;995b	13 	.
4039  995C 23           	inc hl			;995c	23 	#
4040  995D 18 ED        	jr l994ch		;995d	18 ed 	. .
4041  995F              l995fh:
4042  995F D1           	pop de			;995f	d1 	.
4043  9960 C9           	ret			;9960	c9 	.
4044  9961              l9961h:
4045  9961 D1           	pop de			;9961	d1 	.
4046  9962 E5           	push hl			;9962	e5 	.
4047  9963 21 C0 00     	ld hl,000c0h		;9963	21 c0 00 	! . .
4048  9966 19           	add hl,de			;9966	19 	.
4049  9967 EB           	ex de,hl			;9967	eb 	.
4050  9968 E1           	pop hl			;9968	e1 	.
4051  9969 23           	inc hl			;9969	23 	#
4052  996A 18 DF        	jr l994bh		;996a	18 df 	. .
4053  996C              l996ch:
4054  996C 10 44        	djnz l99b2h		;996c	10 44 	. D
4055  996E 54           	ld d,h			;996e	54 	T
4056  996F 44           	ld b,h			;996f	44 	D
4057  9970 44           	ld b,h			;9970	44 	D
4058  9971 00           	nop			;9971	00 	.
4059  9972 50           	ld d,b			;9972	50 	P
4060  9973 44           	ld b,h			;9973	44 	D
4061  9974 50           	ld d,b			;9974	50 	P
4062  9975 44           	ld b,h			;9975	44 	D
4063  9976 50           	ld d,b			;9976	50 	P
4064  9977 00           	nop			;9977	00 	.
4065  9978 10 44        	djnz l99beh		;9978	10 44 	. D
4066  997A 40           	ld b,b			;997a	40 	@
4067  997B 44           	ld b,h			;997b	44 	D
4068  997C 10 00        	djnz l997eh		;997c	10 00 	. .
4069  997E              l997eh:
4070  997E 50           	ld d,b			;997e	50 	P
4071  997F 44           	ld b,h			;997f	44 	D
4072  9980 44           	ld b,h			;9980	44 	D
4073  9981 44           	ld b,h			;9981	44 	D
4074  9982 50           	ld d,b			;9982	50 	P
4075  9983 00           	nop			;9983	00 	.
4076  9984 54           	ld d,h			;9984	54 	T
4077  9985 40           	ld b,b			;9985	40 	@
4078  9986 50           	ld d,b			;9986	50 	P
4079  9987 40           	ld b,b			;9987	40 	@
4080  9988 54           	ld d,h			;9988	54 	T
4081  9989 00           	nop			;9989	00 	.
4082  998A 54           	ld d,h			;998a	54 	T
4083  998B 40           	ld b,b			;998b	40 	@
4084  998C 50           	ld d,b			;998c	50 	P
4085  998D 40           	ld b,b			;998d	40 	@
4086  998E 40           	ld b,b			;998e	40 	@
4087  998F 00           	nop			;998f	00 	.
4088  9990 10 44        	djnz l99d6h		;9990	10 44 	. D
4089  9992 40           	ld b,b			;9992	40 	@
4090  9993 14           	inc d			;9993	14 	.
4091  9994 04           	inc b			;9994	04 	.
4092  9995 00           	nop			;9995	00 	.
4093  9996 44           	ld b,h			;9996	44 	D
4094  9997 44           	ld b,h			;9997	44 	D
4095  9998 54           	ld d,h			;9998	54 	T
4096  9999 44           	ld b,h			;9999	44 	D
4097  999A 44           	ld b,h			;999a	44 	D
4098  999B 00           	nop			;999b	00 	.
4099  999C 54           	ld d,h			;999c	54 	T
4100  999D 10 10        	djnz l99afh		;999d	10 10 	. .
4101  999F 10 54        	djnz l99f5h		;999f	10 54 	. T
4102  99A1 00           	nop			;99a1	00 	.
4103  99A2 04           	inc b			;99a2	04 	.
4104  99A3 04           	inc b			;99a3	04 	.
4105  99A4 04           	inc b			;99a4	04 	.
4106  99A5 44           	ld b,h			;99a5	44 	D
4107  99A6 10 00        	djnz l99a8h		;99a6	10 00 	. .
4108  99A8              l99a8h:
4109  99A8 44           	ld b,h			;99a8	44 	D
4110  99A9 44           	ld b,h			;99a9	44 	D
4111  99AA 50           	ld d,b			;99aa	50 	P
4112  99AB 44           	ld b,h			;99ab	44 	D
4113  99AC 44           	ld b,h			;99ac	44 	D
4114  99AD 00           	nop			;99ad	00 	.
4115  99AE 40           	ld b,b			;99ae	40 	@
4116  99AF              l99afh:
4117  99AF 40           	ld b,b			;99af	40 	@
4118  99B0 40           	ld b,b			;99b0	40 	@
4119  99B1 40           	ld b,b			;99b1	40 	@
4120  99B2              l99b2h:
4121  99B2 54           	ld d,h			;99b2	54 	T
4122  99B3 00           	nop			;99b3	00 	.
4123  99B4 44           	ld b,h			;99b4	44 	D
4124  99B5 54           	ld d,h			;99b5	54 	T
4125  99B6 44           	ld b,h			;99b6	44 	D
4126  99B7 44           	ld b,h			;99b7	44 	D
4127  99B8 44           	ld b,h			;99b8	44 	D
4128  99B9 00           	nop			;99b9	00 	.
4129  99BA 44           	ld b,h			;99ba	44 	D
4130  99BB 54           	ld d,h			;99bb	54 	T
4131  99BC 54           	ld d,h			;99bc	54 	T
4132  99BD 54           	ld d,h			;99bd	54 	T
4133  99BE              l99beh:
4134  99BE 44           	ld b,h			;99be	44 	D
4135  99BF 00           	nop			;99bf	00 	.
4136  99C0 10 44        	djnz l9a06h		;99c0	10 44 	. D
4137  99C2 44           	ld b,h			;99c2	44 	D
4138  99C3 44           	ld b,h			;99c3	44 	D
4139  99C4 10 00        	djnz l99c6h		;99c4	10 00 	. .
4140  99C6              l99c6h:
4141  99C6 50           	ld d,b			;99c6	50 	P
4142  99C7 44           	ld b,h			;99c7	44 	D
4143  99C8 50           	ld d,b			;99c8	50 	P
4144  99C9 40           	ld b,b			;99c9	40 	@
4145  99CA 40           	ld b,b			;99ca	40 	@
4146  99CB 00           	nop			;99cb	00 	.
4147  99CC 10 44        	djnz l9a12h		;99cc	10 44 	. D
4148  99CE 44           	ld b,h			;99ce	44 	D
4149  99CF 54           	ld d,h			;99cf	54 	T
4150  99D0 04           	inc b			;99d0	04 	.
4151  99D1 00           	nop			;99d1	00 	.
4152  99D2 50           	ld d,b			;99d2	50 	P
4153  99D3 44           	ld b,h			;99d3	44 	D
4154  99D4 50           	ld d,b			;99d4	50 	P
4155  99D5 44           	ld b,h			;99d5	44 	D
4156  99D6              l99d6h:
4157  99D6 44           	ld b,h			;99d6	44 	D
4158  99D7 00           	nop			;99d7	00 	.
4159  99D8 14           	inc d			;99d8	14 	.
4160  99D9 40           	ld b,b			;99d9	40 	@
4161  99DA 10 04        	djnz $+6		;99da	10 04 	. .
4162  99DC 50           	ld d,b			;99dc	50 	P
4163  99DD 00           	nop			;99dd	00 	.
4164  99DE 54           	ld d,h			;99de	54 	T
4165  99DF 10 10        	djnz l99f1h		;99df	10 10 	. .
4166  99E1 10 10        	djnz l99f3h		;99e1	10 10 	. .
4167  99E3 00           	nop			;99e3	00 	.
4168  99E4 44           	ld b,h			;99e4	44 	D
4169  99E5 44           	ld b,h			;99e5	44 	D
4170  99E6 44           	ld b,h			;99e6	44 	D
4171  99E7 44           	ld b,h			;99e7	44 	D
4172  99E8 10 00        	djnz l99eah		;99e8	10 00 	. .
4173  99EA              l99eah:
4174  99EA 44           	ld b,h			;99ea	44 	D
4175  99EB 44           	ld b,h			;99eb	44 	D
4176  99EC 44           	ld b,h			;99ec	44 	D
4177  99ED 10 10        	djnz $+18		;99ed	10 10 	. .
4178  99EF 00           	nop			;99ef	00 	.
4179  99F0 44           	ld b,h			;99f0	44 	D
4180  99F1              l99f1h:
4181  99F1 44           	ld b,h			;99f1	44 	D
4182  99F2 44           	ld b,h			;99f2	44 	D
4183  99F3              l99f3h:
4184  99F3 54           	ld d,h			;99f3	54 	T
4185  99F4 44           	ld b,h			;99f4	44 	D
4186  99F5              l99f5h:
4187  99F5 00           	nop			;99f5	00 	.
4188  99F6 44           	ld b,h			;99f6	44 	D
4189  99F7 44           	ld b,h			;99f7	44 	D
4190  99F8 10 44        	defb $10,$44		;99f8	10 44 	. D
4191  99FA 44           	ld b,h			;99fa	44 	D
4192  99FB 00           	nop			;99fb	00 	.
4193  99FC 44           	ld b,h			;99fc	44 	D
4194  99FD 44           	ld b,h			;99fd	44 	D
4195  99FE 10 10        	djnz l9a10h		;99fe	10 10 	. .
4196  9A00 10 00        	djnz l9a02h		;9a00	10 00 	. .
4197  9A02              l9a02h:
4198  9A02 54           	ld d,h			;9a02	54 	T
4199  9A03 04           	inc b			;9a03	04 	.
4200  9A04 10 40        	defb $10,$40		;9a04	10 40 	. @
4201  9A06              l9a06h:
4202  9A06 54           	ld d,h			;9a06	54 	T
4203  9A07 00           	nop			;9a07	00 	.
4204  9A08              l9a08h:
4205  9A08 00           	nop			;9a08	00 	.
4206  9A09 54           	ld d,h			;9a09	54 	T
4207  9A0A 00           	nop			;9a0a	00 	.
4208  9A0B 54           	ld d,h			;9a0b	54 	T
4209  9A0C 00           	nop			;9a0c	00 	.
4210  9A0D 00           	nop			;9a0d	00 	.
4211  9A0E              l9a0eh:
4212  9A0E 00           	nop			;9a0e	00 	.
4213  9A0F 00           	nop			;9a0f	00 	.
4214  9A10              l9a10h:
4215  9A10 00           	nop			;9a10	00 	.
4216  9A11 50           	ld d,b			;9a11	50 	P
4217  9A12              l9a12h:
4218  9A12 50           	ld d,b			;9a12	50 	P
4219  9A13 00           	nop			;9a13	00 	.
4220  9A14              l9a14h:
4221  9A14 00           	nop			;9a14	00 	.
4222  9A15 00           	nop			;9a15	00 	.
4223  9A16 00           	nop			;9a16	00 	.
4224  9A17 50           	ld d,b			;9a17	50 	P
4225  9A18 10 00        	djnz l9a1ah		;9a18	10 00 	. .
4226  9A1A              l9a1ah:
4227  9A1A 00           	nop			;9a1a	00 	.
4228  9A1B 00           	nop			;9a1b	00 	.
4229  9A1C 00           	nop			;9a1c	00 	.
4230  9A1D 00           	nop			;9a1d	00 	.
4231  9A1E 00           	nop			;9a1e	00 	.
4232  9A1F 00           	nop			;9a1f	00 	.
4233  9A20
4234  9A20              ;***********************************************************************************************
4235  9A20              ; Clear Screen and set Graphics MODE 0 with default Color Palette
4236  9A20              CLEAR_SCREEN_TXT:
4237  9A20              ; -- fill video memory (first 512 bytes) with inverse SPACE char
4238  9A20 21 00 70     	ld hl,VRAM				; src - video memory start								;9a20	21 00 70
4239  9A23 11 01 70     	ld de,VRAM+1			; dst - next byte										;9a23	11 01 70
4240  9A26 01 FF 01     	ld bc,511				; ctn - size of video memory in MODE 0 (txt)			;9a26	01 ff 01
4241  9A29 36 60        	ld (hl),$60				; inverse SPACE char to fill the screen					;9a29	36 60
4242  9A2B ED B0        	ldir					; fill VRAM with given char (SPACE)						;9a2b	ed b0
4243  9A2D              ; -- set Video Text Mode 0, Color Palette 0
4244  9A2D AF           	xor a					; VDG Txt MODE 0 Colors (Green)							;9a2d	af
4245  9A2E 32 00 68     	ld (IOLATCH),a			; store to hardware register							;9a2e	32 00 68
4246  9A31 C9           	ret						; ----------------- End of Proc ---------------			;9a31	c9
4247  9A32
4248  9A32              ;***********************************************************************************************
4249  9A32              ; Print Text on Screen in Text Mode. Supports CR/LF char (13)
4250  9A32              ; IN: hl - null terminated text
4251  9A32              ;     de - destination VRAM address
4252  9A32              PRINT_TEXT:
4253  9A32 D5           	push de					; save de - VRAM address								;9a32	d5
4254  9A33              .NEXT_CHAR:
4255  9A33 7E           	ld a,(hl)				; a - char to display on screen							;9a33	7e
4256  9A34 B7           	or a					; check if 0 - end of text								;9a34	b7
4257  9A35 28 0B        	jr z,.EXIT				; yes ------------ End of Proc ------------------------ ;9a35	28 0b
4258  9A37 FE 0D        	cp 13					; chack if CR/LF char 									;9a37	fe 0d
4259  9A39 28 09        	jr z,.NEXT_LINE			; yes - move destination addres to next line			;9a39	28 09
4260  9A3B CB F7        	set 6,a					; set INVERSE bit for char								;9a3b	cb f7
4261  9A3D 12           	ld (de),a				; store in VRAM - display char							;9a3d	12
4262  9A3E 23           	inc hl					; hl - next char in source text							;9a3e	23
4263  9A3F 13           	inc de					; de - next VRAM destination address					;9a3f	13
4264  9A40 18 F1        	jr .NEXT_CHAR			; print next char										;9a40	18 f1
4265  9A42              .EXIT:
4266  9A42 D1           	pop de					; restore de - VRAM address								;9a42	d1
4267  9A43 C9           	ret						; ----------------- End of Proc ----------------------- ;9a43	c9
4268  9A44              .NEXT_LINE:
4269  9A44 D1           	pop de					; restore de - VRAM address of line begin				;9a44	d1
4270  9A45 E5           	push hl					; save hl - source adrress								;9a45	e5
4271  9A46 21 20 00     	ld hl,32				; 32 bytes per screen line								;9a46	21 20 00
4272  9A49 19           	add hl,de				; hl - VRAM address of next line						;9a49	19
4273  9A4A EB           	ex de,hl				; de - new destination VRAM address						;9a4a	eb
4274  9A4B E1           	pop hl					; restore hl - source address							;9a4b	e1
4275  9A4C 23           	inc hl					; hl - next char to display (skip CR/LF)				;9a4c	23
4276  9A4D 18 E3        	jr PRINT_TEXT			; print next char										;9a4d	18 e3
4277  9A4F
4278  9A4F
4279  9A4F              SHOW_MANUAL:
4280  9A4F CD 20 9A     	call CLEAR_SCREEN_TXT	; clear screen - Mode 0 (TXT)							;9a4f	cd 20 9a
4281  9A52 21 D8 9A     	ld hl,TXT_MANUAL_PAGE1	; instruction text - Page 1								;9a52	21 d8 9a
4282  9A55 11 00 70     	ld de,VRAM				; dst - screen coord (0,0)								;9a55	11 00 70
4283  9A58 CD 32 9A     	call PRINT_TEXT			; print Instruction Page 1 on screen					;9a58	cd 32 9a
4284  9A5B CD A0 9A     	call PROMPT_C_TO_CONT	; display prompt and wait for 'C' to continue			;9a5b	cd a0 9a
4285  9A5E CD 20 9A     	call CLEAR_SCREEN_TXT	; clear screen - Mode 0 (TXT)							;9a5e	cd 20 9a
4286  9A61 21 03 9C     	ld hl,TXT_MANUAL_PAGE2	; instruction text - Page 2								;9a61	21 03 9c
4287  9A64 11 20 70     	ld de,VRAM+(32*1)+0		; dst - screen coord (0,1)								;9a64	11 20 70
4288  9A67 CD 32 9A     	call PRINT_TEXT			; print Instruction Page 2 on screen					;9a67	cd 32 9a
4289  9A6A CD A0 9A     	call PROMPT_C_TO_CONT	; display prompt and wait for 'C' to continue			;9a6a	cd a0 9a
4290  9A6D CD 20 9A     	call CLEAR_SCREEN_TXT	; clear screen - Mode 0 (TXT)							;9a6d	cd 20 9a
4291  9A70 21 6E 9D     	ld hl,TXT_MANUAL_PAGE3	; instruction text - Page 3								;9a70	21 6e 9d
4292  9A73 11 20 70     	ld de,VRAM+(32*1)+0		; dst - screen coord (0,1)								;9a73	11 20 70
4293  9A76 CD 32 9A     	call PRINT_TEXT			; print Instruction Page 3 on screen					;9a76	cd 32 9a
4294  9A79 CD A0 9A     	call PROMPT_C_TO_CONT	; display prompt and wait for 'C' to continue			;9a79	cd a0 9a
4295  9A7C CD 20 9A     	call CLEAR_SCREEN_TXT	; clear screen - Mode 0 (TXT)							;9a7c	cd 20 9a
4296  9A7F 21 EB 9E     	ld hl,TXT_MANUAL_PAGE4	; instruction text - Page 4								;9a7f	21 eb 9e
4297  9A82 11 20 70     	ld de,VRAM+(32*1)+0		; dst - screen coord (0,1)								;9a82	11 20 70
4298  9A85 CD 32 9A     	call PRINT_TEXT			; print Instruction Page 4 on screen					;9a85	cd 32 9a
4299  9A88 CD A0 9A     	call PROMPT_C_TO_CONT	; display prompt and wait for 'C' to continue			;9a88	cd a0 9a
4300  9A8B CD 20 9A     	call CLEAR_SCREEN_TXT	; clear screen - Mode 0 (TXT)							;9a8b	cd 20 9a
4301  9A8E 21 1E A0     	ld hl,TXT_MANUAL_PAGE5	; instruction text - Page 5								;9a8e	21 1e a0
4302  9A91 11 20 70     	ld de,VRAM+(32*1)+0		; dst - screen coord (0,1)								;9a91	11 20 70
4303  9A94 CD 32 9A     	call PRINT_TEXT			; print Instruction Page 5 on screen					;9a94	cd 32 9a
4304  9A97 CD A0 9A     	call PROMPT_C_TO_CONT	; display prompt and wait for 'C' to continue			;9a97	cd a0 9a
4305  9A9A CD 4B 94     	call CLEAR_SCREEN_GFX	; clear screeen - Mode 1 (Gfx)							;9a9a	cd 4b 94
4306  9A9D C3 CB 8F     	jp l8fcbh		;9a9d	c3 cb 8f 	. . .
4307  9AA0
4308  9AA0              PROMPT_C_TO_CONT:
4309  9AA0 21 DC A0     	ld hl,TXT_PRESS_C_CONT	; text - Press C to Continue							;9aa0	21 dc a0
4310  9AA3 11 E0 71     	ld de,VRAM+(15*32)		; dst - screen coord (0,15) - last line					;9aa3	11 e0 71
4311  9AA6 CD 32 9A     	call PRINT_TEXT			; print text on screen									;9aa6	cd 32 9a
4312  9AA9              .WAIT_C_PRESSED:
4313  9AA9 3A FB 68     	ld a,(KEYS_ROW_2)		; select Keyboard row 2 								;9aa9	3a fb 68
4314  9AAC CB 5F        	bit 3,a					; check if key 'C' is pressed							;9aac	cb 5f
4315  9AAE 20 F9        	jr nz,.WAIT_C_PRESSED	; no - wait for press key 'C'							;9aae	20 f9
4316  9AB0              .WAIT_C_RELEASED:
4317  9AB0 3A FB 68     	ld a,(KEYS_ROW_2)		; select Keyboard row 2 								;9ab0	3a fb 68
4318  9AB3 CB 5F        	bit 3,a					; check if key 'C' is pressed							;9ab3	cb 5f
4319  9AB5 28 F9        	jr z,.WAIT_C_RELEASED	; yes - wait for release key 'C'						;9ab5	28 f9
4320  9AB7              ; -- wait delay and check again if key 'C' is released
4321  9AB7 11 00 20     	ld de,$2000				; delay parameter value 								;9ab7	11 00 20
4322  9ABA CD 1D 94     	call DELAY_DE			; wait Delay											;9aba	cd 1d 94
4323  9ABD              ; -- read keyboard again
4324  9ABD 3A FB 68     	ld a,(KEYS_ROW_2)		; select Keyboard row 2 								;9abd	3a fb 68
4325  9AC0 CB 5F        	bit 3,a					; check if key 'C' is pressed							;9ac0	cb 5f
4326  9AC2 28 EC        	jr z,.WAIT_C_RELEASED	; yes - wait for release key 'C'						;9ac2	28 ec
4327  9AC4              ; -- key is released
4328  9AC4 C9           	ret						; ---------------------- End of Proc ------------------ ;9ac4	c9
4329  9AC5
4330  9AC5
4331  9AC5              ;***********************************************************************************************
4332  9AC5              ;
4333  9AC5              ;    G A M E   T X T   D A T A
4334  9AC5              ;
4335  9AC5              ;***********************************************************************************************
4336  9AC5
4337  9AC5              	;module TXT
4338  9AC5
4339  9AC5              ;***********************************************************************************************
4340  9AC5              ; Input Settings Question text
4341  9AC5              TXT_JOYSTICK_Q:
4342  9AC5 4A 4F 59 53  	defb "JOYSTICK    Y OR N",0					;9ac5	4a 4f 59 53 54 49 43 4b 20 20 20 20 59 20 4f 52 20 4e 00
4342  9AC9 54 49 43 4B
4342  9ACD 20 20 20 20
4342  9AD1 59 20 4F 52
4342  9AD5 20 4E 00
4343  9AD8
4344  9AD8              ;***********************************************************************************************
4345  9AD8              ; Manual/Instruction Page 1 text
4346  9AD8              TXT_MANUAL_PAGE1:
4347  9AD8 0D           	defb 13										;9ad8	0d
4348  9AD9 20 20 20 20  	defb "     D A W N    P A T R O L",13		;9ad9	20 20 20 20 20 44 20 41 20 57 20 4e 20 20 20 20 50 20 41 20 54 20 52 20 4f 20 4c 0d
4348  9ADD 20 44 20 41
4348  9AE1 20 57 20 4E
4348  9AE5 20 20 20 20
4348  9AE9 50 20 41 20
4348  9AED 54 20 52 20
4348  9AF1 4F 20 4C 0D
4349  9AF5 0D           	defb 13										;9af5	0d
4350  9AF6 59 4F 55 20  	defb "YOU HAVE TO RESCUE 80 PRISONERS",13	;9af6	59 4f 55 20 48 41 56 45 20 54 4f 20 52 45 53 43 55 45 20 38 30 20 50 52 49 53 4f 4e 45 52 53 0d
4350  9AFA 48 41 56 45
4350  9AFE 20 54 4F 20
4350  9B02 52 45 53 43
4350  9B06 55 45 20 38
4350  9B0A 30 20 50 52
4350  9B0E 49 53 4F 4E
4350  9B12 45 52 53 0D
4351  9B16 46 52 4F 4D  	defb "FROM 4 ENEMY PRISON CAMPS. TO",13		;9b16	46 52 4f 4d 20 34 20 45 4e 45 4d 59 20 50 52 49 53 4f 4e 20 43 41 4d 50 53 2e 20 54 4f 0d
4351  9B1A 20 34 20 45
4351  9B1E 4E 45 4D 59
4351  9B22 20 50 52 49
4351  9B26 53 4F 4E 20
4351  9B2A 43 41 4D 50
4351  9B2E 53 2E 20 54
4351  9B32 4F 0D
4352  9B34 52 45 53 43  	defb "RESCUE PRISONERS YOU HAVE TO",13		;9b34	52 45 53 43 55 45 20 50 52 49 53 4f 4e 45 52 53 20 59 4f 55 20 48 41 56 45 20 54 4f 0d
4352  9B38 55 45 20 50
4352  9B3C 52 49 53 4F
4352  9B40 4E 45 52 53
4352  9B44 20 59 4F 55
4352  9B48 20 48 41 56
4352  9B4C 45 20 54 4F
4352  9B50 0D
4353  9B51 4C 41 4E 44  	defb "LAND IN THE PRISON ENCLOSURE.",13		;9b51	4c 41 4e 44 20 49 4e 20 54 48 45 20 50 52 49 53 4f 4e 20 45 4e 43 4c 4f 53 55 52 45 2e 0d
4353  9B55 20 49 4E 20
4353  9B59 54 48 45 20
4353  9B5D 50 52 49 53
4353  9B61 4F 4E 20 45
4353  9B65 4E 43 4C 4F
4353  9B69 53 55 52 45
4353  9B6D 2E 0D
4354  9B6F 50 52 49 53  	defb "PRISONERS WILL RUN OUT AND GET",13	;9b6f	50 52 49 53 4f 4e 45 52 53 20 57 49 4c 4c 20 52 55 4e 20 4f 55 54 20 41 4e 44 20 47 45 54 0d
4354  9B73 4F 4E 45 52
4354  9B77 53 20 57 49
4354  9B7B 4C 4C 20 52
4354  9B7F 55 4E 20 4F
4354  9B83 55 54 20 41
4354  9B87 4E 44 20 47
4354  9B8B 45 54 0D
4355  9B8E 49 4E 54 4F  	defb "INTO YOUR HELICOPTER ONCE YOU",13		;9b8e	49 4e 54 4f 20 59 4f 55 52 20 48 45 4c 49 43 4f 50 54 45 52 20 4f 4e 43 45 20 59 4f 55 0d
4355  9B92 20 59 4F 55
4355  9B96 52 20 48 45
4355  9B9A 4C 49 43 4F
4355  9B9E 50 54 45 52
4355  9BA2 20 4F 4E 43
4355  9BA6 45 20 59 4F
4355  9BAA 55 0D
4356  9BAC 48 41 56 45  	defb "HAVE LANDED. THE MORE PRISONERS",13	;9bac	48 41 56 45 20 4c 41 4e 44 45 44 2e 20 54 48 45 20 4d 4f 52 45 20 50 52 49 53 4f 4e 45 52 53 0d
4356  9BB0 20 4C 41 4E
4356  9BB4 44 45 44 2E
4356  9BB8 20 54 48 45
4356  9BBC 20 4D 4F 52
4356  9BC0 45 20 50 52
4356  9BC4 49 53 4F 4E
4356  9BC8 45 52 53 0D
4357  9BCC 49 4E 20 59  	defb "IN YOUR HELICOPTER THE FASTER",13		;9bcc	49 4e 20 59 4f 55 52 20 48 45 4c 49 43 4f 50 54 45 52 20 54 48 45 20 46 41 53 54 45 52 0d
4357  9BD0 4F 55 52 20
4357  9BD4 48 45 4C 49
4357  9BD8 43 4F 50 54
4357  9BDC 45 52 20 54
4357  9BE0 48 45 20 46
4357  9BE4 41 53 54 45
4357  9BE8 52 0D
4358  9BEA 49 54 20 57  	defb "IT WILL USE UP ITS FUEL.",0			;9bea	49 54 20 57 49 4c 4c 20 55 53 45 20 55 50 20 49 54 53 20 46 55 45 4c 2e 00
4358  9BEE 49 4C 4C 20
4358  9BF2 55 53 45 20
4358  9BF6 55 50 20 49
4358  9BFA 54 53 20 46
4358  9BFE 55 45 4C 2E
4358  9C02 00
4359  9C03
4360  9C03              ;***********************************************************************************************
4361  9C03              ; Manual/Instruction Page 2 text
4362  9C03              TXT_MANUAL_PAGE2:
4363  9C03 59 4F 55 20  	defb "YOU MUST RETURN BACK TO YOUR",13		;9c03	59 4f 55 20 4d 55 53 54 20 52 45 54 55 52 4e 20 42 41 43 4b 20 54 4f 20 59 4f 55 52 0d
4363  9C07 4D 55 53 54
4363  9C0B 20 52 45 54
4363  9C0F 55 52 4E 20
4363  9C13 42 41 43 4B
4363  9C17 20 54 4F 20
4363  9C1B 59 4F 55 52
4363  9C1F 0D
4364  9C20 42 41 53 45  	defb "BASE BEFORE YOUR FUEL RUNS OUT.",13	;9c20	42 41 53 45 20 42 45 46 4f 52 45 20 59 4f 55 52 20 46 55 45 4c 20 52 55 4e 53 20 4f 55 54 2e 0d
4364  9C24 20 42 45 46
4364  9C28 4F 52 45 20
4364  9C2C 59 4F 55 52
4364  9C30 20 46 55 45
4364  9C34 4C 20 52 55
4364  9C38 4E 53 20 4F
4364  9C3C 55 54 2E 0D
4365  9C40 59 4F 55 52  	defb "YOUR MISSION STARTS AT 4.00 AM",13	;9c40	59 4f 55 52 20 4d 49 53 53 49 4f 4e 20 53 54 41 52 54 53 20 41 54 20 34 2e 30 30 20 41 4d 0d
4365  9C44 20 4D 49 53
4365  9C48 53 49 4F 4E
4365  9C4C 20 53 54 41
4365  9C50 52 54 53 20
4365  9C54 41 54 20 34
4365  9C58 2E 30 30 20
4365  9C5C 41 4D 0D
4366  9C5F 41 4E 44 20  	defb "AND WILL TERMINATE AT 6.00 AM.",13	;9c5f	41 4e 44 20 57 49 4c 4c 20 54 45 52 4d 49 4e 41 54 45 20 41 54 20 36 2e 30 30 20 41 4d 2e 0d
4366  9C63 57 49 4C 4C
4366  9C67 20 54 45 52
4366  9C6B 4D 49 4E 41
4366  9C6F 54 45 20 41
4366  9C73 54 20 36 2E
4366  9C77 30 30 20 41
4366  9C7B 4D 2E 0D
4367  9C7E 59 4F 55 20  	defb "YOU HAVE 4 HELICOPTERS AT YOUR",13	;9c7e	59 4f 55 20 48 41 56 45 20 34 20 48 45 4c 49 43 4f 50 54 45 52 53 20 41 54 20 59 4f 55 52 0d
4367  9C82 48 41 56 45
4367  9C86 20 34 20 48
4367  9C8A 45 4C 49 43
4367  9C8E 4F 50 54 45
4367  9C92 52 53 20 41
4367  9C96 54 20 59 4F
4367  9C9A 55 52 0D
4368  9C9D 44 49 53 50  	defb "DISPOSAL. RESCUED MEN ARE ",13		;9c9d	44 49 53 50 4f 53 41 4c 2e 20 52 45 53 43 55 45 44 20 4d 45 4e 20 41 52 45 20 0d
4368  9CA1 4F 53 41 4C
4368  9CA5 2E 20 52 45
4368  9CA9 53 43 55 45
4368  9CAD 44 20 4D 45
4368  9CB1 4E 20 41 52
4368  9CB5 45 20 0D
4369  9CB8 57 4F 52 54  	defb "WORTH 100, 200, 500 AND 1500",13		;9cb8	57 4f 52 54 48 20 31 30 30 2c 20 32 30 30 2c 20 35 30 30 20 41 4e 44 20 31 35 30 30 0d
4369  9CBC 48 20 31 30
4369  9CC0 30 2C 20 32
4369  9CC4 30 30 2C 20
4369  9CC8 35 30 30 20
4369  9CCC 41 4E 44 20
4369  9CD0 31 35 30 30
4369  9CD4 0D
4370  9CD5 50 4F 49 4E  	defb "POINTS DEPENDING UPON WHETHER",13		;9cd5	50 4f 49 4e 54 53 20 44 45 50 45 4e 44 49 4e 47 20 55 50 4f 4e 20 57 48 45 54 48 45 52 0d
4370  9CD9 54 53 20 44
4370  9CDD 45 50 45 4E
4370  9CE1 44 49 4E 47
4370  9CE5 20 55 50 4F
4370  9CE9 4E 20 57 48
4370  9CED 45 54 48 45
4370  9CF1 52 0D
4371  9CF3 54 48 45 59  	defb "THEY ARE IN THE FOURTH OR FIRST",13	;9cf3	54 48 45 59 20 41 52 45 20 49 4e 20 54 48 45 20 46 4f 55 52 54 48 20 4f 52 20 46 49 52 53 54 0d
4371  9CF7 20 41 52 45
4371  9CFB 20 49 4E 20
4371  9CFF 54 48 45 20
4371  9D03 46 4F 55 52
4371  9D07 54 48 20 4F
4371  9D0B 52 20 46 49
4371  9D0F 52 53 54 0D
4372  9D13 43 41 4D 50  	defb "CAMP. (FOURTH IS THE CLOSEST)",13		;9d13	43 41 4d 50 2e 20 28 46 4f 55 52 54 48 20 49 53 20 54 48 45 20 43 4c 4f 53 45 53 54 29 0d
4372  9D17 2E 20 28 46
4372  9D1B 4F 55 52 54
4372  9D1F 48 20 49 53
4372  9D23 20 54 48 45
4372  9D27 20 43 4C 4F
4372  9D2B 53 45 53 54
4372  9D2F 29 0D
4373  9D31 59 4F 55 52  	defb "YOUR HELICOPTER MUST NOT HIT ",13		;9d31	59 4f 55 52 20 48 45 4c 49 43 4f 50 54 45 52 20 4d 55 53 54 20 4e 4f 54 20 48 49 54 20 0d
4373  9D35 20 48 45 4C
4373  9D39 49 43 4F 50
4373  9D3D 54 45 52 20
4373  9D41 4D 55 53 54
4373  9D45 20 4E 4F 54
4373  9D49 20 48 49 54
4373  9D4D 20 0D
4374  9D4F 4F 52 20 42  	defb "OR BE HIT BY ANY OBSTACLE WITH",0		;9d4f	4f 52 20 42 45 20 48 49 54 20 42 59 20 41 4e 59 20 4f 42 53 54 41 43 4c 45 20 57 49 54 48 00
4374  9D53 45 20 48 49
4374  9D57 54 20 42 59
4374  9D5B 20 41 4E 59
4374  9D5F 20 4F 42 53
4374  9D63 54 41 43 4C
4374  9D67 45 20 57 49
4374  9D6B 54 48 00
4375  9D6E
4376  9D6E              ;***********************************************************************************************
4377  9D6E              ; Manual/Instruction Page 3 text
4378  9D6E              TXT_MANUAL_PAGE3:
4379  9D6E 54 48 45 20  	defb "THE EXCEPTION OF A PLANE COMING",13	;9d6e	54 48 45 20 45 58 43 45 50 54 49 4f 4e 20 4f 46 20 41 20 50 4c 41 4e 45 20 43 4f 4d 49 4e 47 0d
4379  9D72 45 58 43 45
4379  9D76 50 54 49 4F
4379  9D7A 4E 20 4F 46
4379  9D7E 20 41 20 50
4379  9D82 4C 41 4E 45
4379  9D86 20 43 4F 4D
4379  9D8A 49 4E 47 0D
4380  9D8E 54 4F 57 41  	defb "TOWARDS OR GOING AWAY FROM YOU,",13	;9d8e	54 4f 57 41 52 44 53 20 4f 52 20 47 4f 49 4e 47 20 41 57 41 59 20 46 52 4f 4d 20 59 4f 55 2c 0d
4380  9D92 52 44 53 20
4380  9D96 4F 52 20 47
4380  9D9A 4F 49 4E 47
4380  9D9E 20 41 57 41
4380  9DA2 59 20 46 52
4380  9DA6 4F 4D 20 59
4380  9DAA 4F 55 2C 0D
4381  9DAE 41 4E 59 20  	defb "ANY EXPLOSION OR A PRISONER.",13		;9dae	41 4e 59 20 45 58 50 4c 4f 53 49 4f 4e 20 4f 52 20 41 20 50 52 49 53 4f 4e 45 52 2e 0d
4381  9DB2 45 58 50 4C
4381  9DB6 4F 53 49 4F
4381  9DBA 4E 20 4F 52
4381  9DBE 20 41 20 50
4381  9DC2 52 49 53 4F
4381  9DC6 4E 45 52 2E
4381  9DCA 0D
4382  9DCB 49 46 20 54  	defb "IF THE HELICOPTER IS FACING YOU",13	;9dcb	49 46 20 54 48 45 20 48 45 4c 49 43 4f 50 54 45 52 20 49 53 20 46 41 43 49 4e 47 20 59 4f 55 0d
4382  9DCF 48 45 20 48
4382  9DD3 45 4C 49 43
4382  9DD7 4F 50 54 45
4382  9DDB 52 20 49 53
4382  9DDF 20 46 41 43
4382  9DE3 49 4E 47 20
4382  9DE7 59 4F 55 0D
4383  9DEB 54 48 45 4E  	defb "THEN IT WILL SHOOT STRAIGHT DOWN",13	;9deb	54 48 45 4e 20 49 54 20 57 49 4c 4c 20 53 48 4f 4f 54 20 53 54 52 41 49 47 48 54 20 44 4f 57 4e 0d
4383  9DEF 20 49 54 20
4383  9DF3 57 49 4C 4C
4383  9DF7 20 53 48 4F
4383  9DFB 4F 54 20 53
4383  9DFF 54 52 41 49
4383  9E03 47 48 54 20
4383  9E07 44 4F 57 4E
4383  9E0B 0D
4384  9E0C 4F 4E 4C 59  	defb "ONLY 6 HELICOPTER BULLETS ARE ",13	;9e0c	4f 4e 4c 59 20 36 20 48 45 4c 49 43 4f 50 54 45 52 20 42 55 4c 4c 45 54 53 20 41 52 45 20 0d
4384  9E10 20 36 20 48
4384  9E14 45 4C 49 43
4384  9E18 4F 50 54 45
4384  9E1C 52 20 42 55
4384  9E20 4C 4C 45 54
4384  9E24 53 20 41 52
4384  9E28 45 20 0D
4385  9E2B 41 4C 4C 4F  	defb "ALLOWED ON THE SCREEN AT ONE ",13		;9e2b	41 4c 4c 4f 57 45 44 20 4f 4e 20 54 48 45 20 53 43 52 45 45 4e 20 41 54 20 4f 4e 45 20 0d
4385  9E2F 57 45 44 20
4385  9E33 4F 4E 20 54
4385  9E37 48 45 20 53
4385  9E3B 43 52 45 45
4385  9E3F 4E 20 41 54
4385  9E43 20 4F 4E 45
4385  9E47 20 0D
4386  9E49 54 49 4D 45  	defb "TIME. PLANES CANNOT BE SHOT.",13		;9e49	54 49 4d 45 2e 20 50 4c 41 4e 45 53 20 43 41 4e 4e 4f 54 20 42 45 20 53 48 4f 54 2e 0d
4386  9E4D 2E 20 50 4C
4386  9E51 41 4E 45 53
4386  9E55 20 43 41 4E
4386  9E59 4E 4F 54 20
4386  9E5D 42 45 20 53
4386  9E61 48 4F 54 2E
4386  9E65 0D
4387  9E66 59 4F 55 52  	defb "YOUR MISSION WILL BE OVER WHEN",13	;9e66	59 4f 55 52 20 4d 49 53 53 49 4f 4e 20 57 49 4c 4c 20 42 45 20 4f 56 45 52 20 57 48 45 4e 0d
4387  9E6A 20 4D 49 53
4387  9E6E 53 49 4F 4E
4387  9E72 20 57 49 4C
4387  9E76 4C 20 42 45
4387  9E7A 20 4F 56 45
4387  9E7E 52 20 57 48
4387  9E82 45 4E 0D
4388  9E85 59 4F 55 20  	defb "YOU HAVE LOST ALL YOUR",13			;9e85	59 4f 55 20 48 41 56 45 20 4c 4f 53 54 20 41 4c 4c 20 59 4f 55 52 0d
4388  9E89 48 41 56 45
4388  9E8D 20 4C 4F 53
4388  9E91 54 20 41 4C
4388  9E95 4C 20 59 4F
4388  9E99 55 52 0D
4389  9E9C 48 45 4C 49  	defb "HELICOPTERS, HAVE RUN OUT OF",13		;9e9c	48 45 4c 49 43 4f 50 54 45 52 53 2c 20 48 41 56 45 20 52 55 4e 20 4f 55 54 20 4f 46 0d
4389  9EA0 43 4F 50 54
4389  9EA4 45 52 53 2C
4389  9EA8 20 48 41 56
4389  9EAC 45 20 52 55
4389  9EB0 4E 20 4F 55
4389  9EB4 54 20 4F 46
4389  9EB8 0D
4390  9EB9 54 49 4D 45  	defb "TIME OR HAVE RESCUED ALL THE",13		;9eb9	54 49 4d 45 20 4f 52 20 48 41 56 45 20 52 45 53 43 55 45 44 20 41 4c 4c 20 54 48 45 0d
4390  9EBD 20 4F 52 20
4390  9EC1 48 41 56 45
4390  9EC5 20 52 45 53
4390  9EC9 43 55 45 44
4390  9ECD 20 41 4C 4C
4390  9ED1 20 54 48 45
4390  9ED5 0D
4391  9ED6 52 45 4D 41  	defb "REMAINING PRISONERS.",0				;9ed6	52 45 4d 41 49 4e 49 4e 47 20 50 52 49 53 4f 4e 45 52 53 2e 00
4391  9EDA 49 4E 49 4E
4391  9EDE 47 20 50 52
4391  9EE2 49 53 4F 4E
4391  9EE6 45 52 53 2E
4391  9EEA 00
4392  9EEB
4393  9EEB              ;***********************************************************************************************
4394  9EEB              ; Manual/Instruction Page 4 text
4395  9EEB              TXT_MANUAL_PAGE4:
4396  9EEB 54 48 45 20  	defb "THE TOP LINE OF THE SCREEN",13		;9eeb	54 48 45 20 54 4f 50 20 4c 49 4e 45 20 4f 46 20 54 48 45 20 53 43 52 45 45 4e 0d
4396  9EEF 54 4F 50 20
4396  9EF3 4C 49 4E 45
4396  9EF7 20 4F 46 20
4396  9EFB 54 48 45 20
4396  9EFF 53 43 52 45
4396  9F03 45 4E 0D
4397  9F06 57 49 4C 4C  	defb "WILL DISPLAY THE FOLLOWING ",13		;9f06	57 49 4c 4c 20 44 49 53 50 4c 41 59 20 54 48 45 20 46 4f 4c 4c 4f 57 49 4e 47 20 0d
4397  9F0A 20 44 49 53
4397  9F0E 50 4C 41 59
4397  9F12 20 54 48 45
4397  9F16 20 46 4F 4C
4397  9F1A 4C 4F 57 49
4397  9F1E 4E 47 20 0D
4398  9F22 49 4E 46 4F  	defb "INFORMATION. PRISONERS LEFT",13		;9f22	49 4e 46 4f 52 4d 41 54 49 4f 4e 2e 20 50 52 49 53 4f 4e 45 52 53 20 4c 45 46 54 0d
4398  9F26 52 4D 41 54
4398  9F2A 49 4F 4E 2E
4398  9F2E 20 50 52 49
4398  9F32 53 4F 4E 45
4398  9F36 52 53 20 4C
4398  9F3A 45 46 54 0D
4399  9F3E 49 4E 20 43  	defb "IN CAMP ONE, TWO, THREE AND ",13		;9f3e	49 4e 20 43 41 4d 50 20 4f 4e 45 2c 20 54 57 4f 2c 20 54 48 52 45 45 20 41 4e 44 20 0d
4399  9F42 41 4D 50 20
4399  9F46 4F 4E 45 2C
4399  9F4A 20 54 57 4F
4399  9F4E 2C 20 54 48
4399  9F52 52 45 45 20
4399  9F56 41 4E 44 20
4399  9F5A 0D
4400  9F5B 46 4F 55 52  	defb "FOUR (FOUR BEING THE CLOSEST)",13		;9f5b	46 4f 55 52 20 28 46 4f 55 52 20 42 45 49 4e 47 20 54 48 45 20 43 4c 4f 53 45 53 54 29 0d
4400  9F5F 20 28 46 4F
4400  9F63 55 52 20 42
4400  9F67 45 49 4E 47
4400  9F6B 20 54 48 45
4400  9F6F 20 43 4C 4F
4400  9F73 53 45 53 54
4400  9F77 29 0D
4401  9F79 46 55 45 4C  	defb "FUEL LEFT, TOTAL SCORE,",13			;9f79	46 55 45 4c 20 4c 45 46 54 2c 20 54 4f 54 41 4c 20 53 43 4f 52 45 2c 0d
4401  9F7D 20 4C 45 46
4401  9F81 54 2C 20 54
4401  9F85 4F 54 41 4C
4401  9F89 20 53 43 4F
4401  9F8D 52 45 2C 0D
4402  9F91 4E 55 4D 42  	defb "NUMBER OF HELICOPTERS LEFT",13		;9f91	4e 55 4d 42 45 52 20 4f 46 20 48 45 4c 49 43 4f 50 54 45 52 53 20 4c 45 46 54 0d
4402  9F95 45 52 20 4F
4402  9F99 46 20 48 45
4402  9F9D 4C 49 43 4F
4402  9FA1 50 54 45 52
4402  9FA5 53 20 4C 45
4402  9FA9 46 54 0D
4403  9FAC 41 4E 44 20  	defb "AND PRESENT TIME. AT THE",13			;9fac	41 4e 44 20 50 52 45 53 45 4e 54 20 54 49 4d 45 2e 20 41 54 20 54 48 45 0d
4403  9FB0 50 52 45 53
4403  9FB4 45 4E 54 20
4403  9FB8 54 49 4D 45
4403  9FBC 2E 20 41 54
4403  9FC0 20 54 48 45
4403  9FC4 0D
4404  9FC5 42 45 47 49  	defb "BEGINNING OF A GAME IT WILL",13		;9fc5	42 45 47 49 4e 4e 49 4e 47 20 4f 46 20 41 20 47 41 4d 45 20 49 54 20 57 49 4c 4c 0d
4404  9FC9 4E 4E 49 4E
4404  9FCD 47 20 4F 46
4404  9FD1 20 41 20 47
4404  9FD5 41 4D 45 20
4404  9FD9 49 54 20 57
4404  9FDD 49 4C 4C 0D
4405  9FE1 53 48 4F 57  	defb "SHOW THE FOLLOWING NUMBERS.",13		;9fe1	53 48 4f 57 20 54 48 45 20 46 4f 4c 4c 4f 57 49 4e 47 20 4e 55 4d 42 45 52 53 2e 0d
4405  9FE5 20 54 48 45
4405  9FE9 20 46 4F 4C
4405  9FED 4C 4F 57 49
4405  9FF1 4E 47 20 4E
4405  9FF5 55 4D 42 45
4405  9FF9 52 53 2E 0D
4406  9FFD 32 30 20 32  	defb "20 20 20 20  999  00000  4  4.00",0	;9ffd	32 30 20 32 30 20 32 30 20 32 30 20 20 39 39 39 20 20 30 30 30 30 30 20 20 34 20 20 34 2e 30 30 00
4406  A001 30 20 32 30
4406  A005 20 32 30 20
4406  A009 20 39 39 39
4406  A00D 20 20 30 30
4406  A011 30 30 30 20
4406  A015 20 34 20 20
4406  A019 34 2E 30 30
4406  A01D 00
4407  A01E
4408  A01E              ;***********************************************************************************************
4409  A01E              ; Manual/Instruction Page 5 text
4410  A01E              TXT_MANUAL_PAGE5:
4411  A01E 49 46 20 59  	defb "IF YOU GET ONE OF THE TOP TEN",13		;a01e	49 46 20 59 4f 55 20 47 45 54 20 4f 4e 45 20 4f 46 20 54 48 45 20 54 4f 50 20 54 45 4e 0d
4411  A022 4F 55 20 47
4411  A026 45 54 20 4F
4411  A02A 4E 45 20 4F
4411  A02E 46 20 54 48
4411  A032 45 20 54 4F
4411  A036 50 20 54 45
4411  A03A 4E 0D
4412  A03C 48 49 47 48  	defb "HIGH SCORES YOU CAN PUT YOUR",13		;a03c	48 49 47 48 20 53 43 4f 52 45 53 20 59 4f 55 20 43 41 4e 20 50 55 54 20 59 4f 55 52 0d
4412  A040 20 53 43 4F
4412  A044 52 45 53 20
4412  A048 59 4F 55 20
4412  A04C 43 41 4E 20
4412  A050 50 55 54 20
4412  A054 59 4F 55 52
4412  A058 0D
4413  A059 4E 41 4D 45  	defb "NAME ON THE SCORE BOARD. TO DO",13	;a059	4e 41 4d 45 20 4f 4e 20 54 48 45 20 53 43 4f 52 45 20 42 4f 41 52 44 2e 20 54 4f 20 44 4f 0d
4413  A05D 20 4F 4E 20
4413  A061 54 48 45 20
4413  A065 53 43 4F 52
4413  A069 45 20 42 4F
4413  A06D 41 52 44 2E
4413  A071 20 54 4F 20
4413  A075 44 4F 0D
4414  A078 54 48 49 53  	defb "THIS USE THE ARROW KEYS TO ",13		;a078	54 48 49 53 20 55 53 45 20 54 48 45 20 41 52 52 4f 57 20 4b 45 59 53 20 54 4f 20 0d
4414  A07C 20 55 53 45
4414  A080 20 54 48 45
4414  A084 20 41 52 52
4414  A088 4F 57 20 4B
4414  A08C 45 59 53 20
4414  A090 54 4F 20 0D
4415  A094 50 4F 53 49  	defb "POSITION THE BOX OVER THE CHAR.",13	;a094	50 4f 53 49 54 49 4f 4e 20 54 48 45 20 42 4f 58 20 4f 56 45 52 20 54 48 45 20 43 48 41 52 2e 0d
4415  A098 54 49 4F 4E
4415  A09C 20 54 48 45
4415  A0A0 20 42 4F 58
4415  A0A4 20 4F 56 45
4415  A0A8 52 20 54 48
4415  A0AC 45 20 43 48
4415  A0B0 41 52 2E 0D
4416  A0B4 4F 52 20 43  	defb "OR COMMAND REQUIRED AND PRESS",13		;a0b4	4f 52 20 43 4f 4d 4d 41 4e 44 20 52 45 51 55 49 52 45 44 20 41 4e 44 20 50 52 45 53 53 0d
4416  A0B8 4F 4D 4D 41
4416  A0BC 4E 44 20 52
4416  A0C0 45 51 55 49
4416  A0C4 52 45 44 20
4416  A0C8 41 4E 44 20
4416  A0CC 50 52 45 53
4416  A0D0 53 0D
4417  A0D2 3C 52 45 54  	defb "<RETURN>.",0							;a0d2	3c 52 45 54 55 52 4e 3e 2e 00
4417  A0D6 55 52 4E 3E
4417  A0DA 2E 00
4418  A0DC
4419  A0DC              ;***********************************************************************************************
4420  A0DC              ; Prompt for C to Continue text
4421  A0DC              TXT_PRESS_C_CONT:
4422  A0DC 20 20 20 50  	defb "   PRESS  <C>  TO  CONTINUE",0		;a0dc	20 20 20 50 52 45 53 53 20 20 3c 43 3e 20 20 54 4f 20 20 43 4f 4e 54 49 4e 55 45 00
4422  A0E0 52 45 53 53
4422  A0E4 20 20 3C 43
4422  A0E8 3E 20 20 54
4422  A0EC 4F 20 20 43
4422  A0F0 4F 4E 54 49
4422  A0F4 4E 55 45 00
4423  A0F8
4424  A0F8              	;endmodule
4425  A0F8
4426  A0F8 00           	nop			;a0f8	00 	.
4427  A0F9 00           	nop			;a0f9	00 	.
4428  A0FA 00           	nop			;a0fa	00 	.
4429  A0FB              la0fbh:
4430  A0FB 00           	nop			;a0fb	00 	.
4431  A0FC 00           	nop			;a0fc	00 	.
4432  A0FD 00           	nop			;a0fd	00 	.
4433  A0FE              la0feh:
4434  A0FE 00           	nop			;a0fe	00 	.
4435  A0FF              la0ffh:
4436  A0FF 00           	nop			;a0ff	00 	.
4437  A100              la100h:
4438  A100 AA           	xor d			;a100	aa 	.
4439  A101 AA           	xor d			;a101	aa 	.
4440  A102 AA           	xor d			;a102	aa 	.
4441  A103 A8           	xor b			;a103	a8 	.
4442  A104 00           	nop			;a104	00 	.
4443  A105 00           	nop			;a105	00 	.
4444  A106              la106h:
4445  A106 00           	nop			;a106	00 	.
4446  A107 02           	ld (bc),a			;a107	02 	.
4447  A108 00           	nop			;a108	00 	.
4448  A109 00           	nop			;a109	00 	.
4449  A10A              la10ah:
4450  A10A 02           	ld (bc),a			;a10a	02 	.
4451  A10B 00           	nop			;a10b	00 	.
4452  A10C 00           	nop			;a10c	00 	.
4453  A10D 15           	dec d			;a10d	15 	.
4454  A10E 50           	ld d,b			;a10e	50 	P
4455  A10F              la10fh:
4456  A10F 00           	nop			;a10f	00 	.
4457  A110 02           	ld (bc),a			;a110	02 	.
4458  A111 00           	nop			;a111	00 	.
4459  A112              la112h:
4460  A112 0F           	rrca			;a112	0f 	.
4461  A113 D5           	push de			;a113	d5 	.
4462  A114 55           	ld d,l			;a114	55 	U
4463  A115 55           	ld d,l			;a115	55 	U
4464  A116 6A           	ld l,d			;a116	6a 	j
4465  A117 A0           	and b			;a117	a0 	.
4466  A118 3F           	ccf			;a118	3f 	?
4467  A119 D5           	push de			;a119	d5 	.
4468  A11A 55           	ld d,l			;a11a	55 	U
4469  A11B 55           	ld d,l			;a11b	55 	U
4470  A11C 52           	ld d,d			;a11c	52 	R
4471  A11D              la11dh:
4472  A11D 00           	nop			;a11d	00 	.
4473  A11E 15           	dec d			;a11e	15 	.
4474  A11F 55           	ld d,l			;a11f	55 	U
4475  A120 55           	ld d,l			;a120	55 	U
4476  A121 54           	ld d,h			;a121	54 	T
4477  A122 02           	ld (bc),a			;a122	02 	.
4478  A123 00           	nop			;a123	00 	.
4479  A124 01 55 55     	ld bc,05555h		;a124	01 55 55 	. U U
4480  A127 00           	nop			;a127	00 	.
4481  A128 00           	nop			;a128	00 	.
4482  A129 00           	nop			;a129	00 	.
4483  A12A 20 80        	defb $20,$80		;a12a	20 80 	  .
4484  A12C 80           	add a,b			;a12c	80 	.
4485  A12D 00           	nop			;a12d	00 	.
4486  A12E 00           	nop			;a12e	00 	.
4487  A12F 00           	nop			;a12f	00 	.
4488  A130              la130h:
4489  A130 0A           	ld a,(bc)			;a130	0a 	.
4490  A131 AA           	xor d			;a131	aa 	.
4491  A132 AA           	xor d			;a132	aa 	.
4492  A133 00           	nop			;a133	00 	.
4493  A134 00           	nop			;a134	00 	.
4494  A135 00           	nop			;a135	00 	.
4495  A136 00           	nop			;a136	00 	.
4496  A137 2A A0 00     	ld hl,(000a0h)		;a137	2a a0 00 	* . .
4497  A13A 00           	nop			;a13a	00 	.
4498  A13B 00           	nop			;a13b	00 	.
4499  A13C 00           	nop			;a13c	00 	.
4500  A13D 02           	ld (bc),a			;a13d	02 	.
4501  A13E 00           	nop			;a13e	00 	.
4502  A13F 00           	nop			;a13f	00 	.
4503  A140              la140h:
4504  A140 20 20        	jr nz,la162h		;a140	20 20
4505  A142 00           	nop			;a142	00 	.
4506  A143 15           	dec d			;a143	15 	.
4507  A144 50           	ld d,b			;a144	50 	P
4508  A145 00           	nop			;a145	00 	.
4509  A146 08           	ex af,af'			;a146	08 	.
4510  A147 80           	add a,b			;a147	80 	.
4511  A148 0F           	rrca			;a148	0f 	.
4512  A149 D5           	push de			;a149	d5 	.
4513  A14A 55           	ld d,l			;a14a	55 	U
4514  A14B 55           	ld d,l			;a14b	55 	U
4515  A14C 56           	ld d,(hl)			;a14c	56 	V
4516  A14D 00           	nop			;a14d	00 	.
4517  A14E 3F           	ccf			;a14e	3f 	?
4518  A14F D5           	push de			;a14f	d5 	.
4519  A150 55           	ld d,l			;a150	55 	U
4520  A151 55           	ld d,l			;a151	55 	U
4521  A152 58           	ld e,b			;a152	58 	X
4522  A153 80           	add a,b			;a153	80 	.
4523  A154 15           	dec d			;a154	15 	.
4524  A155 55           	ld d,l			;a155	55 	U
4525  A156 55           	ld d,l			;a156	55 	U
4526  A157 54           	ld d,h			;a157	54 	T
4527  A158 20 20        	defb $20,$20		;a158	20 20
4528  A15A 01 55 55     	ld bc,05555h		;a15a	01 55 55 	. U U
4529  A15D 00           	nop			;a15d	00 	.
4530  A15E 00           	nop			;a15e	00 	.
4531  A15F 00           	nop			;a15f	00 	.
4532  A160 20 80        	defb $20,$80		;a160	20 80 	  .
4533  A162              la162h:
4534  A162 80           	add a,b			;a162	80 	.
4535  A163 00           	nop			;a163	00 	.
4536  A164 00           	nop			;a164	00 	.
4537  A165 00           	nop			;a165	00 	.
4538  A166 0A           	ld a,(bc)			;a166	0a 	.
4539  A167 AA           	xor d			;a167	aa 	.
4540  A168 AA           	xor d			;a168	aa 	.
4541  A169 00           	nop			;a169	00 	.
4542  A16A 00           	nop			;a16a	00 	.
4543  A16B 00           	nop			;a16b	00 	.
4544  A16C 00           	nop			;a16c	00 	.
4545  A16D 02           	ld (bc),a			;a16d	02 	.
4546  A16E AA           	xor d			;a16e	aa 	.
4547  A16F AA           	xor d			;a16f	aa 	.
4548  A170 AA           	xor d			;a170	aa 	.
4549  A171 A0           	and b			;a171	a0 	.
4550  A172 08           	ex af,af'			;a172	08 	.
4551  A173 00           	nop			;a173	00 	.
4552  A174 00           	nop			;a174	00 	.
4553  A175 08           	ex af,af'			;a175	08 	.
4554  A176 00           	nop			;a176	00 	.
4555  A177 00           	nop			;a177	00 	.
4556  A178 08           	ex af,af'			;a178	08 	.
4557  A179 00           	nop			;a179	00 	.
4558  A17A              la17ah:
4559  A17A 00           	nop			;a17a	00 	.
4560  A17B 55           	ld d,l			;a17b	55 	U
4561  A17C 40           	ld b,b			;a17c	40 	@
4562  A17D 00           	nop			;a17d	00 	.
4563  A17E AA           	xor d			;a17e	aa 	.
4564  A17F 95           	sub l			;a17f	95 	.
4565  A180 55           	ld d,l			;a180	55 	U
4566  A181 55           	ld d,l			;a181	55 	U
4567  A182 7F           	ld a,a			;a182	7f 	
4568  A183 00           	nop			;a183	00 	.
4569  A184 08           	ex af,af'			;a184	08 	.
4570  A185 55           	ld d,l			;a185	55 	U
4571  A186 55           	ld d,l			;a186	55 	U
4572  A187 55           	ld d,l			;a187	55 	U
4573  A188 7F           	ld a,a			;a188	7f 	
4574  A189 C0           	ret nz			;a189	c0 	.
4575  A18A 08           	ex af,af'			;a18a	08 	.
4576  A18B 01 55 55     	ld bc,05555h		;a18b	01 55 55 	. U U
4577  A18E 55           	ld d,l			;a18e	55 	U
4578  A18F 40           	ld b,b			;a18f	40 	@
4579  A190 00           	nop			;a190	00 	.
4580  A191 00           	nop			;a191	00 	.
4581  A192 05           	dec b			;a192	05 	.
4582  A193 55           	ld d,l			;a193	55 	U
4583  A194 54           	ld d,h			;a194	54 	T
4584  A195 00           	nop			;a195	00 	.
4585  A196 00           	nop			;a196	00 	.
4586  A197 00           	nop			;a197	00 	.
4587  A198 00           	nop			;a198	00 	.
4588  A199 20 20        	jr nz,$+34		;a199	20 20
4589  A19B 80           	add a,b			;a19b	80 	.
4590  A19C 00           	nop			;a19c	00 	.
4591  A19D 00           	nop			;a19d	00 	.
4592  A19E 0A           	ld a,(bc)			;a19e	0a 	.
4593  A19F AA           	xor d			;a19f	aa 	.
4594  A1A0 AA           	xor d			;a1a0	aa 	.
4595  A1A1 00           	nop			;a1a1	00 	.
4596  A1A2 00           	nop			;a1a2	00 	.
4597  A1A3 00           	nop			;a1a3	00 	.
4598  A1A4 00           	nop			;a1a4	00 	.
4599  A1A5 AA           	xor d			;a1a5	aa 	.
4600  A1A6 80           	add a,b			;a1a6	80 	.
4601  A1A7 00           	nop			;a1a7	00 	.
4602  A1A8 80           	add a,b			;a1a8	80 	.
4603  A1A9 80           	add a,b			;a1a9	80 	.
4604  A1AA 00           	nop			;a1aa	00 	.
4605  A1AB 08           	ex af,af'			;a1ab	08 	.
4606  A1AC 00           	nop			;a1ac	00 	.
4607  A1AD 00           	nop			;a1ad	00 	.
4608  A1AE 22 00 00     	ld (00000h),hl		;a1ae	22 00 00 	" . .
4609  A1B1 55           	ld d,l			;a1b1	55 	U
4610  A1B2 40           	ld b,b			;a1b2	40 	@
4611  A1B3 00           	nop			;a1b3	00 	.
4612  A1B4 09           	add hl,bc			;a1b4	09 	.
4613  A1B5 55           	ld d,l			;a1b5	55 	U
4614  A1B6 55           	ld d,l			;a1b6	55 	U
4615  A1B7 55           	ld d,l			;a1b7	55 	U
4616  A1B8 7F           	ld a,a			;a1b8	7f 	
4617  A1B9 00           	nop			;a1b9	00 	.
4618  A1BA 22 55 55     	ld (05555h),hl		;a1ba	22 55 55 	" U U
4619  A1BD 55           	ld d,l			;a1bd	55 	U
4620  A1BE 7F           	ld a,a			;a1be	7f 	
4621  A1BF C0           	ret nz			;a1bf	c0 	.
4622  A1C0 80           	add a,b			;a1c0	80 	.
4623  A1C1 81           	add a,c			;a1c1	81 	.
4624  A1C2 55           	ld d,l			;a1c2	55 	U
4625  A1C3 55           	ld d,l			;a1c3	55 	U
4626  A1C4 55           	ld d,l			;a1c4	55 	U
4627  A1C5 40           	ld b,b			;a1c5	40 	@
4628  A1C6 00           	nop			;a1c6	00 	.
4629  A1C7 00           	nop			;a1c7	00 	.
4630  A1C8 05           	dec b			;a1c8	05 	.
4631  A1C9 55           	ld d,l			;a1c9	55 	U
4632  A1CA 54           	ld d,h			;a1ca	54 	T
4633  A1CB 00           	nop			;a1cb	00 	.
4634  A1CC 00           	nop			;a1cc	00 	.
4635  A1CD 00           	nop			;a1cd	00 	.
4636  A1CE 00           	nop			;a1ce	00 	.
4637  A1CF 20 20        	jr nz,la1f1h		;a1cf	20 20
4638  A1D1 80           	add a,b			;a1d1	80 	.
4639  A1D2 00           	nop			;a1d2	00 	.
4640  A1D3 00           	nop			;a1d3	00 	.
4641  A1D4 0A           	ld a,(bc)			;a1d4	0a 	.
4642  A1D5 AA           	xor d			;a1d5	aa 	.
4643  A1D6 AA           	xor d			;a1d6	aa 	.
4644  A1D7 00           	nop			;a1d7	00 	.
4645  A1D8 02           	ld (bc),a			;a1d8	02 	.
4646  A1D9 AA           	xor d			;a1d9	aa 	.
4647  A1DA AA           	xor d			;a1da	aa 	.
4648  A1DB AA           	xor d			;a1db	aa 	.
4649  A1DC A8           	xor b			;a1dc	a8 	.
4650  A1DD 00           	nop			;a1dd	00 	.
4651  A1DE 00           	nop			;a1de	00 	.
4652  A1DF 00           	nop			;a1df	00 	.
4653  A1E0 0A           	ld a,(bc)			;a1e0	0a 	.
4654  A1E1 00           	nop			;a1e1	00 	.
4655  A1E2 00           	nop			;a1e2	00 	.
4656  A1E3 00           	nop			;a1e3	00 	.
4657  A1E4 00           	nop			;a1e4	00 	.
4658  A1E5 00           	nop			;a1e5	00 	.
4659  A1E6 15           	dec d			;a1e6	15 	.
4660  A1E7 40           	ld b,b			;a1e7	40 	@
4661  A1E8 00           	nop			;a1e8	00 	.
4662  A1E9 00           	nop			;a1e9	00 	.
4663  A1EA 00           	nop			;a1ea	00 	.
4664  A1EB 01 7F D4     	ld bc,0d47fh		;a1eb	01 7f d4 	.  .
4665  A1EE 00           	nop			;a1ee	00 	.
4666  A1EF 00           	nop			;a1ef	00 	.
4667  A1F0 00           	nop			;a1f0	00 	.
4668  A1F1              la1f1h:
4669  A1F1 05           	dec b			;a1f1	05 	.
4670  A1F2 FF           	rst 38h			;a1f2	ff 	.
4671  A1F3 F5           	push af			;a1f3	f5 	.
4672  A1F4 00           	nop			;a1f4	00 	.
4673  A1F5 00           	nop			;a1f5	00 	.
4674  A1F6 00           	nop			;a1f6	00 	.
4675  A1F7 05           	dec b			;a1f7	05 	.
4676  A1F8 FF           	rst 38h			;a1f8	ff 	.
4677  A1F9 F5           	push af			;a1f9	f5 	.
4678  A1FA 00           	nop			;a1fa	00 	.
4679  A1FB 00           	nop			;a1fb	00 	.
4680  A1FC 00           	nop			;a1fc	00 	.
4681  A1FD 01 55 54     	ld bc,05455h		;a1fd	01 55 54 	. U T
4682  A200 00           	nop			;a200	00 	.
4683  A201 00           	nop			;a201	00 	.
4684  A202 00           	nop			;a202	00 	.
4685  A203 02           	ld (bc),a			;a203	02 	.
4686  A204 05           	dec b			;a204	05 	.
4687  A205 08           	ex af,af'			;a205	08 	.
4688  A206 00           	nop			;a206	00 	.
4689  A207 00           	nop			;a207	00 	.
4690  A208 00           	nop			;a208	00 	.
4691  A209 08           	ex af,af'			;a209	08 	.
4692  A20A 00           	nop			;a20a	00 	.
4693  A20B 02           	ld (bc),a			;a20b	02 	.
4694  A20C 00           	nop			;a20c	00 	.
4695  A20D 00           	nop			;a20d	00 	.
4696  A20E 00           	nop			;a20e	00 	.
4697  A20F 02           	ld (bc),a			;a20f	02 	.
4698  A210 AA           	xor d			;a210	aa 	.
4699  A211 A8           	xor b			;a211	a8 	.
4700  A212 00           	nop			;a212	00 	.
4701  A213 00           	nop			;a213	00 	.
4702  A214 00           	nop			;a214	00 	.
4703  A215 00           	nop			;a215	00 	.
4704  A216 0A           	ld a,(bc)			;a216	0a 	.
4705  A217 00           	nop			;a217	00 	.
4706  A218 00           	nop			;a218	00 	.
4707  A219 00           	nop			;a219	00 	.
4708  A21A 00           	nop			;a21a	00 	.
4709  A21B 00           	nop			;a21b	00 	.
4710  A21C 15           	dec d			;a21c	15 	.
4711  A21D 40           	ld b,b			;a21d	40 	@
4712  A21E 00           	nop			;a21e	00 	.
4713  A21F 00           	nop			;a21f	00 	.
4714  A220 00           	nop			;a220	00 	.
4715  A221 01 7F D4     	ld bc,0d47fh		;a221	01 7f d4 	.  .
4716  A224 00           	nop			;a224	00 	.
4717  A225 00           	nop			;a225	00 	.
4718  A226 00           	nop			;a226	00 	.
4719  A227 05           	dec b			;a227	05 	.
4720  A228 FF           	rst 38h			;a228	ff 	.
4721  A229 F5           	push af			;a229	f5 	.
4722  A22A 00           	nop			;a22a	00 	.
4723  A22B 00           	nop			;a22b	00 	.
4724  A22C 00           	nop			;a22c	00 	.
4725  A22D 05           	dec b			;a22d	05 	.
4726  A22E FF           	rst 38h			;a22e	ff 	.
4727  A22F F5           	push af			;a22f	f5 	.
4728  A230 00           	nop			;a230	00 	.
4729  A231 00           	nop			;a231	00 	.
4730  A232 00           	nop			;a232	00 	.
4731  A233 01 55 54     	ld bc,05455h		;a233	01 55 54 	. U T
4732  A236 00           	nop			;a236	00 	.
4733  A237 00           	nop			;a237	00 	.
4734  A238 00           	nop			;a238	00 	.
4735  A239 02           	ld (bc),a			;a239	02 	.
4736  A23A 05           	dec b			;a23a	05 	.
4737  A23B 08           	ex af,af'			;a23b	08 	.
4738  A23C 00           	nop			;a23c	00 	.
4739  A23D 00           	nop			;a23d	00 	.
4740  A23E 00           	nop			;a23e	00 	.
4741  A23F 08           	ex af,af'			;a23f	08 	.
4742  A240 00           	nop			;a240	00 	.
4743  A241 02           	ld (bc),a			;a241	02 	.
4744  A242 00           	nop			;a242	00 	.
4745  A243 00           	nop			;a243	00 	.
4746  A244 0A           	ld a,(bc)			;a244	0a 	.
4747  A245 AA           	xor d			;a245	aa 	.
4748  A246 AA           	xor d			;a246	aa 	.
4749  A247 AA           	xor d			;a247	aa 	.
4750  A248 80           	add a,b			;a248	80 	.
4751  A249 00           	nop			;a249	00 	.
4752  A24A 00           	nop			;a24a	00 	.
4753  A24B 00           	nop			;a24b	00 	.
4754  A24C 20 00        	jr nz,la24eh		;a24c	20 00 	  .
4755  A24E              la24eh:
4756  A24E 00           	nop			;a24e	00 	.
4757  A24F 20 00        	jr nz,la251h		;a24f	20 00 	  .
4758  A251              la251h:
4759  A251 01 55 00     	ld bc,00055h		;a251	01 55 00 	. U .
4760  A254 00           	nop			;a254	00 	.
4761  A255 20 00        	jr nz,la257h		;a255	20 00 	  .
4762  A257              la257h:
4763  A257 FD 55 55     	defb 0fdh,055h,055h	;illegal sequence		;a257	fd 55 55 	. U U
4764  A25A 56           	ld d,(hl)			;a25a	56 	V
4765  A25B AA           	xor d			;a25b	aa 	.
4766  A25C 03           	inc bc			;a25c	03 	.
4767  A25D FD 55 55     	defb 0fdh,055h,055h	;illegal sequence		;a25d	fd 55 55 	. U U
4768  A260 55           	ld d,l			;a260	55 	U
4769  A261 20 01        	jr nz,la264h		;a261	20 01 	  .
4770  A263 55           	ld d,l			;a263	55 	U
4771  A264              la264h:
4772  A264 55           	ld d,l			;a264	55 	U
4773  A265 55           	ld d,l			;a265	55 	U
4774  A266 40           	ld b,b			;a266	40 	@
4775  A267 20 00        	jr nz,la269h		;a267	20 00 	  .
4776  A269              la269h:
4777  A269 15           	dec d			;a269	15 	.
4778  A26A 55           	ld d,l			;a26a	55 	U
4779  A26B 50           	ld d,b			;a26b	50 	P
4780  A26C 00           	nop			;a26c	00 	.
4781  A26D 00           	nop			;a26d	00 	.
4782  A26E 02           	ld (bc),a			;a26e	02 	.
4783  A26F 08           	ex af,af'			;a26f	08 	.
4784  A270 08           	ex af,af'			;a270	08 	.
4785  A271 00           	nop			;a271	00 	.
4786  A272 00           	nop			;a272	00 	.
4787  A273 00           	nop			;a273	00 	.
4788  A274 00           	nop			;a274	00 	.
4789  A275 AA           	xor d			;a275	aa 	.
4790  A276 AA           	xor d			;a276	aa 	.
4791  A277 A0           	and b			;a277	a0 	.
4792  A278 00           	nop			;a278	00 	.
4793  A279 00           	nop			;a279	00 	.
4794  A27A 00           	nop			;a27a	00 	.
4795  A27B 02           	ld (bc),a			;a27b	02 	.
4796  A27C AA           	xor d			;a27c	aa 	.
4797  A27D 00           	nop			;a27d	00 	.
4798  A27E 00           	nop			;a27e	00 	.
4799  A27F 00           	nop			;a27f	00 	.
4800  A280 00           	nop			;a280	00 	.
4801  A281 00           	nop			;a281	00 	.
4802  A282 20 00        	jr nz,la284h		;a282	20 00 	  .
4803  A284              la284h:
4804  A284 02           	ld (bc),a			;a284	02 	.
4805  A285 02           	ld (bc),a			;a285	02 	.
4806  A286 00           	nop			;a286	00 	.
4807  A287 01 55 00     	ld bc,00055h		;a287	01 55 00 	. U .
4808  A28A 00           	nop			;a28a	00 	.
4809  A28B 88           	adc a,b			;a28b	88 	.
4810  A28C 00           	nop			;a28c	00 	.
4811  A28D FD 55 55     	defb 0fdh,055h,055h	;illegal sequence		;a28d	fd 55 55 	. U U
4812  A290 55           	ld d,l			;a290	55 	U
4813  A291 60           	ld h,b			;a291	60 	`
4814  A292 03           	inc bc			;a292	03 	.
4815  A293 FD 55 55     	defb 0fdh,055h,055h	;illegal sequence		;a293	fd 55 55 	. U U
4816  A296 55           	ld d,l			;a296	55 	U
4817  A297 88           	adc a,b			;a297	88 	.
4818  A298 01 55 55     	ld bc,05555h		;a298	01 55 55 	. U U
4819  A29B 55           	ld d,l			;a29b	55 	U
4820  A29C 42           	ld b,d			;a29c	42 	B
4821  A29D 02           	ld (bc),a			;a29d	02 	.
4822  A29E 00           	nop			;a29e	00 	.
4823  A29F 15           	dec d			;a29f	15 	.
4824  A2A0 55           	ld d,l			;a2a0	55 	U
4825  A2A1 50           	ld d,b			;a2a1	50 	P
4826  A2A2 00           	nop			;a2a2	00 	.
4827  A2A3 00           	nop			;a2a3	00 	.
4828  A2A4 02           	ld (bc),a			;a2a4	02 	.
4829  A2A5 08           	ex af,af'			;a2a5	08 	.
4830  A2A6 08           	ex af,af'			;a2a6	08 	.
4831  A2A7 00           	nop			;a2a7	00 	.
4832  A2A8 00           	nop			;a2a8	00 	.
4833  A2A9 00           	nop			;a2a9	00 	.
4834  A2AA 00           	nop			;a2aa	00 	.
4835  A2AB AA           	xor d			;a2ab	aa 	.
4836  A2AC AA           	xor d			;a2ac	aa 	.
4837  A2AD A0           	and b			;a2ad	a0 	.
4838  A2AE 00           	nop			;a2ae	00 	.
4839  A2AF 00           	nop			;a2af	00 	.
4840  A2B0 00           	nop			;a2b0	00 	.
4841  A2B1 00           	nop			;a2b1	00 	.
4842  A2B2 2A AA AA     	ld hl,(0aaaah)		;a2b2	2a aa aa 	* . .
4843  A2B5 AA           	xor d			;a2b5	aa 	.
4844  A2B6 00           	nop			;a2b6	00 	.
4845  A2B7 80           	add a,b			;a2b7	80 	.
4846  A2B8 00           	nop			;a2b8	00 	.
4847  A2B9 00           	nop			;a2b9	00 	.
4848  A2BA 80           	add a,b			;a2ba	80 	.
4849  A2BB 00           	nop			;a2bb	00 	.
4850  A2BC 00           	nop			;a2bc	00 	.
4851  A2BD 80           	add a,b			;a2bd	80 	.
4852  A2BE 00           	nop			;a2be	00 	.
4853  A2BF 05           	dec b			;a2bf	05 	.
4854  A2C0 54           	ld d,h			;a2c0	54 	T
4855  A2C1 00           	nop			;a2c1	00 	.
4856  A2C2 0A           	ld a,(bc)			;a2c2	0a 	.
4857  A2C3 A9           	xor c			;a2c3	a9 	.
4858  A2C4 55           	ld d,l			;a2c4	55 	U
4859  A2C5 55           	ld d,l			;a2c5	55 	U
4860  A2C6 57           	ld d,a			;a2c6	57 	W
4861  A2C7 F0           	ret p			;a2c7	f0 	.
4862  A2C8 00           	nop			;a2c8	00 	.
4863  A2C9 85           	add a,l			;a2c9	85 	.
4864  A2CA 55           	ld d,l			;a2ca	55 	U
4865  A2CB 55           	ld d,l			;a2cb	55 	U
4866  A2CC 57           	ld d,a			;a2cc	57 	W
4867  A2CD FC 00 80     	call m,l7fffh+1		;a2cd	fc 00 80 	. . .
4868  A2D0 15           	dec d			;a2d0	15 	.
4869  A2D1 55           	ld d,l			;a2d1	55 	U
4870  A2D2 55           	ld d,l			;a2d2	55 	U
4871  A2D3 54           	ld d,h			;a2d3	54 	T
4872  A2D4 00           	nop			;a2d4	00 	.
4873  A2D5 00           	nop			;a2d5	00 	.
4874  A2D6 00           	nop			;a2d6	00 	.
4875  A2D7 55           	ld d,l			;a2d7	55 	U
4876  A2D8 55           	ld d,l			;a2d8	55 	U
4877  A2D9 40           	ld b,b			;a2d9	40 	@
4878  A2DA 00           	nop			;a2da	00 	.
4879  A2DB 00           	nop			;a2db	00 	.
4880  A2DC 00           	nop			;a2dc	00 	.
4881  A2DD 02           	ld (bc),a			;a2dd	02 	.
4882  A2DE 02           	ld (bc),a			;a2de	02 	.
4883  A2DF 08           	ex af,af'			;a2df	08 	.
4884  A2E0 00           	nop			;a2e0	00 	.
4885  A2E1 00           	nop			;a2e1	00 	.
4886  A2E2 00           	nop			;a2e2	00 	.
4887  A2E3 AA           	xor d			;a2e3	aa 	.
4888  A2E4 AA           	xor d			;a2e4	aa 	.
4889  A2E5 A0           	and b			;a2e5	a0 	.
4890  A2E6 00           	nop			;a2e6	00 	.
4891  A2E7 00           	nop			;a2e7	00 	.
4892  A2E8 00           	nop			;a2e8	00 	.
4893  A2E9 0A           	ld a,(bc)			;a2e9	0a 	.
4894  A2EA A8           	xor b			;a2ea	a8 	.
4895  A2EB 00           	nop			;a2eb	00 	.
4896  A2EC 08           	ex af,af'			;a2ec	08 	.
4897  A2ED 08           	ex af,af'			;a2ed	08 	.
4898  A2EE 00           	nop			;a2ee	00 	.
4899  A2EF 00           	nop			;a2ef	00 	.
4900  A2F0 80           	add a,b			;a2f0	80 	.
4901  A2F1 00           	nop			;a2f1	00 	.
4902  A2F2 02           	ld (bc),a			;a2f2	02 	.
4903  A2F3 20 00        	jr nz,la2f5h		;a2f3	20 00 	  .
4904  A2F5              la2f5h:
4905  A2F5 05           	dec b			;a2f5	05 	.
4906  A2F6 54           	ld d,h			;a2f6	54 	T
4907  A2F7 00           	nop			;a2f7	00 	.
4908  A2F8 00           	nop			;a2f8	00 	.
4909  A2F9 95           	sub l			;a2f9	95 	.
4910  A2FA 55           	ld d,l			;a2fa	55 	U
4911  A2FB 55           	ld d,l			;a2fb	55 	U
4912  A2FC 57           	ld d,a			;a2fc	57 	W
4913  A2FD F0           	ret p			;a2fd	f0 	.
4914  A2FE 02           	ld (bc),a			;a2fe	02 	.
4915  A2FF 25           	dec h			;a2ff	25 	%
4916  A300 55           	ld d,l			;a300	55 	U
4917  A301 55           	ld d,l			;a301	55 	U
4918  A302 57           	ld d,a			;a302	57 	W
4919  A303 FC 08 08     	call m,00808h		;a303	fc 08 08 	. . .
4920  A306 15           	dec d			;a306	15 	.
4921  A307 55           	ld d,l			;a307	55 	U
4922  A308 55           	ld d,l			;a308	55 	U
4923  A309 54           	ld d,h			;a309	54 	T
4924  A30A 00           	nop			;a30a	00 	.
4925  A30B 00           	nop			;a30b	00 	.
4926  A30C 00           	nop			;a30c	00 	.
4927  A30D 55           	ld d,l			;a30d	55 	U
4928  A30E 55           	ld d,l			;a30e	55 	U
4929  A30F 40           	ld b,b			;a30f	40 	@
4930  A310 00           	nop			;a310	00 	.
4931  A311 00           	nop			;a311	00 	.
4932  A312 00           	nop			;a312	00 	.
4933  A313 02           	ld (bc),a			;a313	02 	.
4934  A314 02           	ld (bc),a			;a314	02 	.
4935  A315 08           	ex af,af'			;a315	08 	.
4936  A316 00           	nop			;a316	00 	.
4937  A317 00           	nop			;a317	00 	.
4938  A318 00           	nop			;a318	00 	.
4939  A319 AA           	xor d			;a319	aa 	.
4940  A31A AA           	xor d			;a31a	aa 	.
4941  A31B A0           	and b			;a31b	a0 	.
4942  A31C 00           	nop			;a31c	00 	.
4943  A31D 2A AA AA     	ld hl,(0aaaah)		;a31d	2a aa aa 	* . .
4944  A320 AA           	xor d			;a320	aa 	.
4945  A321 80           	add a,b			;a321	80 	.
4946  A322 00           	nop			;a322	00 	.
4947  A323 00           	nop			;a323	00 	.
4948  A324 00           	nop			;a324	00 	.
4949  A325 A0           	and b			;a325	a0 	.
4950  A326 00           	nop			;a326	00 	.
4951  A327 00           	nop			;a327	00 	.
4952  A328 00           	nop			;a328	00 	.
4953  A329 00           	nop			;a329	00 	.
4954  A32A 01 54 00     	ld bc,00054h		;a32a	01 54 00 	. T .
4955  A32D 00           	nop			;a32d	00 	.
4956  A32E 00           	nop			;a32e	00 	.
4957  A32F 00           	nop			;a32f	00 	.
4958  A330 17           	rla			;a330	17 	.
4959  A331 FD 40 00     	defb 0fdh,040h,000h	;illegal sequence		;a331	fd 40 00 	. @ .
4960  A334 00           	nop			;a334	00 	.
4961  A335 00           	nop			;a335	00 	.
4962  A336 5F           	ld e,a			;a336	5f 	_
4963  A337 FF           	rst 38h			;a337	ff 	.
4964  A338 50           	ld d,b			;a338	50 	P
4965  A339 00           	nop			;a339	00 	.
4966  A33A 00           	nop			;a33a	00 	.
4967  A33B 00           	nop			;a33b	00 	.
4968  A33C 5F           	ld e,a			;a33c	5f 	_
4969  A33D FF           	rst 38h			;a33d	ff 	.
4970  A33E 50           	ld d,b			;a33e	50 	P
4971  A33F 00           	nop			;a33f	00 	.
4972  A340 00           	nop			;a340	00 	.
4973  A341 00           	nop			;a341	00 	.
4974  A342 15           	dec d			;a342	15 	.
4975  A343 55           	ld d,l			;a343	55 	U
4976  A344 40           	ld b,b			;a344	40 	@
4977  A345 00           	nop			;a345	00 	.
4978  A346 00           	nop			;a346	00 	.
4979  A347 00           	nop			;a347	00 	.
4980  A348 20 50        	jr nz,$+82		;a348	20 50 	  P
4981  A34A 80           	add a,b			;a34a	80 	.
4982  A34B 00           	nop			;a34b	00 	.
4983  A34C 00           	nop			;a34c	00 	.
4984  A34D 00           	nop			;a34d	00 	.
4985  A34E 80           	add a,b			;a34e	80 	.
4986  A34F 00           	nop			;a34f	00 	.
4987  A350 20 00        	jr nz,la352h		;a350	20 00 	  .
4988  A352              la352h:
4989  A352 00           	nop			;a352	00 	.
4990  A353 00           	nop			;a353	00 	.
4991  A354 2A AA 80     	ld hl,(l80aah)		;a354	2a aa 80 	* . .
4992  A357 00           	nop			;a357	00 	.
4993  A358 00           	nop			;a358	00 	.
4994  A359 00           	nop			;a359	00 	.
4995  A35A 00           	nop			;a35a	00 	.
4996  A35B A0           	and b			;a35b	a0 	.
4997  A35C 00           	nop			;a35c	00 	.
4998  A35D 00           	nop			;a35d	00 	.
4999  A35E 00           	nop			;a35e	00 	.
5000  A35F 00           	nop			;a35f	00 	.
5001  A360 01 54 00     	ld bc,00054h		;a360	01 54 00 	. T .
5002  A363 00           	nop			;a363	00 	.
5003  A364 00           	nop			;a364	00 	.
5004  A365 00           	nop			;a365	00 	.
5005  A366 17           	rla			;a366	17 	.
5006  A367 FD 40 00     	defb 0fdh,040h,000h	;illegal sequence		;a367	fd 40 00 	. @ .
5007  A36A 00           	nop			;a36a	00 	.
5008  A36B 00           	nop			;a36b	00 	.
5009  A36C 5F           	ld e,a			;a36c	5f 	_
5010  A36D FF           	rst 38h			;a36d	ff 	.
5011  A36E 50           	ld d,b			;a36e	50 	P
5012  A36F 00           	nop			;a36f	00 	.
5013  A370 00           	nop			;a370	00 	.
5014  A371 00           	nop			;a371	00 	.
5015  A372 5F           	ld e,a			;a372	5f 	_
5016  A373 FF           	rst 38h			;a373	ff 	.
5017  A374 50           	ld d,b			;a374	50 	P
5018  A375 00           	nop			;a375	00 	.
5019  A376 00           	nop			;a376	00 	.
5020  A377 00           	nop			;a377	00 	.
5021  A378 15           	dec d			;a378	15 	.
5022  A379 55           	ld d,l			;a379	55 	U
5023  A37A 40           	ld b,b			;a37a	40 	@
5024  A37B 00           	nop			;a37b	00 	.
5025  A37C 00           	nop			;a37c	00 	.
5026  A37D 00           	nop			;a37d	00 	.
5027  A37E 20 50        	jr nz,la3d0h		;a37e	20 50 	  P
5028  A380 80           	add a,b			;a380	80 	.
5029  A381 00           	nop			;a381	00 	.
5030  A382 00           	nop			;a382	00 	.
5031  A383 00           	nop			;a383	00 	.
5032  A384 80           	add a,b			;a384	80 	.
5033  A385 00           	nop			;a385	00 	.
5034  A386 20 00        	jr nz,la388h		;a386	20 00 	  .
5035  A388              la388h:
5036  A388 0A           	ld a,(bc)			;a388	0a 	.
5037  A389 A0           	and b			;a389	a0 	.
5038  A38A 2A A8 AA     	ld hl,(0aaa8h)		;a38a	2a a8 aa 	* . .
5039  A38D AA           	xor d			;a38d	aa 	.
5040  A38E 10 04        	djnz la394h		;a38e	10 04 	. .
5041  A390 10 04        	djnz la396h		;a390	10 04 	. .
5042  A392 15           	dec d			;a392	15 	.
5043  A393 54           	ld d,h			;a393	54 	T
5044  A394              la394h:
5045  A394 15           	dec d			;a394	15 	.
5046  A395 54           	ld d,h			;a395	54 	T
5047  A396              la396h:
5048  A396 0C           	inc c			;a396	0c 	.
5049  A397 30 0C        	jr nc,la3a5h		;a397	30 0c 	0 .
5050  A399 30 0C        	jr nc,la3a7h		;a399	30 0c 	0 .
5051  A39B 30 30        	jr nc,$+50		;a39b	30 30 	0 0
5052  A39D 0C           	inc c			;a39d	0c 	.
5053  A39E 30 0C        	jr nc,la3ach		;a39e	30 0c 	0 .
5054  A3A0 30 0C        	jr nc,la3aeh		;a3a0	30 0c 	0 .
5055  A3A2 C0           	ret nz			;a3a2	c0 	.
5056  A3A3 03           	inc bc			;a3a3	03 	.
5057  A3A4 C0           	ret nz			;a3a4	c0 	.
5058  A3A5              la3a5h:
5059  A3A5 03           	inc bc			;a3a5	03 	.
5060  A3A6 C0           	ret nz			;a3a6	c0 	.
5061  A3A7              la3a7h:
5062  A3A7 03           	inc bc			;a3a7	03 	.
5063  A3A8              la3a8h:
5064  A3A8 00           	nop			;a3a8	00 	.
5065  A3A9 0A           	ld a,(bc)			;a3a9	0a 	.
5066  A3AA AA           	xor d			;a3aa	aa 	.
5067  A3AB A0           	and b			;a3ab	a0 	.
5068  A3AC              la3ach:
5069  A3AC 00           	nop			;a3ac	00 	.
5070  A3AD 00           	nop			;a3ad	00 	.
5071  A3AE              la3aeh:
5072  A3AE AA           	xor d			;a3ae	aa 	.
5073  A3AF AA           	xor d			;a3af	aa 	.
5074  A3B0 AA           	xor d			;a3b0	aa 	.
5075  A3B1 00           	nop			;a3b1	00 	.
5076  A3B2 0A           	ld a,(bc)			;a3b2	0a 	.
5077  A3B3 AA           	xor d			;a3b3	aa 	.
5078  A3B4 AA           	xor d			;a3b4	aa 	.
5079  A3B5 AA           	xor d			;a3b5	aa 	.
5080  A3B6 A0           	and b			;a3b6	a0 	.
5081  A3B7 AA           	xor d			;a3b7	aa 	.
5082  A3B8 AA           	xor d			;a3b8	aa 	.
5083  A3B9 AA           	xor d			;a3b9	aa 	.
5084  A3BA AA           	xor d			;a3ba	aa 	.
5085  A3BB AA           	xor d			;a3bb	aa 	.
5086  A3BC 30 00        	jr nc,la3beh		;a3bc	30 00 	0 .
5087  A3BE              la3beh:
5088  A3BE 00           	nop			;a3be	00 	.
5089  A3BF 00           	nop			;a3bf	00 	.
5090  A3C0 0C           	inc c			;a3c0	0c 	.
5091  A3C1 31 54 05     	ld sp,00554h		;a3c1	31 54 05 	1 T .
5092  A3C4 55           	ld d,l			;a3c4	55 	U
5093  A3C5 4C           	ld c,h			;a3c5	4c 	L
5094  A3C6 31 54 04     	ld sp,00454h		;a3c6	31 54 04 	1 T .
5095  A3C9 10 4C        	djnz la417h		;a3c9	10 4c 	. L
5096  A3CB 31 54 05     	ld sp,00554h		;a3cb	31 54 05 	1 T .
5097  A3CE 55           	ld d,l			;a3ce	55 	U
5098  A3CF 4C           	ld c,h			;a3cf	4c 	L
5099  A3D0              la3d0h:
5100  A3D0 31 54 04     	ld sp,00454h		;a3d0	31 54 04 	1 T .
5101  A3D3 10 4C        	djnz la421h		;a3d3	10 4c 	. L
5102  A3D5 31 54 05     	ld sp,00554h		;a3d5	31 54 05 	1 T .
5103  A3D8 55           	ld d,l			;a3d8	55 	U
5104  A3D9 4C           	ld c,h			;a3d9	4c 	L
5105  A3DA 31 54 00     	ld sp,00054h		;a3da	31 54 00 	1 T .
5106  A3DD 00           	nop			;a3dd	00 	.
5107  A3DE 0C           	inc c			;a3de	0c 	.
5108  A3DF              la3dfh:
5109  A3DF 08           	ex af,af'			;a3df	08 	.
5110  A3E0 00           	nop			;a3e0	00 	.
5111  A3E1 15           	dec d			;a3e1	15 	.
5112  A3E2 00           	nop			;a3e2	00 	.
5113  A3E3 44           	ld b,h			;a3e3	44 	D
5114  A3E4 40           	ld b,b			;a3e4	40 	@
5115  A3E5 4C           	ld c,h			;a3e5	4c 	L
5116  A3E6 40           	ld b,b			;a3e6	40 	@
5117  A3E7 33           	inc sp			;a3e7	33 	3
5118  A3E8 30 30        	jr nc,la41ah		;a3e8	30 30 	0 0
5119  A3EA C0           	ret nz			;a3ea	c0 	.
5120  A3EB 30 00        	jr nc,la3edh		;a3eb	30 00 	0 .
5121  A3ED              la3edh:
5122  A3ED 00           	nop			;a3ed	00 	.
5123  A3EE 80           	add a,b			;a3ee	80 	.
5124  A3EF 11 50 04     	ld de,00450h		;a3ef	11 50 04 	. P .
5125  A3F2 44           	ld b,h			;a3f2	44 	D
5126  A3F3 00           	nop			;a3f3	00 	.
5127  A3F4 C1           	pop bc			;a3f4	c1 	.
5128  A3F5 03           	inc bc			;a3f5	03 	.
5129  A3F6 30 0C        	jr nc,la404h		;a3f6	30 0c 	0 .
5130  A3F8 0C           	inc c			;a3f8	0c 	.
5131  A3F9 30 03        	jr nc,la3feh		;a3f9	30 03 	0 .
5132  A3FB 02           	ld (bc),a			;a3fb	02 	.
5133  A3FC 00           	nop			;a3fc	00 	.
5134  A3FD 05           	dec b			;a3fd	05 	.
5135  A3FE              la3feh:
5136  A3FE 44           	ld b,h			;a3fe	44 	D
5137  A3FF 11 10 43     	ld de,04310h		;a3ff	11 10 43 	. . C
5138  A402 00           	nop			;a402	00 	.
5139  A403 0C           	inc c			;a403	0c 	.
5140  A404              la404h:
5141  A404 C0           	ret nz			;a404	c0 	.
5142  A405 30 30        	jr nc,la437h		;a405	30 30 	0 0
5143  A407 C0           	ret nz			;a407	c0 	.
5144  A408 0C           	inc c			;a408	0c 	.
5145  A409 00           	nop			;a409	00 	.
5146  A40A 20 00        	jr nz,la40ch		;a40a	20 00 	  .
5147  A40C              la40ch:
5148  A40C 54           	ld d,h			;a40c	54 	T
5149  A40D 01 11 01     	ld bc,00111h		;a40d	01 11 01 	. . .
5150  A410 31 0C CC     	ld sp,0cc0ch		;a410	31 0c cc 	1 . .
5151  A413 03           	inc bc			;a413	03 	.
5152  A414 0C           	inc c			;a414	0c 	.
5153  A415 00           	nop			;a415	00 	.
5154  A416 0C           	inc c			;a416	0c 	.
5155  A417              la417h:
5156  A417 00           	nop			;a417	00 	.
5157  A418 00           	nop			;a418	00 	.
5158  A419 00           	nop			;a419	00 	.
5159  A41A              la41ah:
5160  A41A 00           	nop			;a41a	00 	.
5161  A41B 00           	nop			;a41b	00 	.
5162  A41C 00           	nop			;a41c	00 	.
5163  A41D 55           	ld d,l			;a41d	55 	U
5164  A41E 55           	ld d,l			;a41e	55 	U
5165  A41F 00           	nop			;a41f	00 	.
5166  A420 00           	nop			;a420	00 	.
5167  A421              la421h:
5168  A421 00           	nop			;a421	00 	.
5169  A422 00           	nop			;a422	00 	.
5170  A423 00           	nop			;a423	00 	.
5171  A424 05           	dec b			;a424	05 	.
5172  A425 55           	ld d,l			;a425	55 	U
5173  A426 55           	ld d,l			;a426	55 	U
5174  A427 00           	nop			;a427	00 	.
5175  A428 FF           	rst 38h			;a428	ff 	.
5176  A429 FF           	rst 38h			;a429	ff 	.
5177  A42A FF           	rst 38h			;a42a	ff 	.
5178  A42B FF           	rst 38h			;a42b	ff 	.
5179  A42C 55           	ld d,l			;a42c	55 	U
5180  A42D 55           	ld d,l			;a42d	55 	U
5181  A42E 55           	ld d,l			;a42e	55 	U
5182  A42F 0F           	rrca			;a42f	0f 	.
5183  A430 FF           	rst 38h			;a430	ff 	.
5184  A431 FF           	rst 38h			;a431	ff 	.
5185  A432 FF           	rst 38h			;a432	ff 	.
5186  A433 F5           	push af			;a433	f5 	.
5187  A434 55           	ld d,l			;a434	55 	U
5188  A435 55           	ld d,l			;a435	55 	U
5189  A436 55           	ld d,l			;a436	55 	U
5190  A437              la437h:
5191  A437 FF           	rst 38h			;a437	ff 	.
5192  A438 FF           	rst 38h			;a438	ff 	.
5193  A439 FF           	rst 38h			;a439	ff 	.
5194  A43A FF           	rst 38h			;a43a	ff 	.
5195  A43B 55           	ld d,l			;a43b	55 	U
5196  A43C 55           	ld d,l			;a43c	55 	U
5197  A43D 55           	ld d,l			;a43d	55 	U
5198  A43E 55           	ld d,l			;a43e	55 	U
5199  A43F 20 00        	jr nz,la441h		;a43f	20 00 	  .
5200  A441              la441h:
5201  A441 00           	nop			;a441	00 	.
5202  A442 00           	nop			;a442	00 	.
5203  A443 2A 82 A8     	ld hl,(la882h)		;a443	2a 82 a8 	* . .
5204  A446 00           	nop			;a446	00 	.
5205  A447 20 00        	jr nz,la449h		;a447	20 00 	  .
5206  A449              la449h:
5207  A449 00           	nop			;a449	00 	.
5208  A44A 00           	nop			;a44a	00 	.
5209  A44B 0A           	ld a,(bc)			;a44b	0a 	.
5210  A44C 00           	nop			;a44c	00 	.
5211  A44D A0           	and b			;a44d	a0 	.
5212  A44E 00           	nop			;a44e	00 	.
5213  A44F 21 54 55     	ld hl,05554h		;a44f	21 54 55 	! T U
5214  A452 15           	dec d			;a452	15 	.
5215  A453 4A           	ld c,d			;a453	4a 	J
5216  A454 00           	nop			;a454	00 	.
5217  A455 A0           	and b			;a455	a0 	.
5218  A456 55           	ld d,l			;a456	55 	U
5219  A457 21 04 41     	ld hl,04104h		;a457	21 04 41 	! . A
5220  A45A 10 4A        	djnz la4a6h		;a45a	10 4a 	. J
5221  A45C 00           	nop			;a45c	00 	.
5222  A45D A0           	and b			;a45d	a0 	.
5223  A45E 41           	ld b,c			;a45e	41 	A
5224  A45F 21 04 41     	ld hl,04104h		;a45f	21 04 41 	! . A
5225  A462 10 4A        	djnz la4aeh		;a462	10 4a 	. J
5226  A464 00           	nop			;a464	00 	.
5227  A465 A0           	and b			;a465	a0 	.
5228  A466 41           	ld b,c			;a466	41 	A
5229  A467 21 54 55     	ld hl,05554h		;a467	21 54 55 	! T U
5230  A46A 15           	dec d			;a46a	15 	.
5231  A46B 4A           	ld c,d			;a46b	4a 	J
5232  A46C 00           	nop			;a46c	00 	.
5233  A46D A0           	and b			;a46d	a0 	.
5234  A46E 41           	ld b,c			;a46e	41 	A
5235  A46F 20 00        	jr nz,la471h		;a46f	20 00 	  .
5236  A471              la471h:
5237  A471 00           	nop			;a471	00 	.
5238  A472 00           	nop			;a472	00 	.
5239  A473 0A           	ld a,(bc)			;a473	0a 	.
5240  A474 00           	nop			;a474	00 	.
5241  A475 A0           	and b			;a475	a0 	.
5242  A476 41           	ld b,c			;a476	41 	A
5243  A477 20 00        	jr nz,la479h		;a477	20 00 	  .
5244  A479              la479h:
5245  A479 00           	nop			;a479	00 	.
5246  A47A 00           	nop			;a47a	00 	.
5247  A47B 0A           	ld a,(bc)			;a47b	0a 	.
5248  A47C 00           	nop			;a47c	00 	.
5249  A47D A0           	and b			;a47d	a0 	.
5250  A47E 41           	ld b,c			;a47e	41 	A
5251  A47F 20 00        	jr nz,la481h		;a47f	20 00 	  .
5252  A481              la481h:
5253  A481 00           	nop			;a481	00 	.
5254  A482 00           	nop			;a482	00 	.
5255  A483 2A 82 A8     	ld hl,(la882h)		;a483	2a 82 a8 	* . .
5256  A486 55           	ld d,l			;a486	55 	U
5257  A487              la487h:
5258  A487 55           	ld d,l			;a487	55 	U
5259  A488 55           	ld d,l			;a488	55 	U
5260  A489 00           	nop			;a489	00 	.
5261  A48A 00           	nop			;a48a	00 	.
5262  A48B 00           	nop			;a48b	00 	.
5263  A48C 00           	nop			;a48c	00 	.
5264  A48D 00           	nop			;a48d	00 	.
5265  A48E 00           	nop			;a48e	00 	.
5266  A48F 55           	ld d,l			;a48f	55 	U
5267  A490 55           	ld d,l			;a490	55 	U
5268  A491 50           	ld d,b			;a491	50 	P
5269  A492 00           	nop			;a492	00 	.
5270  A493 00           	nop			;a493	00 	.
5271  A494 00           	nop			;a494	00 	.
5272  A495 00           	nop			;a495	00 	.
5273  A496 00           	nop			;a496	00 	.
5274  A497 55           	ld d,l			;a497	55 	U
5275  A498 55           	ld d,l			;a498	55 	U
5276  A499 55           	ld d,l			;a499	55 	U
5277  A49A FF           	rst 38h			;a49a	ff 	.
5278  A49B FF           	rst 38h			;a49b	ff 	.
5279  A49C FF           	rst 38h			;a49c	ff 	.
5280  A49D FF           	rst 38h			;a49d	ff 	.
5281  A49E 00           	nop			;a49e	00 	.
5282  A49F 55           	ld d,l			;a49f	55 	U
5283  A4A0 55           	ld d,l			;a4a0	55 	U
5284  A4A1 55           	ld d,l			;a4a1	55 	U
5285  A4A2 5F           	ld e,a			;a4a2	5f 	_
5286  A4A3 FF           	rst 38h			;a4a3	ff 	.
5287  A4A4 FF           	rst 38h			;a4a4	ff 	.
5288  A4A5 FF           	rst 38h			;a4a5	ff 	.
5289  A4A6              la4a6h:
5290  A4A6 F0           	ret p			;a4a6	f0 	.
5291  A4A7 55           	ld d,l			;a4a7	55 	U
5292  A4A8 55           	ld d,l			;a4a8	55 	U
5293  A4A9 55           	ld d,l			;a4a9	55 	U
5294  A4AA 55           	ld d,l			;a4aa	55 	U
5295  A4AB FF           	rst 38h			;a4ab	ff 	.
5296  A4AC FF           	rst 38h			;a4ac	ff 	.
5297  A4AD FF           	rst 38h			;a4ad	ff 	.
5298  A4AE              la4aeh:
5299  A4AE FF           	rst 38h			;a4ae	ff 	.
5300  A4AF 00           	nop			;a4af	00 	.
5301  A4B0 2A 82 A8     	ld hl,(la882h)		;a4b0	2a 82 a8 	* . .
5302  A4B3 00           	nop			;a4b3	00 	.
5303  A4B4 00           	nop			;a4b4	00 	.
5304  A4B5 00           	nop			;a4b5	00 	.
5305  A4B6 08           	ex af,af'			;a4b6	08 	.
5306  A4B7 00           	nop			;a4b7	00 	.
5307  A4B8 0A           	ld a,(bc)			;a4b8	0a 	.
5308  A4B9 00           	nop			;a4b9	00 	.
5309  A4BA A0           	and b			;a4ba	a0 	.
5310  A4BB 00           	nop			;a4bb	00 	.
5311  A4BC 00           	nop			;a4bc	00 	.
5312  A4BD 00           	nop			;a4bd	00 	.
5313  A4BE 08           	ex af,af'			;a4be	08 	.
5314  A4BF 55           	ld d,l			;a4bf	55 	U
5315  A4C0 0A           	ld a,(bc)			;a4c0	0a 	.
5316  A4C1 00           	nop			;a4c1	00 	.
5317  A4C2 A1           	and c			;a4c2	a1 	.
5318  A4C3 54           	ld d,h			;a4c3	54 	T
5319  A4C4 55           	ld d,l			;a4c4	55 	U
5320  A4C5 15           	dec d			;a4c5	15 	.
5321  A4C6 48           	ld c,b			;a4c6	48 	H
5322  A4C7 41           	ld b,c			;a4c7	41 	A
5323  A4C8 0A           	ld a,(bc)			;a4c8	0a 	.
5324  A4C9 00           	nop			;a4c9	00 	.
5325  A4CA A1           	and c			;a4ca	a1 	.
5326  A4CB 04           	inc b			;a4cb	04 	.
5327  A4CC 41           	ld b,c			;a4cc	41 	A
5328  A4CD 10 48        	djnz la517h		;a4cd	10 48 	. H
5329  A4CF 41           	ld b,c			;a4cf	41 	A
5330  A4D0 0A           	ld a,(bc)			;a4d0	0a 	.
5331  A4D1 00           	nop			;a4d1	00 	.
5332  A4D2 A1           	and c			;a4d2	a1 	.
5333  A4D3 04           	inc b			;a4d3	04 	.
5334  A4D4 41           	ld b,c			;a4d4	41 	A
5335  A4D5 10 48        	djnz la51fh		;a4d5	10 48 	. H
5336  A4D7 41           	ld b,c			;a4d7	41 	A
5337  A4D8 0A           	ld a,(bc)			;a4d8	0a 	.
5338  A4D9 00           	nop			;a4d9	00 	.
5339  A4DA A1           	and c			;a4da	a1 	.
5340  A4DB 54           	ld d,h			;a4db	54 	T
5341  A4DC 55           	ld d,l			;a4dc	55 	U
5342  A4DD 15           	dec d			;a4dd	15 	.
5343  A4DE 48           	ld c,b			;a4de	48 	H
5344  A4DF 41           	ld b,c			;a4df	41 	A
5345  A4E0 0A           	ld a,(bc)			;a4e0	0a 	.
5346  A4E1 00           	nop			;a4e1	00 	.
5347  A4E2 A0           	and b			;a4e2	a0 	.
5348  A4E3 00           	nop			;a4e3	00 	.
5349  A4E4 00           	nop			;a4e4	00 	.
5350  A4E5 00           	nop			;a4e5	00 	.
5351  A4E6 08           	ex af,af'			;a4e6	08 	.
5352  A4E7 41           	ld b,c			;a4e7	41 	A
5353  A4E8 0A           	ld a,(bc)			;a4e8	0a 	.
5354  A4E9 00           	nop			;a4e9	00 	.
5355  A4EA A0           	and b			;a4ea	a0 	.
5356  A4EB 00           	nop			;a4eb	00 	.
5357  A4EC 00           	nop			;a4ec	00 	.
5358  A4ED 00           	nop			;a4ed	00 	.
5359  A4EE 08           	ex af,af'			;a4ee	08 	.
5360  A4EF 55           	ld d,l			;a4ef	55 	U
5361  A4F0 2A 82 A8     	ld hl,(la882h)		;a4f0	2a 82 a8 	* . .
5362  A4F3 00           	nop			;a4f3	00 	.
5363  A4F4 00           	nop			;a4f4	00 	.
5364  A4F5 00           	nop			;a4f5	00 	.
5365  A4F6 08           	ex af,af'			;a4f6	08 	.
5366  A4F7              la4f7h:
5367  A4F7 00           	nop			;a4f7	00 	.
5368  A4F8 10 00        	djnz la4fah		;a4f8	10 00 	. .
5369  A4FA              la4fah:
5370  A4FA 00           	nop			;a4fa	00 	.
5371  A4FB 44           	ld b,h			;a4fb	44 	D
5372  A4FC 00           	nop			;a4fc	00 	.
5373  A4FD 00           	nop			;a4fd	00 	.
5374  A4FE 44           	ld b,h			;a4fe	44 	D
5375  A4FF 00           	nop			;a4ff	00 	.
5376  A500 00           	nop			;a500	00 	.
5377  A501 44           	ld b,h			;a501	44 	D
5378  A502 00           	nop			;a502	00 	.
5379  A503 01 45 00     	ld bc,00045h		;a503	01 45 00 	. E .
5380  A506 01 11 00     	ld bc,00011h		;a506	01 11 00 	. . .
5381  A509 01 45 00     	ld bc,00045h		;a509	01 45 00 	. E .
5382  A50C 04           	inc b			;a50c	04 	.
5383  A50D 10 40        	djnz la54fh		;a50d	10 40 	. @
5384  A50F 04           	inc b			;a50f	04 	.
5385  A510 44           	ld b,h			;a510	44 	D
5386  A511 40           	ld b,b			;a511	40 	@
5387  A512 05           	dec b			;a512	05 	.
5388  A513 01 40 10     	ld bc,01040h		;a513	01 40 10 	. @ .
5389  A516 44           	ld b,h			;a516	44 	D
5390  A517              la517h:
5391  A517 10 10        	djnz la529h		;a517	10 10 	. .
5392  A519 10 10        	djnz la52bh		;a519	10 10 	. .
5393  A51B 10 44        	djnz la561h		;a51b	10 44 	. D
5394  A51D 10 41        	djnz la560h		;a51d	10 41 	. A
5395  A51F              la51fh:
5396  A51F 01 04 44     	ld bc,04404h		;a51f	01 04 44 	. . D
5397  A522 00           	nop			;a522	00 	.
5398  A523 44           	ld b,h			;a523	44 	D
5399  A524 50           	ld d,b			;a524	50 	P
5400  A525 00           	nop			;a525	00 	.
5401  A526 14           	inc d			;a526	14 	.
5402  A527              la527h:
5403  A527 00           	nop			;a527	00 	.
5404  A528 00           	nop			;a528	00 	.
5405  A529              la529h:
5406  A529 00           	nop			;a529	00 	.
5407  A52A 00           	nop			;a52a	00 	.
5408  A52B              la52bh:
5409  A52B 00           	nop			;a52b	00 	.
5410  A52C 00           	nop			;a52c	00 	.
5411  A52D 00           	nop			;a52d	00 	.
5412  A52E 00           	nop			;a52e	00 	.
5413  A52F 00           	nop			;a52f	00 	.
5414  A530 00           	nop			;a530	00 	.
5415  A531 00           	nop			;a531	00 	.
5416  A532 00           	nop			;a532	00 	.
5417  A533 00           	nop			;a533	00 	.
5418  A534 00           	nop			;a534	00 	.
5419  A535 00           	nop			;a535	00 	.
5420  A536 00           	nop			;a536	00 	.
5421  A537 00           	nop			;a537	00 	.
5422  A538 00           	nop			;a538	00 	.
5423  A539 00           	nop			;a539	00 	.
5424  A53A 00           	nop			;a53a	00 	.
5425  A53B 00           	nop			;a53b	00 	.
5426  A53C 00           	nop			;a53c	00 	.
5427  A53D 00           	nop			;a53d	00 	.
5428  A53E 00           	nop			;a53e	00 	.
5429  A53F 00           	nop			;a53f	00 	.
5430  A540 00           	nop			;a540	00 	.
5431  A541 00           	nop			;a541	00 	.
5432  A542 00           	nop			;a542	00 	.
5433  A543 00           	nop			;a543	00 	.
5434  A544 00           	nop			;a544	00 	.
5435  A545 00           	nop			;a545	00 	.
5436  A546 00           	nop			;a546	00 	.
5437  A547 00           	nop			;a547	00 	.
5438  A548 00           	nop			;a548	00 	.
5439  A549 00           	nop			;a549	00 	.
5440  A54A 00           	nop			;a54a	00 	.
5441  A54B 00           	nop			;a54b	00 	.
5442  A54C 00           	nop			;a54c	00 	.
5443  A54D 00           	nop			;a54d	00 	.
5444  A54E 00           	nop			;a54e	00 	.
5445  A54F              la54fh:
5446  A54F 00           	nop			;a54f	00 	.
5447  A550 00           	nop			;a550	00 	.
5448  A551 00           	nop			;a551	00 	.
5449  A552 00           	nop			;a552	00 	.
5450  A553 00           	nop			;a553	00 	.
5451  A554 00           	nop			;a554	00 	.
5452  A555 00           	nop			;a555	00 	.
5453  A556 00           	nop			;a556	00 	.
5454  A557 00           	nop			;a557	00 	.
5455  A558 00           	nop			;a558	00 	.
5456  A559 00           	nop			;a559	00 	.
5457  A55A 00           	nop			;a55a	00 	.
5458  A55B 00           	nop			;a55b	00 	.
5459  A55C 00           	nop			;a55c	00 	.
5460  A55D 00           	nop			;a55d	00 	.
5461  A55E 00           	nop			;a55e	00 	.
5462  A55F 00           	nop			;a55f	00 	.
5463  A560              la560h:
5464  A560 00           	nop			;a560	00 	.
5465  A561              la561h:
5466  A561 00           	nop			;a561	00 	.
5467  A562 00           	nop			;a562	00 	.
5468  A563 00           	nop			;a563	00 	.
5469  A564 00           	nop			;a564	00 	.
5470  A565 00           	nop			;a565	00 	.
5471  A566 00           	nop			;a566	00 	.
5472  A567 00           	nop			;a567	00 	.
5473  A568 00           	nop			;a568	00 	.
5474  A569 00           	nop			;a569	00 	.
5475  A56A 00           	nop			;a56a	00 	.
5476  A56B 00           	nop			;a56b	00 	.
5477  A56C 00           	nop			;a56c	00 	.
5478  A56D 00           	nop			;a56d	00 	.
5479  A56E 00           	nop			;a56e	00 	.
5480  A56F 00           	nop			;a56f	00 	.
5481  A570 00           	nop			;a570	00 	.
5482  A571 00           	nop			;a571	00 	.
5483  A572 00           	nop			;a572	00 	.
5484  A573 00           	nop			;a573	00 	.
5485  A574 00           	nop			;a574	00 	.
5486  A575 00           	nop			;a575	00 	.
5487  A576 00           	nop			;a576	00 	.
5488  A577 00           	nop			;a577	00 	.
5489  A578 00           	nop			;a578	00 	.
5490  A579 00           	nop			;a579	00 	.
5491  A57A 00           	nop			;a57a	00 	.
5492  A57B 00           	nop			;a57b	00 	.
5493  A57C 00           	nop			;a57c	00 	.
5494  A57D 00           	nop			;a57d	00 	.
5495  A57E 00           	nop			;a57e	00 	.
5496  A57F 00           	nop			;a57f	00 	.
5497  A580 00           	nop			;a580	00 	.
5498  A581 00           	nop			;a581	00 	.
5499  A582 00           	nop			;a582	00 	.
5500  A583 00           	nop			;a583	00 	.
5501  A584 00           	nop			;a584	00 	.
5502  A585 00           	nop			;a585	00 	.
5503  A586 00           	nop			;a586	00 	.
5504  A587 00           	nop			;a587	00 	.
5505  A588 00           	nop			;a588	00 	.
5506  A589 00           	nop			;a589	00 	.
5507  A58A 00           	nop			;a58a	00 	.
5508  A58B 00           	nop			;a58b	00 	.
5509  A58C 00           	nop			;a58c	00 	.
5510  A58D 00           	nop			;a58d	00 	.
5511  A58E 00           	nop			;a58e	00 	.
5512  A58F 00           	nop			;a58f	00 	.
5513  A590 00           	nop			;a590	00 	.
5514  A591 00           	nop			;a591	00 	.
5515  A592 00           	nop			;a592	00 	.
5516  A593 00           	nop			;a593	00 	.
5517  A594 00           	nop			;a594	00 	.
5518  A595 00           	nop			;a595	00 	.
5519  A596 00           	nop			;a596	00 	.
5520  A597              la597h:
5521  A597 FC 00 FF     	call m,0ff00h		;a597	fc 00 ff 	. . .
5522  A59A F0           	ret p			;a59a	f0 	.
5523  A59B 00           	nop			;a59b	00 	.
5524  A59C 00           	nop			;a59c	00 	.
5525  A59D CF           	rst 8			;a59d	cf 	.
5526  A59E FF           	rst 38h			;a59e	ff 	.
5527  A59F FF           	rst 38h			;a59f	ff 	.
5528  A5A0 FF           	rst 38h			;a5a0	ff 	.
5529  A5A1 C0           	ret nz			;a5a1	c0 	.
5530  A5A2 00           	nop			;a5a2	00 	.
5531  A5A3 FC 00 FF     	call m,0ff00h		;a5a3	fc 00 ff 	. . .
5532  A5A6 FF           	rst 38h			;a5a6	ff 	.
5533  A5A7 C0           	ret nz			;a5a7	c0 	.
5534  A5A8 00           	nop			;a5a8	00 	.
5535  A5A9 00           	nop			;a5a9	00 	.
5536  A5AA 00           	nop			;a5aa	00 	.
5537  A5AB 03           	inc bc			;a5ab	03 	.
5538  A5AC F0           	ret p			;a5ac	f0 	.
5539  A5AD 00           	nop			;a5ad	00 	.
5540  A5AE 00           	nop			;a5ae	00 	.
5541  A5AF 00           	nop			;a5af	00 	.
5542  A5B0 0A           	ld a,(bc)			;a5b0	0a 	.
5543  A5B1 AA           	xor d			;a5b1	aa 	.
5544  A5B2 AA           	xor d			;a5b2	aa 	.
5545  A5B3 AA           	xor d			;a5b3	aa 	.
5546  A5B4 00           	nop			;a5b4	00 	.
5547  A5B5 00           	nop			;a5b5	00 	.
5548  A5B6 2A AA AA     	ld hl,(0aaaah)		;a5b6	2a aa aa 	* . .
5549  A5B9 AA           	xor d			;a5b9	aa 	.
5550  A5BA 00           	nop			;a5ba	00 	.
5551  A5BB 00           	nop			;a5bb	00 	.
5552  A5BC 81           	add a,c			;a5bc	81 	.
5553  A5BD 55           	ld d,l			;a5bd	55 	U
5554  A5BE 55           	ld d,l			;a5be	55 	U
5555  A5BF 50           	ld d,b			;a5bf	50 	P
5556  A5C0 80           	add a,b			;a5c0	80 	.
5557  A5C1 02           	ld (bc),a			;a5c1	02 	.
5558  A5C2 07           	rlca			;a5c2	07 	.
5559  A5C3 33           	inc sp			;a5c3	33 	3
5560  A5C4 33           	inc sp			;a5c4	33 	3
5561  A5C5 34           	inc (hl)			;a5c5	34 	4
5562  A5C6 20 00        	jr nz,la5c8h		;a5c6	20 00 	  .
5563  A5C8              la5c8h:
5564  A5C8 01 55 55     	ld bc,05555h		;a5c8	01 55 55 	. U U
5565  A5CB 50           	ld d,b			;a5cb	50 	P
5566  A5CC 00           	nop			;a5cc	00 	.
5567  A5CD 0F           	rrca			;a5cd	0f 	.
5568  A5CE C0           	ret nz			;a5ce	c0 	.
5569  A5CF 0F           	rrca			;a5cf	0f 	.
5570  A5D0 FF           	rst 38h			;a5d0	ff 	.
5571  A5D1 00           	nop			;a5d1	00 	.
5572  A5D2 00           	nop			;a5d2	00 	.
5573  A5D3 0C           	inc c			;a5d3	0c 	.
5574  A5D4 FF           	rst 38h			;a5d4	ff 	.
5575  A5D5 FF           	rst 38h			;a5d5	ff 	.
5576  A5D6 FF           	rst 38h			;a5d6	ff 	.
5577  A5D7 FC 00 0F     	call m,00f00h		;a5d7	fc 00 0f 	. . .
5578  A5DA C0           	ret nz			;a5da	c0 	.
5579  A5DB 0F           	rrca			;a5db	0f 	.
5580  A5DC FF           	rst 38h			;a5dc	ff 	.
5581  A5DD FC 00 00     	call m,00000h		;a5dd	fc 00 00 	. . .
5582  A5E0 00           	nop			;a5e0	00 	.
5583  A5E1 00           	nop			;a5e1	00 	.
5584  A5E2 3F           	ccf			;a5e2	3f 	?
5585  A5E3 00           	nop			;a5e3	00 	.
5586  A5E4 00           	nop			;a5e4	00 	.
5587  A5E5 00           	nop			;a5e5	00 	.
5588  A5E6 00           	nop			;a5e6	00 	.
5589  A5E7 AA           	xor d			;a5e7	aa 	.
5590  A5E8 AA           	xor d			;a5e8	aa 	.
5591  A5E9 AA           	xor d			;a5e9	aa 	.
5592  A5EA A0           	and b			;a5ea	a0 	.
5593  A5EB 00           	nop			;a5eb	00 	.
5594  A5EC 02           	ld (bc),a			;a5ec	02 	.
5595  A5ED AA           	xor d			;a5ed	aa 	.
5596  A5EE AA           	xor d			;a5ee	aa 	.
5597  A5EF AA           	xor d			;a5ef	aa 	.
5598  A5F0 A0           	and b			;a5f0	a0 	.
5599  A5F1 00           	nop			;a5f1	00 	.
5600  A5F2 08           	ex af,af'			;a5f2	08 	.
5601  A5F3 15           	dec d			;a5f3	15 	.
5602  A5F4 55           	ld d,l			;a5f4	55 	U
5603  A5F5 55           	ld d,l			;a5f5	55 	U
5604  A5F6 08           	ex af,af'			;a5f6	08 	.
5605  A5F7 00           	nop			;a5f7	00 	.
5606  A5F8 20 73        	jr nz,la66dh		;a5f8	20 73 	  s
5607  A5FA 33           	inc sp			;a5fa	33 	3
5608  A5FB 33           	inc sp			;a5fb	33 	3
5609  A5FC 42           	ld b,d			;a5fc	42 	B
5610  A5FD 00           	nop			;a5fd	00 	.
5611  A5FE 00           	nop			;a5fe	00 	.
5612  A5FF 15           	dec d			;a5ff	15 	.
5613  A600 55           	ld d,l			;a600	55 	U
5614  A601 55           	ld d,l			;a601	55 	U
5615  A602 00           	nop			;a602	00 	.
5616  A603 00           	nop			;a603	00 	.
5617  A604 00           	nop			;a604	00 	.
5618  A605 FF           	rst 38h			;a605	ff 	.
5619  A606 F0           	ret p			;a606	f0 	.
5620  A607 03           	inc bc			;a607	03 	.
5621  A608 F0           	ret p			;a608	f0 	.
5622  A609 00           	nop			;a609	00 	.
5623  A60A 3F           	ccf			;a60a	3f 	?
5624  A60B FF           	rst 38h			;a60b	ff 	.
5625  A60C FF           	rst 38h			;a60c	ff 	.
5626  A60D FF           	rst 38h			;a60d	ff 	.
5627  A60E 30 00        	jr nc,la610h		;a60e	30 00 	0 .
5628  A610              la610h:
5629  A610 3F           	ccf			;a610	3f 	?
5630  A611 FF           	rst 38h			;a611	ff 	.
5631  A612 F0           	ret p			;a612	f0 	.
5632  A613 03           	inc bc			;a613	03 	.
5633  A614 F0           	ret p			;a614	f0 	.
5634  A615 00           	nop			;a615	00 	.
5635  A616 00           	nop			;a616	00 	.
5636  A617 FC 00 00     	call m,00000h		;a617	fc 00 00 	. . .
5637  A61A 00           	nop			;a61a	00 	.
5638  A61B 0A           	ld a,(bc)			;a61b	0a 	.
5639  A61C AA           	xor d			;a61c	aa 	.
5640  A61D AA           	xor d			;a61d	aa 	.
5641  A61E AA           	xor d			;a61e	aa 	.
5642  A61F 00           	nop			;a61f	00 	.
5643  A620 00           	nop			;a620	00 	.
5644  A621 0A           	ld a,(bc)			;a621	0a 	.
5645  A622 AA           	xor d			;a622	aa 	.
5646  A623 AA           	xor d			;a623	aa 	.
5647  A624 AA           	xor d			;a624	aa 	.
5648  A625 80           	add a,b			;a625	80 	.
5649  A626 00           	nop			;a626	00 	.
5650  A627              la627h:
5651  A627 20 55        	jr nz,la67eh		;a627	20 55 	  U
5652  A629 55           	ld d,l			;a629	55 	U
5653  A62A 54           	ld d,h			;a62a	54 	T
5654  A62B 20 00        	jr nz,la62dh		;a62b	20 00 	  .
5655  A62D              la62dh:
5656  A62D 81           	add a,c			;a62d	81 	.
5657  A62E CC CC CD     	call z,0cdcch		;a62e	cc cc cd 	. . .
5658  A631 08           	ex af,af'			;a631	08 	.
5659  A632 00           	nop			;a632	00 	.
5660  A633 00           	nop			;a633	00 	.
5661  A634 55           	ld d,l			;a634	55 	U
5662  A635 55           	ld d,l			;a635	55 	U
5663  A636 54           	ld d,h			;a636	54 	T
5664  A637 00           	nop			;a637	00 	.
5665  A638 00           	nop			;a638	00 	.
5666  A639 00           	nop			;a639	00 	.
5667  A63A 00           	nop			;a63a	00 	.
5668  A63B 0F           	rrca			;a63b	0f 	.
5669  A63C FF           	rst 38h			;a63c	ff 	.
5670  A63D 00           	nop			;a63d	00 	.
5671  A63E 3F           	ccf			;a63e	3f 	?
5672  A63F 00           	nop			;a63f	00 	.
5673  A640 03           	inc bc			;a640	03 	.
5674  A641 FF           	rst 38h			;a641	ff 	.
5675  A642 FF           	rst 38h			;a642	ff 	.
5676  A643 FF           	rst 38h			;a643	ff 	.
5677  A644 F3           	di			;a644	f3 	.
5678  A645 00           	nop			;a645	00 	.
5679  A646 03           	inc bc			;a646	03 	.
5680  A647 FF           	rst 38h			;a647	ff 	.
5681  A648 FF           	rst 38h			;a648	ff 	.
5682  A649 00           	nop			;a649	00 	.
5683  A64A 3F           	ccf			;a64a	3f 	?
5684  A64B 00           	nop			;a64b	00 	.
5685  A64C 00           	nop			;a64c	00 	.
5686  A64D 0F           	rrca			;a64d	0f 	.
5687  A64E C0           	ret nz			;a64e	c0 	.
5688  A64F 00           	nop			;a64f	00 	.
5689  A650 00           	nop			;a650	00 	.
5690  A651 00           	nop			;a651	00 	.
5691  A652 AA           	xor d			;a652	aa 	.
5692  A653 AA           	xor d			;a653	aa 	.
5693  A654 AA           	xor d			;a654	aa 	.
5694  A655 A0           	and b			;a655	a0 	.
5695  A656 00           	nop			;a656	00 	.
5696  A657 00           	nop			;a657	00 	.
5697  A658 AA           	xor d			;a658	aa 	.
5698  A659 AA           	xor d			;a659	aa 	.
5699  A65A AA           	xor d			;a65a	aa 	.
5700  A65B A8           	xor b			;a65b	a8 	.
5701  A65C 00           	nop			;a65c	00 	.
5702  A65D 02           	ld (bc),a			;a65d	02 	.
5703  A65E 05           	dec b			;a65e	05 	.
5704  A65F 55           	ld d,l			;a65f	55 	U
5705  A660 55           	ld d,l			;a660	55 	U
5706  A661 42           	ld b,d			;a661	42 	B
5707  A662 00           	nop			;a662	00 	.
5708  A663 08           	ex af,af'			;a663	08 	.
5709  A664 1C           	inc e			;a664	1c 	.
5710  A665 CC CC D0     	call z,0d0cch		;a665	cc cc d0 	. . .
5711  A668 80           	add a,b			;a668	80 	.
5712  A669 00           	nop			;a669	00 	.
5713  A66A 05           	dec b			;a66a	05 	.
5714  A66B 55           	ld d,l			;a66b	55 	U
5715  A66C 55           	ld d,l			;a66c	55 	U
5716  A66D              la66dh:
5717  A66D 40           	ld b,b			;a66d	40 	@
5718  A66E 00           	nop			;a66e	00 	.
5719  A66F              la66fh:
5720  A66F 05           	dec b			;a66f	05 	.
5721  A670 00           	nop			;a670	00 	.
5722  A671 05           	dec b			;a671	05 	.
5723  A672 00           	nop			;a672	00 	.
5724  A673 35           	dec (hl)			;a673	35 	5
5725  A674 C0           	ret nz			;a674	c0 	.
5726  A675 F5           	push af			;a675	f5 	.
5727  A676 F0           	ret p			;a676	f0 	.
5728  A677 05           	dec b			;a677	05 	.
5729  A678 00           	nop			;a678	00 	.
5730  A679 05           	dec b			;a679	05 	.
5731  A67A 00           	nop			;a67a	00 	.
5732  A67B 25           	dec h			;a67b	25 	%
5733  A67C 80           	add a,b			;a67c	80 	.
5734  A67D A0           	and b			;a67d	a0 	.
5735  A67E              la67eh:
5736  A67E A0           	and b			;a67e	a0 	.
5737  A67F 80           	add a,b			;a67f	80 	.
5738  A680 20 00        	jr nz,la682h		;a680	20 00 	  .
5739  A682              la682h:
5740  A682 50           	ld d,b			;a682	50 	P
5741  A683 00           	nop			;a683	00 	.
5742  A684 50           	ld d,b			;a684	50 	P
5743  A685 03           	inc bc			;a685	03 	.
5744  A686 5C           	ld e,h			;a686	5c 	\
5745  A687 0F           	rrca			;a687	0f 	.
5746  A688 5F           	ld e,a			;a688	5f 	_
5747  A689 00           	nop			;a689	00 	.
5748  A68A 50           	ld d,b			;a68a	50 	P
5749  A68B 00           	nop			;a68b	00 	.
5750  A68C 50           	ld d,b			;a68c	50 	P
5751  A68D 02           	ld (bc),a			;a68d	02 	.
5752  A68E 58           	ld e,b			;a68e	58 	X
5753  A68F 0A           	ld a,(bc)			;a68f	0a 	.
5754  A690 0A           	ld a,(bc)			;a690	0a 	.
5755  A691 08           	ex af,af'			;a691	08 	.
5756  A692 02           	ld (bc),a			;a692	02 	.
5757  A693              la693h:
5758  A693 15           	dec d			;a693	15 	.
5759  A694 50           	ld d,b			;a694	50 	P
5760  A695 18 90        	jr la627h		;a695	18 90 	. .
5761  A697 12           	ld (de),a			;a697	12 	.
5762  A698 10 18        	djnz la6b2h		;a698	10 18 	. .
5763  A69A 95           	sub l			;a69a	95 	.
5764  A69B 12           	ld (de),a			;a69b	12 	.
5765  A69C 10 18        	djnz la6b6h		;a69c	10 18 	. .
5766  A69E 90           	sub b			;a69e	90 	.
5767  A69F 12           	ld (de),a			;a69f	12 	.
5768  A6A0 10 3F        	djnz la6e1h		;a6a0	10 3f 	. ?
5769  A6A2 F0           	ret p			;a6a2	f0 	.
5770  A6A3 FF           	rst 38h			;a6a3	ff 	.
5771  A6A4 FC 00 00     	call m,00000h		;a6a4	fc 00 00 	. . .
5772  A6A7 00           	nop			;a6a7	00 	.
5773  A6A8 00           	nop			;a6a8	00 	.
5774  A6A9 01 50 C0     	ld bc,0c050h		;a6a9	01 50 c0 	. P .
5775  A6AC 0F           	rrca			;a6ac	0f 	.
5776  A6AD FF           	rst 38h			;a6ad	ff 	.
5777  A6AE 00           	nop			;a6ae	00 	.
5778  A6AF 05           	dec b			;a6af	05 	.
5779  A6B0 50           	ld d,b			;a6b0	50 	P
5780  A6B1 C5           	push bc			;a6b1	c5 	.
5781  A6B2              la6b2h:
5782  A6B2 57           	ld d,a			;a6b2	57 	W
5783  A6B3 FD 55 55     	defb 0fdh,055h,055h	;illegal sequence		;a6b3	fd 55 55 	. U U
5784  A6B6              la6b6h:
5785  A6B6 50           	ld d,b			;a6b6	50 	P
5786  A6B7 D5           	push de			;a6b7	d5 	.
5787  A6B8 55           	ld d,l			;a6b8	55 	U
5788  A6B9 55           	ld d,l			;a6b9	55 	U
5789  A6BA 55           	ld d,l			;a6ba	55 	U
5790  A6BB 6A           	ld l,d			;a6bb	6a 	j
5791  A6BC 90           	sub b			;a6bc	90 	.
5792  A6BD D6 AA        	sub 0aah		;a6bd	d6 aa 	. .
5793  A6BF AA           	xor d			;a6bf	aa 	.
5794  A6C0 A5           	and l			;a6c0	a5 	.
5795  A6C1 55           	ld d,l			;a6c1	55 	U
5796  A6C2 50           	ld d,b			;a6c2	50 	P
5797  A6C3 C5           	push bc			;a6c3	c5 	.
5798  A6C4 55           	ld d,l			;a6c4	55 	U
5799  A6C5 55           	ld d,l			;a6c5	55 	U
5800  A6C6 55           	ld d,l			;a6c6	55 	U
5801  A6C7 00           	nop			;a6c7	00 	.
5802  A6C8 00           	nop			;a6c8	00 	.
5803  A6C9 C0           	ret nz			;a6c9	c0 	.
5804  A6CA 0C           	inc c			;a6ca	0c 	.
5805  A6CB 00           	nop			;a6cb	00 	.
5806  A6CC 0C           	inc c			;a6cc	0c 	.
5807  A6CD 10 00        	djnz la6cfh		;a6cd	10 00 	. .
5808  A6CF              la6cfh:
5809  A6CF 00           	nop			;a6cf	00 	.
5810  A6D0 AA           	xor d			;a6d0	aa 	.
5811  A6D1 AA           	xor d			;a6d1	aa 	.
5812  A6D2 AA           	xor d			;a6d2	aa 	.
5813  A6D3 50           	ld d,b			;a6d3	50 	P
5814  A6D4 00           	nop			;a6d4	00 	.
5815  A6D5 00           	nop			;a6d5	00 	.
5816  A6D6 00           	nop			;a6d6	00 	.
5817  A6D7 00           	nop			;a6d7	00 	.
5818  A6D8 00           	nop			;a6d8	00 	.
5819  A6D9 10 00        	djnz la6dbh		;a6d9	10 00 	. .
5820  A6DB              la6dbh:
5821  A6DB 00           	nop			;a6db	00 	.
5822  A6DC 00           	nop			;a6dc	00 	.
5823  A6DD 00           	nop			;a6dd	00 	.
5824  A6DE 00           	nop			;a6de	00 	.
5825  A6DF 00           	nop			;a6df	00 	.
5826  A6E0 15           	dec d			;a6e0	15 	.
5827  A6E1              la6e1h:
5828  A6E1 0C           	inc c			;a6e1	0c 	.
5829  A6E2 00           	nop			;a6e2	00 	.
5830  A6E3 FF           	rst 38h			;a6e3	ff 	.
5831  A6E4 F0           	ret p			;a6e4	f0 	.
5832  A6E5 00           	nop			;a6e5	00 	.
5833  A6E6 55           	ld d,l			;a6e6	55 	U
5834  A6E7 0C           	inc c			;a6e7	0c 	.
5835  A6E8 55           	ld d,l			;a6e8	55 	U
5836  A6E9 7F           	ld a,a			;a6e9	7f 	
5837  A6EA D5           	push de			;a6ea	d5 	.
5838  A6EB 55           	ld d,l			;a6eb	55 	U
5839  A6EC 55           	ld d,l			;a6ec	55 	U
5840  A6ED 0D           	dec c			;a6ed	0d 	.
5841  A6EE 55           	ld d,l			;a6ee	55 	U
5842  A6EF 55           	ld d,l			;a6ef	55 	U
5843  A6F0 55           	ld d,l			;a6f0	55 	U
5844  A6F1 56           	ld d,(hl)			;a6f1	56 	V
5845  A6F2 A9           	xor c			;a6f2	a9 	.
5846  A6F3 0D           	dec c			;a6f3	0d 	.
5847  A6F4 6A           	ld l,d			;a6f4	6a 	j
5848  A6F5 AA           	xor d			;a6f5	aa 	.
5849  A6F6 AA           	xor d			;a6f6	aa 	.
5850  A6F7 55           	ld d,l			;a6f7	55 	U
5851  A6F8 55           	ld d,l			;a6f8	55 	U
5852  A6F9 0C           	inc c			;a6f9	0c 	.
5853  A6FA 55           	ld d,l			;a6fa	55 	U
5854  A6FB 55           	ld d,l			;a6fb	55 	U
5855  A6FC 55           	ld d,l			;a6fc	55 	U
5856  A6FD 50           	ld d,b			;a6fd	50 	P
5857  A6FE 00           	nop			;a6fe	00 	.
5858  A6FF 0C           	inc c			;a6ff	0c 	.
5859  A700 00           	nop			;a700	00 	.
5860  A701 C0           	ret nz			;a701	c0 	.
5861  A702 00           	nop			;a702	00 	.
5862  A703 C1           	pop bc			;a703	c1 	.
5863  A704 00           	nop			;a704	00 	.
5864  A705 00           	nop			;a705	00 	.
5865  A706 0A           	ld a,(bc)			;a706	0a 	.
5866  A707 AA           	xor d			;a707	aa 	.
5867  A708 AA           	xor d			;a708	aa 	.
5868  A709 A5           	and l			;a709	a5 	.
5869  A70A 00           	nop			;a70a	00 	.
5870  A70B 00           	nop			;a70b	00 	.
5871  A70C 00           	nop			;a70c	00 	.
5872  A70D 00           	nop			;a70d	00 	.
5873  A70E 00           	nop			;a70e	00 	.
5874  A70F 01 00 00     	ld bc,00000h		;a70f	01 00 00 	. . .
5875  A712 00           	nop			;a712	00 	.
5876  A713 00           	nop			;a713	00 	.
5877  A714 00           	nop			;a714	00 	.
5878  A715 01 50 00     	ld bc,00050h		;a715	01 50 00 	. P .
5879  A718 0F           	rrca			;a718	0f 	.
5880  A719 FF           	rst 38h			;a719	ff 	.
5881  A71A 00           	nop			;a71a	00 	.
5882  A71B 05           	dec b			;a71b	05 	.
5883  A71C 50           	ld d,b			;a71c	50 	P
5884  A71D 05           	dec b			;a71d	05 	.
5885  A71E 57           	ld d,a			;a71e	57 	W
5886  A71F FD 55 55     	defb 0fdh,055h,055h	;illegal sequence		;a71f	fd 55 55 	. U U
5887  A722 50           	ld d,b			;a722	50 	P
5888  A723 D5           	push de			;a723	d5 	.
5889  A724 55           	ld d,l			;a724	55 	U
5890  A725 55           	ld d,l			;a725	55 	U
5891  A726 55           	ld d,l			;a726	55 	U
5892  A727 6A           	ld l,d			;a727	6a 	j
5893  A728 90           	sub b			;a728	90 	.
5894  A729 D6 AA        	sub 0aah		;a729	d6 aa 	. .
5895  A72B AA           	xor d			;a72b	aa 	.
5896  A72C A5           	and l			;a72c	a5 	.
5897  A72D 55           	ld d,l			;a72d	55 	U
5898  A72E 50           	ld d,b			;a72e	50 	P
5899  A72F 05           	dec b			;a72f	05 	.
5900  A730 55           	ld d,l			;a730	55 	U
5901  A731 55           	ld d,l			;a731	55 	U
5902  A732 55           	ld d,l			;a732	55 	U
5903  A733 00           	nop			;a733	00 	.
5904  A734 00           	nop			;a734	00 	.
5905  A735 00           	nop			;a735	00 	.
5906  A736 0C           	inc c			;a736	0c 	.
5907  A737 00           	nop			;a737	00 	.
5908  A738 0C           	inc c			;a738	0c 	.
5909  A739 10 00        	djnz la73bh		;a739	10 00 	. .
5910  A73B              la73bh:
5911  A73B 00           	nop			;a73b	00 	.
5912  A73C AA           	xor d			;a73c	aa 	.
5913  A73D AA           	xor d			;a73d	aa 	.
5914  A73E AA           	xor d			;a73e	aa 	.
5915  A73F 50           	ld d,b			;a73f	50 	P
5916  A740 00           	nop			;a740	00 	.
5917  A741 00           	nop			;a741	00 	.
5918  A742 00           	nop			;a742	00 	.
5919  A743 00           	nop			;a743	00 	.
5920  A744 00           	nop			;a744	00 	.
5921  A745 10 00        	djnz la747h		;a745	10 00 	. .
5922  A747              la747h:
5923  A747 00           	nop			;a747	00 	.
5924  A748 00           	nop			;a748	00 	.
5925  A749 00           	nop			;a749	00 	.
5926  A74A 00           	nop			;a74a	00 	.
5927  A74B 00           	nop			;a74b	00 	.
5928  A74C 15           	dec d			;a74c	15 	.
5929  A74D 00           	nop			;a74d	00 	.
5930  A74E 00           	nop			;a74e	00 	.
5931  A74F FF           	rst 38h			;a74f	ff 	.
5932  A750 F0           	ret p			;a750	f0 	.
5933  A751 00           	nop			;a751	00 	.
5934  A752 55           	ld d,l			;a752	55 	U
5935  A753 00           	nop			;a753	00 	.
5936  A754 55           	ld d,l			;a754	55 	U
5937  A755 7F           	ld a,a			;a755	7f 	
5938  A756 D5           	push de			;a756	d5 	.
5939  A757 55           	ld d,l			;a757	55 	U
5940  A758 55           	ld d,l			;a758	55 	U
5941  A759 0D           	dec c			;a759	0d 	.
5942  A75A 55           	ld d,l			;a75a	55 	U
5943  A75B 55           	ld d,l			;a75b	55 	U
5944  A75C 55           	ld d,l			;a75c	55 	U
5945  A75D 56           	ld d,(hl)			;a75d	56 	V
5946  A75E A9           	xor c			;a75e	a9 	.
5947  A75F 0D           	dec c			;a75f	0d 	.
5948  A760 6A           	ld l,d			;a760	6a 	j
5949  A761 AA           	xor d			;a761	aa 	.
5950  A762 AA           	xor d			;a762	aa 	.
5951  A763 55           	ld d,l			;a763	55 	U
5952  A764 55           	ld d,l			;a764	55 	U
5953  A765 00           	nop			;a765	00 	.
5954  A766 55           	ld d,l			;a766	55 	U
5955  A767 55           	ld d,l			;a767	55 	U
5956  A768 55           	ld d,l			;a768	55 	U
5957  A769 50           	ld d,b			;a769	50 	P
5958  A76A 00           	nop			;a76a	00 	.
5959  A76B 00           	nop			;a76b	00 	.
5960  A76C 00           	nop			;a76c	00 	.
5961  A76D C0           	ret nz			;a76d	c0 	.
5962  A76E 00           	nop			;a76e	00 	.
5963  A76F C1           	pop bc			;a76f	c1 	.
5964  A770 00           	nop			;a770	00 	.
5965  A771 00           	nop			;a771	00 	.
5966  A772 0A           	ld a,(bc)			;a772	0a 	.
5967  A773 AA           	xor d			;a773	aa 	.
5968  A774 AA           	xor d			;a774	aa 	.
5969  A775 A5           	and l			;a775	a5 	.
5970  A776 00           	nop			;a776	00 	.
5971  A777 00           	nop			;a777	00 	.
5972  A778 00           	nop			;a778	00 	.
5973  A779 00           	nop			;a779	00 	.
5974  A77A 00           	nop			;a77a	00 	.
5975  A77B 01 00 54     	ld bc,05400h		;a77b	01 00 54 	. . T
5976  A77E 00           	nop			;a77e	00 	.
5977  A77F 00           	nop			;a77f	00 	.
5978  A780 00           	nop			;a780	00 	.
5979  A781 00           	nop			;a781	00 	.
5980  A782 00           	nop			;a782	00 	.
5981  A783 55           	ld d,l			;a783	55 	U
5982  A784 00           	nop			;a784	00 	.
5983  A785 0F           	rrca			;a785	0f 	.
5984  A786 FF           	rst 38h			;a786	ff 	.
5985  A787 00           	nop			;a787	00 	.
5986  A788 30 55        	jr nc,la7dfh		;a788	30 55 	0 U
5987  A78A 55           	ld d,l			;a78a	55 	U
5988  A78B 57           	ld d,a			;a78b	57 	W
5989  A78C FD 55 30     	defb 0fdh,055h,030h	;illegal sequence		;a78c	fd 55 30 	. U 0
5990  A78F 6A           	ld l,d			;a78f	6a 	j
5991  A790 95           	sub l			;a790	95 	.
5992  A791 55           	ld d,l			;a791	55 	U
5993  A792 55           	ld d,l			;a792	55 	U
5994  A793 55           	ld d,l			;a793	55 	U
5995  A794 70           	ld (hl),b			;a794	70 	p
5996  A795 55           	ld d,l			;a795	55 	U
5997  A796 55           	ld d,l			;a796	55 	U
5998  A797 AA           	xor d			;a797	aa 	.
5999  A798 AA           	xor d			;a798	aa 	.
6000  A799 A9           	xor c			;a799	a9 	.
6001  A79A 70           	ld (hl),b			;a79a	70 	p
6002  A79B 00           	nop			;a79b	00 	.
6003  A79C 05           	dec b			;a79c	05 	.
6004  A79D 55           	ld d,l			;a79d	55 	U
6005  A79E 55           	ld d,l			;a79e	55 	U
6006  A79F 55           	ld d,l			;a79f	55 	U
6007  A7A0 30 00        	jr nc,la7a2h		;a7a0	30 00 	0 .
6008  A7A2              la7a2h:
6009  A7A2 43           	ld b,e			;a7a2	43 	C
6010  A7A3 00           	nop			;a7a3	00 	.
6011  A7A4 03           	inc bc			;a7a4	03 	.
6012  A7A5 00           	nop			;a7a5	00 	.
6013  A7A6 30 00        	jr nc,la7a8h		;a7a6	30 00 	0 .
6014  A7A8              la7a8h:
6015  A7A8 5A           	ld e,d			;a7a8	5a 	Z
6016  A7A9 AA           	xor d			;a7a9	aa 	.
6017  A7AA AA           	xor d			;a7aa	aa 	.
6018  A7AB A0           	and b			;a7ab	a0 	.
6019  A7AC 00           	nop			;a7ac	00 	.
6020  A7AD 00           	nop			;a7ad	00 	.
6021  A7AE 40           	ld b,b			;a7ae	40 	@
6022  A7AF 00           	nop			;a7af	00 	.
6023  A7B0 00           	nop			;a7b0	00 	.
6024  A7B1 00           	nop			;a7b1	00 	.
6025  A7B2 00           	nop			;a7b2	00 	.
6026  A7B3 05           	dec b			;a7b3	05 	.
6027  A7B4 40           	ld b,b			;a7b4	40 	@
6028  A7B5 00           	nop			;a7b5	00 	.
6029  A7B6 00           	nop			;a7b6	00 	.
6030  A7B7 00           	nop			;a7b7	00 	.
6031  A7B8 00           	nop			;a7b8	00 	.
6032  A7B9 05           	dec b			;a7b9	05 	.
6033  A7BA 50           	ld d,b			;a7ba	50 	P
6034  A7BB 00           	nop			;a7bb	00 	.
6035  A7BC FF           	rst 38h			;a7bc	ff 	.
6036  A7BD F0           	ret p			;a7bd	f0 	.
6037  A7BE 03           	inc bc			;a7be	03 	.
6038  A7BF 05           	dec b			;a7bf	05 	.
6039  A7C0 55           	ld d,l			;a7c0	55 	U
6040  A7C1 55           	ld d,l			;a7c1	55 	U
6041  A7C2 7F           	ld a,a			;a7c2	7f 	
6042  A7C3 D5           	push de			;a7c3	d5 	.
6043  A7C4 53           	ld d,e			;a7c4	53 	S
6044  A7C5 06 A9        	ld b,0a9h		;a7c5	06 a9 	. .
6045  A7C7 55           	ld d,l			;a7c7	55 	U
6046  A7C8 55           	ld d,l			;a7c8	55 	U
6047  A7C9 55           	ld d,l			;a7c9	55 	U
6048  A7CA 57           	ld d,a			;a7ca	57 	W
6049  A7CB 05           	dec b			;a7cb	05 	.
6050  A7CC 55           	ld d,l			;a7cc	55 	U
6051  A7CD 5A           	ld e,d			;a7cd	5a 	Z
6052  A7CE AA           	xor d			;a7ce	aa 	.
6053  A7CF AA           	xor d			;a7cf	aa 	.
6054  A7D0 97           	sub a			;a7d0	97 	.
6055  A7D1 00           	nop			;a7d1	00 	.
6056  A7D2 00           	nop			;a7d2	00 	.
6057  A7D3 55           	ld d,l			;a7d3	55 	U
6058  A7D4 55           	ld d,l			;a7d4	55 	U
6059  A7D5 55           	ld d,l			;a7d5	55 	U
6060  A7D6 53           	ld d,e			;a7d6	53 	S
6061  A7D7 00           	nop			;a7d7	00 	.
6062  A7D8 04           	inc b			;a7d8	04 	.
6063  A7D9 30 00        	jr nc,la7dbh		;a7d9	30 00 	0 .
6064  A7DB              la7dbh:
6065  A7DB 30 03        	jr nc,la7e0h		;a7db	30 03 	0 .
6066  A7DD 00           	nop			;a7dd	00 	.
6067  A7DE 05           	dec b			;a7de	05 	.
6068  A7DF              la7dfh:
6069  A7DF AA           	xor d			;a7df	aa 	.
6070  A7E0              la7e0h:
6071  A7E0 AA           	xor d			;a7e0	aa 	.
6072  A7E1 AA           	xor d			;a7e1	aa 	.
6073  A7E2 00           	nop			;a7e2	00 	.
6074  A7E3 00           	nop			;a7e3	00 	.
6075  A7E4 04           	inc b			;a7e4	04 	.
6076  A7E5 00           	nop			;a7e5	00 	.
6077  A7E6 00           	nop			;a7e6	00 	.
6078  A7E7 00           	nop			;a7e7	00 	.
6079  A7E8 00           	nop			;a7e8	00 	.
6080  A7E9 54           	ld d,h			;a7e9	54 	T
6081  A7EA 00           	nop			;a7ea	00 	.
6082  A7EB 00           	nop			;a7eb	00 	.
6083  A7EC 00           	nop			;a7ec	00 	.
6084  A7ED 00           	nop			;a7ed	00 	.
6085  A7EE 00           	nop			;a7ee	00 	.
6086  A7EF 55           	ld d,l			;a7ef	55 	U
6087  A7F0 00           	nop			;a7f0	00 	.
6088  A7F1 0F           	rrca			;a7f1	0f 	.
6089  A7F2 FF           	rst 38h			;a7f2	ff 	.
6090  A7F3 00           	nop			;a7f3	00 	.
6091  A7F4 00           	nop			;a7f4	00 	.
6092  A7F5 55           	ld d,l			;a7f5	55 	U
6093  A7F6 55           	ld d,l			;a7f6	55 	U
6094  A7F7 57           	ld d,a			;a7f7	57 	W
6095  A7F8 FD 55 00     	defb 0fdh,055h,000h	;illegal sequence		;a7f8	fd 55 00 	. U .
6096  A7FB 6A           	ld l,d			;a7fb	6a 	j
6097  A7FC 95           	sub l			;a7fc	95 	.
6098  A7FD 55           	ld d,l			;a7fd	55 	U
6099  A7FE 55           	ld d,l			;a7fe	55 	U
6100  A7FF 55           	ld d,l			;a7ff	55 	U
6101  A800 70           	ld (hl),b			;a800	70 	p
6102  A801 55           	ld d,l			;a801	55 	U
6103  A802 55           	ld d,l			;a802	55 	U
6104  A803 AA           	xor d			;a803	aa 	.
6105  A804 AA           	xor d			;a804	aa 	.
6106  A805 A9           	xor c			;a805	a9 	.
6107  A806 70           	ld (hl),b			;a806	70 	p
6108  A807 00           	nop			;a807	00 	.
6109  A808 05           	dec b			;a808	05 	.
6110  A809 55           	ld d,l			;a809	55 	U
6111  A80A 55           	ld d,l			;a80a	55 	U
6112  A80B 55           	ld d,l			;a80b	55 	U
6113  A80C 00           	nop			;a80c	00 	.
6114  A80D 00           	nop			;a80d	00 	.
6115  A80E 43           	ld b,e			;a80e	43 	C
6116  A80F 00           	nop			;a80f	00 	.
6117  A810 03           	inc bc			;a810	03 	.
6118  A811 00           	nop			;a811	00 	.
6119  A812 00           	nop			;a812	00 	.
6120  A813 00           	nop			;a813	00 	.
6121  A814 5A           	ld e,d			;a814	5a 	Z
6122  A815 AA           	xor d			;a815	aa 	.
6123  A816 AA           	xor d			;a816	aa 	.
6124  A817 A0           	and b			;a817	a0 	.
6125  A818 00           	nop			;a818	00 	.
6126  A819 00           	nop			;a819	00 	.
6127  A81A 40           	ld b,b			;a81a	40 	@
6128  A81B 00           	nop			;a81b	00 	.
6129  A81C 00           	nop			;a81c	00 	.
6130  A81D 00           	nop			;a81d	00 	.
6131  A81E 00           	nop			;a81e	00 	.
6132  A81F 05           	dec b			;a81f	05 	.
6133  A820 40           	ld b,b			;a820	40 	@
6134  A821 00           	nop			;a821	00 	.
6135  A822 00           	nop			;a822	00 	.
6136  A823 00           	nop			;a823	00 	.
6137  A824 00           	nop			;a824	00 	.
6138  A825 05           	dec b			;a825	05 	.
6139  A826 50           	ld d,b			;a826	50 	P
6140  A827 00           	nop			;a827	00 	.
6141  A828 FF           	rst 38h			;a828	ff 	.
6142  A829 F0           	ret p			;a829	f0 	.
6143  A82A 00           	nop			;a82a	00 	.
6144  A82B 05           	dec b			;a82b	05 	.
6145  A82C 55           	ld d,l			;a82c	55 	U
6146  A82D 55           	ld d,l			;a82d	55 	U
6147  A82E 7F           	ld a,a			;a82e	7f 	
6148  A82F D5           	push de			;a82f	d5 	.
6149  A830 50           	ld d,b			;a830	50 	P
6150  A831 06 A9        	ld b,0a9h		;a831	06 a9 	. .
6151  A833 55           	ld d,l			;a833	55 	U
6152  A834 55           	ld d,l			;a834	55 	U
6153  A835 55           	ld d,l			;a835	55 	U
6154  A836 57           	ld d,a			;a836	57 	W
6155  A837 05           	dec b			;a837	05 	.
6156  A838 55           	ld d,l			;a838	55 	U
6157  A839 5A           	ld e,d			;a839	5a 	Z
6158  A83A AA           	xor d			;a83a	aa 	.
6159  A83B AA           	xor d			;a83b	aa 	.
6160  A83C 97           	sub a			;a83c	97 	.
6161  A83D 00           	nop			;a83d	00 	.
6162  A83E 00           	nop			;a83e	00 	.
6163  A83F 55           	ld d,l			;a83f	55 	U
6164  A840 55           	ld d,l			;a840	55 	U
6165  A841 55           	ld d,l			;a841	55 	U
6166  A842 50           	ld d,b			;a842	50 	P
6167  A843 00           	nop			;a843	00 	.
6168  A844 04           	inc b			;a844	04 	.
6169  A845 30 00        	jr nc,la847h		;a845	30 00 	0 .
6170  A847              la847h:
6171  A847 30 00        	jr nc,la849h		;a847	30 00 	0 .
6172  A849              la849h:
6173  A849 00           	nop			;a849	00 	.
6174  A84A 05           	dec b			;a84a	05 	.
6175  A84B AA           	xor d			;a84b	aa 	.
6176  A84C AA           	xor d			;a84c	aa 	.
6177  A84D AA           	xor d			;a84d	aa 	.
6178  A84E 00           	nop			;a84e	00 	.
6179  A84F 00           	nop			;a84f	00 	.
6180  A850 04           	inc b			;a850	04 	.
6181  A851 00           	nop			;a851	00 	.
6182  A852 00           	nop			;a852	00 	.
6183  A853 00           	nop			;a853	00 	.
6184  A854 00           	nop			;a854	00 	.
6185  A855              la855h:
6186  A855 00           	nop			;a855	00 	.
6187  A856 00           	nop			;a856	00 	.
6188  A857 00           	nop			;a857	00 	.
6189  A858 00           	nop			;a858	00 	.
6190  A859 00           	nop			;a859	00 	.
6191  A85A 00           	nop			;a85a	00 	.
6192  A85B 00           	nop			;a85b	00 	.
6193  A85C 00           	nop			;a85c	00 	.
6194  A85D 00           	nop			;a85d	00 	.
6195  A85E 00           	nop			;a85e	00 	.
6196  A85F 00           	nop			;a85f	00 	.
6197  A860 00           	nop			;a860	00 	.
6198  A861 00           	nop			;a861	00 	.
6199  A862 00           	nop			;a862	00 	.
6200  A863 00           	nop			;a863	00 	.
6201  A864 00           	nop			;a864	00 	.
6202  A865 00           	nop			;a865	00 	.
6203  A866 00           	nop			;a866	00 	.
6204  A867 00           	nop			;a867	00 	.
6205  A868 00           	nop			;a868	00 	.
6206  A869 01 00 00     	ld bc,00000h		;a869	01 00 00 	. . .
6207  A86C 00           	nop			;a86c	00 	.
6208  A86D 00           	nop			;a86d	00 	.
6209  A86E 00           	nop			;a86e	00 	.
6210  A86F 05           	dec b			;a86f	05 	.
6211  A870 40           	ld b,b			;a870	40 	@
6212  A871 00           	nop			;a871	00 	.
6213  A872 00           	nop			;a872	00 	.
6214  A873 00           	nop			;a873	00 	.
6215  A874 00           	nop			;a874	00 	.
6216  A875 01 00 00     	ld bc,00000h		;a875	01 00 00 	. . .
6217  A878 00           	nop			;a878	00 	.
6218  A879 00           	nop			;a879	00 	.
6219  A87A 00           	nop			;a87a	00 	.
6220  A87B 00           	nop			;a87b	00 	.
6221  A87C 00           	nop			;a87c	00 	.
6222  A87D 00           	nop			;a87d	00 	.
6223  A87E 00           	nop			;a87e	00 	.
6224  A87F 00           	nop			;a87f	00 	.
6225  A880 00           	nop			;a880	00 	.
6226  A881 00           	nop			;a881	00 	.
6227  A882              la882h:
6228  A882 00           	nop			;a882	00 	.
6229  A883 00           	nop			;a883	00 	.
6230  A884 00           	nop			;a884	00 	.
6231  A885 00           	nop			;a885	00 	.
6232  A886 00           	nop			;a886	00 	.
6233  A887 00           	nop			;a887	00 	.
6234  A888 00           	nop			;a888	00 	.
6235  A889 00           	nop			;a889	00 	.
6236  A88A 00           	nop			;a88a	00 	.
6237  A88B 00           	nop			;a88b	00 	.
6238  A88C 00           	nop			;a88c	00 	.
6239  A88D 00           	nop			;a88d	00 	.
6240  A88E 00           	nop			;a88e	00 	.
6241  A88F 00           	nop			;a88f	00 	.
6242  A890 00           	nop			;a890	00 	.
6243  A891 00           	nop			;a891	00 	.
6244  A892 00           	nop			;a892	00 	.
6245  A893 00           	nop			;a893	00 	.
6246  A894 00           	nop			;a894	00 	.
6247  A895 00           	nop			;a895	00 	.
6248  A896 00           	nop			;a896	00 	.
6249  A897 00           	nop			;a897	00 	.
6250  A898 00           	nop			;a898	00 	.
6251  A899 00           	nop			;a899	00 	.
6252  A89A 00           	nop			;a89a	00 	.
6253  A89B 00           	nop			;a89b	00 	.
6254  A89C 00           	nop			;a89c	00 	.
6255  A89D 00           	nop			;a89d	00 	.
6256  A89E 00           	nop			;a89e	00 	.
6257  A89F 01 00 00     	ld bc,00000h		;a89f	01 00 00 	. . .
6258  A8A2 00           	nop			;a8a2	00 	.
6259  A8A3 00           	nop			;a8a3	00 	.
6260  A8A4 00           	nop			;a8a4	00 	.
6261  A8A5 55           	ld d,l			;a8a5	55 	U
6262  A8A6 54           	ld d,h			;a8a6	54 	T
6263  A8A7 00           	nop			;a8a7	00 	.
6264  A8A8 00           	nop			;a8a8	00 	.
6265  A8A9 00           	nop			;a8a9	00 	.
6266  A8AA 00           	nop			;a8aa	00 	.
6267  A8AB 01 00 00     	ld bc,00000h		;a8ab	01 00 00 	. . .
6268  A8AE 00           	nop			;a8ae	00 	.
6269  A8AF 00           	nop			;a8af	00 	.
6270  A8B0 00           	nop			;a8b0	00 	.
6271  A8B1 00           	nop			;a8b1	00 	.
6272  A8B2 00           	nop			;a8b2	00 	.
6273  A8B3 00           	nop			;a8b3	00 	.
6274  A8B4 00           	nop			;a8b4	00 	.
6275  A8B5 00           	nop			;a8b5	00 	.
6276  A8B6 00           	nop			;a8b6	00 	.
6277  A8B7 00           	nop			;a8b7	00 	.
6278  A8B8 00           	nop			;a8b8	00 	.
6279  A8B9 00           	nop			;a8b9	00 	.
6280  A8BA 00           	nop			;a8ba	00 	.
6281  A8BB 00           	nop			;a8bb	00 	.
6282  A8BC 00           	nop			;a8bc	00 	.
6283  A8BD 00           	nop			;a8bd	00 	.
6284  A8BE 00           	nop			;a8be	00 	.
6285  A8BF 00           	nop			;a8bf	00 	.
6286  A8C0 00           	nop			;a8c0	00 	.
6287  A8C1 00           	nop			;a8c1	00 	.
6288  A8C2 00           	nop			;a8c2	00 	.
6289  A8C3 00           	nop			;a8c3	00 	.
6290  A8C4 00           	nop			;a8c4	00 	.
6291  A8C5 00           	nop			;a8c5	00 	.
6292  A8C6 00           	nop			;a8c6	00 	.
6293  A8C7 00           	nop			;a8c7	00 	.
6294  A8C8 00           	nop			;a8c8	00 	.
6295  A8C9 00           	nop			;a8c9	00 	.
6296  A8CA 00           	nop			;a8ca	00 	.
6297  A8CB 00           	nop			;a8cb	00 	.
6298  A8CC 00           	nop			;a8cc	00 	.
6299  A8CD 00           	nop			;a8cd	00 	.
6300  A8CE 00           	nop			;a8ce	00 	.
6301  A8CF 00           	nop			;a8cf	00 	.
6302  A8D0 00           	nop			;a8d0	00 	.
6303  A8D1 00           	nop			;a8d1	00 	.
6304  A8D2 00           	nop			;a8d2	00 	.
6305  A8D3 00           	nop			;a8d3	00 	.
6306  A8D4 00           	nop			;a8d4	00 	.
6307  A8D5 05           	dec b			;a8d5	05 	.
6308  A8D6 00           	nop			;a8d6	00 	.
6309  A8D7 00           	nop			;a8d7	00 	.
6310  A8D8 00           	nop			;a8d8	00 	.
6311  A8D9 00           	nop			;a8d9	00 	.
6312  A8DA 05           	dec b			;a8da	05 	.
6313  A8DB 55           	ld d,l			;a8db	55 	U
6314  A8DC 55           	ld d,l			;a8dc	55 	U
6315  A8DD 00           	nop			;a8dd	00 	.
6316  A8DE 00           	nop			;a8de	00 	.
6317  A8DF 00           	nop			;a8df	00 	.
6318  A8E0 00           	nop			;a8e0	00 	.
6319  A8E1 05           	dec b			;a8e1	05 	.
6320  A8E2 00           	nop			;a8e2	00 	.
6321  A8E3 00           	nop			;a8e3	00 	.
6322  A8E4 00           	nop			;a8e4	00 	.
6323  A8E5 00           	nop			;a8e5	00 	.
6324  A8E6 00           	nop			;a8e6	00 	.
6325  A8E7 00           	nop			;a8e7	00 	.
6326  A8E8 00           	nop			;a8e8	00 	.
6327  A8E9 00           	nop			;a8e9	00 	.
6328  A8EA 00           	nop			;a8ea	00 	.
6329  A8EB 00           	nop			;a8eb	00 	.
6330  A8EC 00           	nop			;a8ec	00 	.
6331  A8ED 00           	nop			;a8ed	00 	.
6332  A8EE 00           	nop			;a8ee	00 	.
6333  A8EF 00           	nop			;a8ef	00 	.
6334  A8F0 00           	nop			;a8f0	00 	.
6335  A8F1 00           	nop			;a8f1	00 	.
6336  A8F2 00           	nop			;a8f2	00 	.
6337  A8F3 00           	nop			;a8f3	00 	.
6338  A8F4 00           	nop			;a8f4	00 	.
6339  A8F5 00           	nop			;a8f5	00 	.
6340  A8F6 00           	nop			;a8f6	00 	.
6341  A8F7 00           	nop			;a8f7	00 	.
6342  A8F8 00           	nop			;a8f8	00 	.
6343  A8F9 00           	nop			;a8f9	00 	.
6344  A8FA 00           	nop			;a8fa	00 	.
6345  A8FB 00           	nop			;a8fb	00 	.
6346  A8FC 00           	nop			;a8fc	00 	.
6347  A8FD 00           	nop			;a8fd	00 	.
6348  A8FE 00           	nop			;a8fe	00 	.
6349  A8FF 00           	nop			;a8ff	00 	.
6350  A900 00           	nop			;a900	00 	.
6351  A901 00           	nop			;a901	00 	.
6352  A902 00           	nop			;a902	00 	.
6353  A903 00           	nop			;a903	00 	.
6354  A904 00           	nop			;a904	00 	.
6355  A905 03           	inc bc			;a905	03 	.
6356  A906 00           	nop			;a906	00 	.
6357  A907 00           	nop			;a907	00 	.
6358  A908 00           	nop			;a908	00 	.
6359  A909 00           	nop			;a909	00 	.
6360  A90A 00           	nop			;a90a	00 	.
6361  A90B 05           	dec b			;a90b	05 	.
6362  A90C 40           	ld b,b			;a90c	40 	@
6363  A90D 00           	nop			;a90d	00 	.
6364  A90E 00           	nop			;a90e	00 	.
6365  A90F 01 55 55     	ld bc,05555h		;a90f	01 55 55 	. U U
6366  A912              la912h:
6367  A912 55           	ld d,l			;a912	55 	U
6368  A913 55           	ld d,l			;a913	55 	U
6369  A914 00           	nop			;a914	00 	.
6370  A915 00           	nop			;a915	00 	.
6371  A916 00           	nop			;a916	00 	.
6372  A917 05           	dec b			;a917	05 	.
6373  A918 40           	ld b,b			;a918	40 	@
6374  A919 00           	nop			;a919	00 	.
6375  A91A 00           	nop			;a91a	00 	.
6376  A91B 00           	nop			;a91b	00 	.
6377  A91C 00           	nop			;a91c	00 	.
6378  A91D 02           	ld (bc),a			;a91d	02 	.
6379  A91E 00           	nop			;a91e	00 	.
6380  A91F 00           	nop			;a91f	00 	.
6381  A920 00           	nop			;a920	00 	.
6382  A921 00           	nop			;a921	00 	.
6383  A922 00           	nop			;a922	00 	.
6384  A923 00           	nop			;a923	00 	.
6385  A924 00           	nop			;a924	00 	.
6386  A925 00           	nop			;a925	00 	.
6387  A926 00           	nop			;a926	00 	.
6388  A927 00           	nop			;a927	00 	.
6389  A928 00           	nop			;a928	00 	.
6390  A929 00           	nop			;a929	00 	.
6391  A92A 00           	nop			;a92a	00 	.
6392  A92B 00           	nop			;a92b	00 	.
6393  A92C 00           	nop			;a92c	00 	.
6394  A92D 00           	nop			;a92d	00 	.
6395  A92E 00           	nop			;a92e	00 	.
6396  A92F 00           	nop			;a92f	00 	.
6397  A930 00           	nop			;a930	00 	.
6398  A931 00           	nop			;a931	00 	.
6399  A932 00           	nop			;a932	00 	.
6400  A933 00           	nop			;a933	00 	.
6401  A934 00           	nop			;a934	00 	.
6402  A935 0F           	rrca			;a935	0f 	.
6403  A936 C0           	ret nz			;a936	c0 	.
6404  A937 00           	nop			;a937	00 	.
6405  A938 00           	nop			;a938	00 	.
6406  A939 00           	nop			;a939	00 	.
6407  A93A 00           	nop			;a93a	00 	.
6408  A93B 17           	rla			;a93b	17 	.
6409  A93C 50           	ld d,b			;a93c	50 	P
6410  A93D 00           	nop			;a93d	00 	.
6411  A93E 00           	nop			;a93e	00 	.
6412  A93F 00           	nop			;a93f	00 	.
6413  A940 00           	nop			;a940	00 	.
6414  A941 55           	ld d,l			;a941	55 	U
6415  A942 54           	ld d,h			;a942	54 	T
6416  A943 00           	nop			;a943	00 	.
6417  A944 00           	nop			;a944	00 	.
6418  A945 55           	ld d,l			;a945	55 	U
6419  A946 55           	ld d,l			;a946	55 	U
6420  A947 55           	ld d,l			;a947	55 	U
6421  A948 55           	ld d,l			;a948	55 	U
6422  A949 55           	ld d,l			;a949	55 	U
6423  A94A 54           	ld d,h			;a94a	54 	T
6424  A94B 00           	nop			;a94b	00 	.
6425  A94C 00           	nop			;a94c	00 	.
6426  A94D 55           	ld d,l			;a94d	55 	U
6427  A94E 54           	ld d,h			;a94e	54 	T
6428  A94F 00           	nop			;a94f	00 	.
6429  A950 00           	nop			;a950	00 	.
6430  A951 00           	nop			;a951	00 	.
6431  A952 00           	nop			;a952	00 	.
6432  A953 15           	dec d			;a953	15 	.
6433  A954 50           	ld d,b			;a954	50 	P
6434  A955 00           	nop			;a955	00 	.
6435  A956 00           	nop			;a956	00 	.
6436  A957 00           	nop			;a957	00 	.
6437  A958 00           	nop			;a958	00 	.
6438  A959 02           	ld (bc),a			;a959	02 	.
6439  A95A 00           	nop			;a95a	00 	.
6440  A95B 00           	nop			;a95b	00 	.
6441  A95C 00           	nop			;a95c	00 	.
6442  A95D 00           	nop			;a95d	00 	.
6443  A95E 00           	nop			;a95e	00 	.
6444  A95F 0A           	ld a,(bc)			;a95f	0a 	.
6445  A960 80           	add a,b			;a960	80 	.
6446  A961 00           	nop			;a961	00 	.
6447  A962 00           	nop			;a962	00 	.
6448  A963              la963h:
6449  A963 00           	nop			;a963	00 	.
6450  A964 00           	nop			;a964	00 	.
6451  A965 00           	nop			;a965	00 	.
6452  A966 10 AA        	djnz la912h		;a966	10 aa 	. .
6453  A968 AA           	xor d			;a968	aa 	.
6454  A969 AA           	xor d			;a969	aa 	.
6455  A96A 50           	ld d,b			;a96a	50 	P
6456  A96B 00           	nop			;a96b	00 	.
6457  A96C 00           	nop			;a96c	00 	.
6458  A96D 00           	nop			;a96d	00 	.
6459  A96E 10 00        	djnz la970h		;a96e	10 00 	. .
6460  A970              la970h:
6461  A970 00           	nop			;a970	00 	.
6462  A971 00           	nop			;a971	00 	.
6463  A972 01 0A AA     	ld bc,0aa0ah		;a972	01 0a aa 	. . .
6464  A975 AA           	xor d			;a975	aa 	.
6465  A976 A5           	and l			;a976	a5 	.
6466  A977 00           	nop			;a977	00 	.
6467  A978 00           	nop			;a978	00 	.
6468  A979 00           	nop			;a979	00 	.
6469  A97A 01 40 00     	ld bc,00040h		;a97a	01 40 00 	. @ .
6470  A97D 00           	nop			;a97d	00 	.
6471  A97E 00           	nop			;a97e	00 	.
6472  A97F 5A           	ld e,d			;a97f	5a 	Z
6473  A980 AA           	xor d			;a980	aa 	.
6474  A981 AA           	xor d			;a981	aa 	.
6475  A982 A0           	and b			;a982	a0 	.
6476  A983 40           	ld b,b			;a983	40 	@
6477  A984 00           	nop			;a984	00 	.
6478  A985 00           	nop			;a985	00 	.
6479  A986 00           	nop			;a986	00 	.
6480  A987 04           	inc b			;a987	04 	.
6481  A988 00           	nop			;a988	00 	.
6482  A989 00           	nop			;a989	00 	.
6483  A98A 00           	nop			;a98a	00 	.
6484  A98B 05           	dec b			;a98b	05 	.
6485  A98C AA           	xor d			;a98c	aa 	.
6486  A98D AA           	xor d			;a98d	aa 	.
6487  A98E AA           	xor d			;a98e	aa 	.
6488  A98F 04           	inc b			;a98f	04 	.
6489  A990 00           	nop			;a990	00 	.
6490  A991 00           	nop			;a991	00 	.
6491  A992 00           	nop			;a992	00 	.
6492  A993              	org $a993
6493  A993              la993h:
6494  A993 42           	ld b,d			;a993	42 	B
6495  A994 81           	add a,c			;a994	81 	.
6496  A995 12           	ld (de),a			;a995	12 	.
6497  A996 84           	add a,h			;a996	84 	.
6498  A997 06 90        	ld b,090h		;a997	06 90 	. .
6499  A999 A3           	and e			;a999	a3 	.
6500  A99A CA 47 10     	jp z,01047h		;a99a	ca 47 10 	. G .
6501  A99D 1B           	dec de			;a99d	1b 	.
6502  A99E 84           	add a,h			;a99e	84 	.
6503  A99F FF           	rst 38h			;a99f	ff 	.
6504  A9A0 FF           	rst 38h			;a9a0	ff 	.
6505  A9A1 42           	ld b,d			;a9a1	42 	B
6506  A9A2 E4 11 D1     	call po,0d111h		;a9a2	e4 11 d1 	. . .
6507  A9A5 05           	dec b			;a9a5	05 	.
6508  A9A6 85           	add a,l			;a9a6	85 	.
6509  A9A7 52           	ld d,d			;a9a7	52 	R
6510  A9A8 00           	nop			;a9a8	00 	.
6511  A9A9 10 20        	djnz la9cbh		;a9a9	10 20 	.
6512  A9AB 08           	ex af,af'			;a9ab	08 	.
6513  A9AC 40           	ld b,b			;a9ac	40 	@
6514  A9AD 41           	ld b,c			;a9ad	41 	A
6515  A9AE 09           	add hl,bc			;a9ae	09 	.
6516  A9AF 24           	inc h			;a9af	24 	$
6517  A9B0 14           	inc d			;a9b0	14 	.
6518  A9B1 AA           	xor d			;a9b1	aa 	.
6519  A9B2 AB           	xor e			;a9b2	ab 	.
6520  A9B3 FF           	rst 38h			;a9b3	ff 	.
6521  A9B4 FF           	rst 38h			;a9b4	ff 	.
6522  A9B5 FF           	rst 38h			;a9b5	ff 	.
6523  A9B6 FF           	rst 38h			;a9b6	ff 	.
6524  A9B7 EA AA 10     	jp pe,010aah		;a9b7	ea aa 10 	. . .
6525  A9BA 08           	ex af,af'			;a9ba	08 	.
6526  A9BB 60           	ld h,b			;a9bb	60 	`
6527  A9BC 14           	inc d			;a9bc	14 	.
6528  A9BD 41           	ld b,c			;a9bd	41 	A
6529  A9BE 24           	inc h			;a9be	24 	$
6530  A9BF 18 40        	jr laa01h		;a9bf	18 40 	. @
6531  A9C1 14           	inc d			;a9c1	14 	.
6532  A9C2 81           	add a,c			;a9c2	81 	.
6533  A9C3 42           	ld b,d			;a9c3	42 	B
6534  A9C4 00           	nop			;a9c4	00 	.
6535  A9C5
6536  A9C5              la9c5h:
6537  A9C5 00           	nop			;a9c5	00 	.
6538  A9C6 1C           	inc e			;a9c6	1c 	.
6539  A9C7 14           	inc d			;a9c7	14 	.
6540  A9C8 00           	nop			;a9c8	00 	.
6541  A9C9 00           	nop			;a9c9	00 	.
6542  A9CA 53           	ld d,e			;a9ca	53 	S
6543  A9CB              la9cbh:
6544  A9CB 14           	inc d			;a9cb	14 	.
6545  A9CC 00           	nop			;a9cc	00 	.
6546  A9CD 00           	nop			;a9cd	00 	.
6547  A9CE 8A           	adc a,d			;a9ce	8a 	.
6548  A9CF 14           	inc d			;a9cf	14 	.
6549  A9D0 00           	nop			;a9d0	00 	.
6550  A9D1 00           	nop			;a9d1	00 	.
6551  A9D2 C1           	pop bc			;a9d2	c1 	.
6552  A9D3 14           	inc d			;a9d3	14 	.
6553  A9D4 00           	nop			;a9d4	00 	.
6554  A9D5              la9d5h:
6555  A9D5 18 00        	jr la9d7h		;a9d5	18 00 	. .
6556  A9D7              la9d7h:
6557  A9D7 00           	nop			;a9d7	00 	.
6558  A9D8 00           	nop			;a9d8	00 	.
6559  A9D9 00           	nop			;a9d9	00 	.
6560  A9DA 00           	nop			;a9da	00 	.
6561  A9DB 18 2F        	jr laa0ch		;a9db	18 2f 	. /
6562  A9DD 00           	nop			;a9dd	00 	.
6563  A9DE 00           	nop			;a9de	00 	.
6564  A9DF 00           	nop			;a9df	00 	.
6565  A9E0 00           	nop			;a9e0	00 	.
6566  A9E1 00           	nop			;a9e1	00 	.
6567  A9E2 2F           	cpl			;a9e2	2f 	/
6568  A9E3 4F           	ld c,a			;a9e3	4f 	O
6569  A9E4 00           	nop			;a9e4	00 	.
6570  A9E5 00           	nop			;a9e5	00 	.
6571  A9E6 00           	nop			;a9e6	00 	.
6572  A9E7 00           	nop			;a9e7	00 	.
6573  A9E8 00           	nop			;a9e8	00 	.
6574  A9E9 4F           	ld c,a			;a9e9	4f 	O
6575  A9EA 66           	ld h,(hl)			;a9ea	66 	f
6576  A9EB 00           	nop			;a9eb	00 	.
6577  A9EC 00           	nop			;a9ec	00 	.
6578  A9ED 00           	nop			;a9ed	00 	.
6579  A9EE 00           	nop			;a9ee	00 	.
6580  A9EF 00           	nop			;a9ef	00 	.
6581  A9F0 66           	ld h,(hl)			;a9f0	66 	f
6582  A9F1              la9f1h:
6583  A9F1 01 01 10     	ld bc,01001h		;a9f1	01 01 10 	. . .
6584  A9F4 00           	nop			;a9f4	00 	.
6585  A9F5 02           	ld (bc),a			;a9f5	02 	.
6586  A9F6 00           	nop			;a9f6	00 	.
6587  A9F7 31 31 47     	ld sp,04731h		;a9f7	31 31 47 	1 1 G
6588  A9FA 00           	nop			;a9fa	00 	.
6589  A9FB 02           	ld (bc),a			;a9fb	02 	.
6590  A9FC 00           	nop			;a9fc	00 	.
6591  A9FD 68           	ld l,b			;a9fd	68 	h
6592  A9FE 68           	ld l,b			;a9fe	68 	h
6593  A9FF 7D           	ld a,l			;a9ff	7d 	}
6594  AA00 00           	nop			;aa00	00 	.
6595  AA01              laa01h:
6596  AA01 02           	ld (bc),a			;aa01	02 	.
6597  AA02 00           	nop			;aa02	00 	.
6598  AA03 9B           	sbc a,e			;aa03	9b 	.
6599  AA04 9B           	sbc a,e			;aa04	9b 	.
6600  AA05 B4           	or h			;aa05	b4 	.
6601  AA06 00           	nop			;aa06	00 	.
6602  AA07 02           	ld (bc),a			;aa07	02 	.
6603  AA08 00           	nop			;aa08	00 	.
6604  AA09 D2 D2 EE     	jp nc,0eed2h		;aa09	d2 d2 ee 	. . .
6605  AA0C              laa0ch:
6606  AA0C 00           	nop			;aa0c	00 	.
6607  AA0D 02           	ld (bc),a			;aa0d	02 	.
6608  AA0E 00           	nop			;aa0e	00 	.
6609  AA0F              laa0fh:
6610  AA0F 16 2D        	ld d,02dh		;aa0f	16 2d 	. -
6611  AA11 4D           	ld c,l			;aa11	4d 	M
6612  AA12 64           	ld h,h			;aa12	64 	d
6613  AA13 1A           	ld a,(de)			;aa13	1a 	.
6614  AA14 2A 51 61     	ld hl,(06151h)		;aa14	2a 51 61 	* Q a
6615  AA17 88           	adc a,b			;aa17	88 	.
6616  AA18 98           	sbc a,b			;aa18	98 	.
6617  AA19 BF           	cp a			;aa19	bf 	.
6618  AA1A CF           	rst 8			;aa1a	cf 	.
6619  AA1B 24           	inc h			;aa1b	24 	$
6620  AA1C 5B           	ld e,e			;aa1c	5b 	[
6621  AA1D 92           	sub d			;aa1d	92 	.
6622  AA1E C9           	ret			;aa1e	c9 	.
6623  AA1F FF           	rst 38h			;aa1f	ff 	.
6624  AA20
# file closed: l:\vz-dis-games\DawnPatrol\DawnPatrol.asm
