# file opened: l:\vz-dis-games\DefencePenetrator\DefencePenetrator.asm
   1  0000              ;***********************************************************************************************
   2  0000              ;
   3  0000              ; 	Defence Penetrator
   4  0000              ;   Disect by Casper 18.02.2020
   5  0000              ;
   6  0000              ;	Verified with SjASMPlus Z80 Cross-Assembler v1.14.3 (https://github.com/z00m128/sjasmplus)
   7  0000              ;-----------------------------------------------------------------------------------------------
   8  0000
   9  0000              	MACRO	FNAME 	filename
  10  0000 ~            .beg		defb 	filename
  11  0000 ~            			block 	16-$+.beg
  12  0000 ~            			defb	0
  13  0000              	ENDM
  14  0000
  15  0000              ; Relative address 7AD1
  16  0000              ;***********************************************************************************************
  17  0000              ; File Header Block
  18  0000 56 5A 46 30  	defb 	"VZF0"                  			; [0000] Magic
  19  0004              	FNAME	"DEF PENETRATOR  "
  19  0004 44 45 46 20 >.beg		defb 	"DEF PENETRATOR  "
  19  0008 50 45 4E 45 >
  19  000C 54 52 41 54 >
  19  0010 4F 52 20 20 >
  19  0014             >			block 	16-$+.beg
  19  0014 00          >			defb	0
  20  0015 F0           	defb	$F0             					; File Type
  21  0016 E9 7A            defw    BASIC_START        					; Destination/Basic Start address
  22  0018
  23  0018
  24  0018              ;***********************************************************************************************
  25  0018              ; SYSTEM CONSTANTS
  26  0018              IOLATCH         	equ     $6800       		; (WR) Hardware IO Latch, (RD) Keyboard all Keys
  27  0018              VDG_GFX_COLORS_0	equ		%00001000 			; GFX MODE, background Green
  28  0018              VDG_GFX_COLORS_1	equ		%00011000 			; GFX MODE, background Buff
  29  0018              VDG_MODE_CSS_MASK	equ		%00011000  			; mask to keep current Gfx settings
  30  0018              BIT_SPK_MINUS   	equ     00100000b   		; Speake Pin (-)
  31  0018              BIT_SPK_PLUS   		equ     00000001b   		; Speake Pin (+)
  32  0018              SPEAKER_PINS		equ		BIT_SPK_MINUS|BIT_SPK_PLUS
  33  0018              VRAM            	equ     $7000       		; Video RAM base address
  34  0018
  35  0018              ;************************************************************************
  36  0018              ; Keyboard Map              ADRES   |   D5  D4      D3  D2      D1  D0  |
  37  0018              ;-----------------------------------|-----------------------------------|
  38  0018              KEYS_ROW_0  		equ     $6ffe   ;   R   Q       E           W   T   |
  39  0018              KEYS_ROW_1  		equ     $6ffd   ;   F   A       D   CTRL    S   G   |
  40  0018              KEYS_ROW_2  		equ     $6ffb   ;   V   Z       C   SHIFT   X   B   |
  41  0018              KEYS_ROW_3  		equ     $6ff7   ;   4   1       3           2   5   |
  42  0018              KEYS_ROW_4  		equ     $6fef   ;   M   SPACE   ,           .   N   |
  43  0018              KEYS_ROW_5  		equ     $6fdf   ;   7   0       8   -       9   6   |
  44  0018              KEYS_ROW_6  		equ     $6fbf   ;   U   P       I   RETURN  O   Y   |
  45  0018              KEYS_ROW_7  		equ     $6f7f   ;   J   ;       K   :       L   H   |
  46  0018
  47  0018              ;***********************************************************************************************
  48  0018              ;
  49  0018              ;  B A S I C   S T A R T
  50  0018
  51  0018              	org		$7ae9
  52  7AE9
  53  7AE9              BASIC_START
  54  7AE9
  55  7AE9              ;***********************************************************************************************
  56  7AE9              ; 10 POKE30862,156:POKE30863,134:X=USR(0)
  57  7AE9              ; -- Machine code start at $869c
  58  7AE9              BASIC_10
  59  7AE9 0A 7B        	defw	$7b0a								; next BASIC line				;7ae9	0a 7b
  60  7AEB 0A 00        	defw	10									; BASIC line number				;7aeb	0a 00
  61  7AED B1 33 30 38  	defb	$b1,"30862,156"						; POKE 30862,156				;7aed	b1 33 30 38 36 32 2c 31 35 36 	1 5 6
  61  7AF1 36 32 2C 31
  61  7AF5 35 36
  62  7AF7 3A           	defb	$3a									; instruction end				;7af7	3a
  63  7AF8 B1 33 30 38  	defb	$b1,"30863,134"						; POKE30863,134					;7af8	b1 33 30 38 36 33 2c 31 33 34 	1 3 4
  63  7AFC 36 33 2C 31
  63  7B00 33 34
  64  7B02 3A           	defb	$3a									; instruction end				;7b02	3a
  65  7B03 58 D5 C1 28  	defb	"X",$d5,$c1,"(0)"					; X=USR(0)						;7b03	58 d5 c1 28 30 29
  65  7B07 30 29
  66  7B09 00           	defb	0									; end of line					;7b09	00
  67  7B0A
  68  7B0A              BASIC_END
  69  7B0A 00 00        	defw	0									; next line 0 means end			;7b0a	00 00
  70  7B0C FF 00        	defw	255									; BASIC line number				;7b0c	ff 00 	.
  71  7B0E 5F           	ld e,a			;7b0e	5f 	_
  72  7B0F 20 FF        	jr nz,$+1		;7b0f	20 ff 	  .
  73  7B11 00           	nop			;7b11	00 	.
  74  7B12 FF           	rst 38h			;7b12	ff 	.
  75  7B13 40           	ld b,b			;7b13	40 	@
  76  7B14 FF           	rst 38h			;7b14	ff 	.
  77  7B15 80           	add a,b			;7b15	80 	.
  78  7B16 FF           	rst 38h			;7b16	ff 	.
  79  7B17 36 5F        	ld (hl),05fh		;7b17	36 5f 	6 _
  80  7B19 20 FF        	jr nz,$+1		;7b19	20 ff 	  .
  81  7B1B 00           	nop			;7b1b	00 	.
  82  7B1C FF           	rst 38h			;7b1c	ff 	.
  83  7B1D 40           	ld b,b			;7b1d	40 	@
  84  7B1E FF           	rst 38h			;7b1e	ff 	.
  85  7B1F 80           	add a,b			;7b1f	80 	.
  86  7B20 FF           	rst 38h			;7b20	ff 	.
  87  7B21 31 29 29     	ld sp,02929h		;7b21	31 29 29 	1 ) )
  88  7B24 3A 8F 5A     	ld a,(05a8fh)		;7b24	3a 8f 5a 	: . Z
  89  7B27 D6 33        	sub 033h		;7b27	d6 33 	. 3
  90  7B29              l7b29h:
  91  7B29 32 CA 5A     	ld (05acah),a		;7b29	32 ca 5a 	2 . Z
  92  7B2C D5           	push de			;7b2c	d5 	.
  93  7B2D 5A           	ld e,d			;7b2d	5a 	Z
  94  7B2E CD 36 34     	call 03436h		;7b2e	cd 36 34 	. 6 4
  95  7B31 3A 48 24     	ld a,(02448h)		;7b31	3a 48 24 	: H $
  96  7B34              l7b34h:
  97  7B34 D5           	push de			;7b34	d5 	.
  98  7B35 F8           	ret m			;7b35	f8 	.
  99  7B36 28 48        	jr z,$+74		;7b36	28 48 	( H
 100  7B38              l7b38h:
 101  7B38 24           	inc h			;7b38	24 	$
 102  7B39 2C           	inc l			;7b39	2c 	,
 103  7B3A 31 29 CD     	ld sp,0cd29h		;7b3a	31 29 cd 	1 ) .
 104  7B3D F7           	rst 30h			;7b3d	f7 	.
 105  7B3E 28 5A        	jr z,l7b9ah		;7b3e	28 5a 	( Z
 106  7B40 29           	add hl,hl			;7b40	29 	)
 107  7B41 00           	nop			;7b41	00 	.
 108  7B42 00           	nop			;7b42	00 	.
 109  7B43 00           	nop			;7b43	00 	.
 110  7B44 FF           	rst 38h			;7b44	ff 	.
 111  7B45 00           	nop			;7b45	00 	.
 112  7B46 5F           	ld e,a			;7b46	5f 	_
 113  7B47 20 FF        	jr nz,$+1		;7b47	20 ff 	  .
 114  7B49 00           	nop			;7b49	00 	.
 115  7B4A FF           	rst 38h			;7b4a	ff 	.
 116  7B4B 40           	ld b,b			;7b4b	40 	@
 117  7B4C FF           	rst 38h			;7b4c	ff 	.
 118  7B4D 80           	add a,b			;7b4d	80 	.
 119  7B4E FF           	rst 38h			;7b4e	ff 	.
 120  7B4F 31 29 29     	ld sp,02929h		;7b4f	31 29 29 	1 ) )
 121  7B52 3A 8F 5A     	ld a,(05a8fh)		;7b52	3a 8f 5a 	: . Z
 122  7B55 D6 33        	sub 033h		;7b55	d6 33 	. 3
 123  7B57 32 CA 5A     	ld (05acah),a		;7b57	32 ca 5a 	2 . Z
 124  7B5A D5           	push de			;7b5a	d5 	.
 125  7B5B 5A           	ld e,d			;7b5b	5a 	Z
 126  7B5C CD 36 34     	call 03436h		;7b5c	cd 36 34 	. 6 4
 127  7B5F 3A 48 24     	ld a,(02448h)		;7b5f	3a 48 24 	: H $
 128  7B62 D5           	push de			;7b62	d5 	.
 129  7B63 F8           	ret m			;7b63	f8 	.
 130  7B64 28 48        	jr z,$+74		;7b64	28 48 	( H
 131  7B66 24           	inc h			;7b66	24 	$
 132  7B67 2C           	inc l			;7b67	2c 	,
 133  7B68 31 29 CD     	ld sp,0cd29h		;7b68	31 29 cd 	1 ) .
 134  7B6B F7           	rst 30h			;7b6b	f7 	.
 135  7B6C 28 5A        	jr z,l7bc8h		;7b6c	28 5a 	( Z
 136  7B6E 29           	add hl,hl			;7b6e	29 	)
 137  7B6F 00           	nop			;7b6f	00 	.
 138  7B70 00           	nop			;7b70	00 	.
 139  7B71 00           	nop			;7b71	00 	.
 140  7B72 FF           	rst 38h			;7b72	ff 	.
 141  7B73 00           	nop			;7b73	00 	.
 142  7B74 5F           	ld e,a			;7b74	5f 	_
 143  7B75 20 FF        	jr nz,$+1		;7b75	20 ff 	  .
 144  7B77 00           	nop			;7b77	00 	.
 145  7B78 FF           	rst 38h			;7b78	ff 	.
 146  7B79 40           	ld b,b			;7b79	40 	@
 147  7B7A FF           	rst 38h			;7b7a	ff 	.
 148  7B7B 80           	add a,b			;7b7b	80 	.
 149  7B7C FF           	rst 38h			;7b7c	ff 	.
 150  7B7D 2C           	inc l			;7b7d	2c 	,
 151  7B7E 31 29 29     	ld sp,02929h		;7b7e	31 29 29 	1 ) )
 152  7B81 CE 34        	adc a,034h		;7b81	ce 34 	. 4
 153  7B83 38 00        	jr c,l7b85h		;7b83	38 00 	8 .
 154  7B85              l7b85h:
 155  7B85 00           	nop			;7b85	00 	.
 156  7B86 00           	nop			;7b86	00 	.
 157  7B87 FF           	rst 38h			;7b87	ff 	.
 158  7B88 00           	nop			;7b88	00 	.
 159  7B89 5F           	ld e,a			;7b89	5f 	_
 160  7B8A 20 FF        	jr nz,$+1		;7b8a	20 ff 	  .
 161  7B8C 00           	nop			;7b8c	00 	.
 162  7B8D FF           	rst 38h			;7b8d	ff 	.
 163  7B8E 40           	ld b,b			;7b8e	40 	@
 164  7B8F FF           	rst 38h			;7b8f	ff 	.
 165  7B90 80           	add a,b			;7b90	80 	.
 166  7B91 FF           	rst 38h			;7b91	ff 	.
 167  7B92 20 FF        	jr nz,$+1		;7b92	20 ff 	  .
 168  7B94 00           	nop			;7b94	00 	.
 169  7B95 FF           	rst 38h			;7b95	ff 	.
 170  7B96 40           	ld b,b			;7b96	40 	@
 171  7B97 FF           	rst 38h			;7b97	ff 	.
 172  7B98 80           	add a,b			;7b98	80 	.
 173  7B99 FF           	rst 38h			;7b99	ff 	.
 174  7B9A              l7b9ah:
 175  7B9A 8D           	adc a,l			;7b9a	8d 	.
 176  7B9B 33           	inc sp			;7b9b	33 	3
 177  7B9C 30 00        	jr nc,l7b9eh		;7b9c	30 00 	0 .
 178  7B9E              l7b9eh:
 179  7B9E 00           	nop			;7b9e	00 	.
 180  7B9F 00           	nop			;7b9f	00 	.
 181  7BA0 FF           	rst 38h			;7ba0	ff 	.
 182  7BA1 00           	nop			;7ba1	00 	.
 183  7BA2 5F           	ld e,a			;7ba2	5f 	_
 184  7BA3 20 FF        	jr nz,$+1		;7ba3	20 ff 	  .
 185  7BA5 00           	nop			;7ba5	00 	.
 186  7BA6 FF           	rst 38h			;7ba6	ff 	.
 187  7BA7 40           	ld b,b			;7ba7	40 	@
 188  7BA8 FF           	rst 38h			;7ba8	ff 	.
 189  7BA9 80           	add a,b			;7ba9	80 	.
 190  7BAA FF           	rst 38h			;7baa	ff 	.
 191  7BAB 44           	ld b,h			;7bab	44 	D
 192  7BAC 44           	ld b,h			;7bac	44 	D
 193  7BAD 22 CA 32     	ld (032cah),hl		;7bad	22 ca 32 	" . 2
 194  7BB0 30 00        	jr nc,l7bb2h		;7bb0	30 00 	0 .
 195  7BB2              l7bb2h:
 196  7BB2 BA           	cp d			;7bb2	ba 	.
 197  7BB3 7B           	ld a,e			;7bb3	7b 	{
 198  7BB4 A0           	and b			;7bb4	a0 	.
 199  7BB5 00           	nop			;7bb5	00 	.
 200  7BB6 8D           	adc a,l			;7bb6	8d 	.
 201  7BB7 33           	inc sp			;7bb7	33 	3
 202  7BB8 30 00        	jr nc,l7bbah		;7bb8	30 00 	0 .
 203  7BBA              l7bbah:
 204  7BBA 00           	nop			;7bba	00 	.
 205  7BBB 00           	nop			;7bbb	00 	.
 206  7BBC FF           	rst 38h			;7bbc	ff 	.
 207  7BBD 00           	nop			;7bbd	00 	.
 208  7BBE 5F           	ld e,a			;7bbe	5f 	_
 209  7BBF 20 FF        	jr nz,$+1		;7bbf	20 ff 	  .
 210  7BC1 00           	nop			;7bc1	00 	.
 211  7BC2 FF           	rst 38h			;7bc2	ff 	.
 212  7BC3 40           	ld b,b			;7bc3	40 	@
 213  7BC4 FF           	rst 38h			;7bc4	ff 	.
 214  7BC5 80           	add a,b			;7bc5	80 	.
 215  7BC6 FF           	rst 38h			;7bc6	ff 	.
 216  7BC7 44           	ld b,h			;7bc7	44 	D
 217  7BC8              l7bc8h:
 218  7BC8 44           	ld b,h			;7bc8	44 	D
 219  7BC9 22 CA 32     	ld (032cah),hl		;7bc9	22 ca 32 	" . 2
 220  7BCC 30 00        	jr nc,l7bceh		;7bcc	30 00 	0 .
 221  7BCE              l7bceh:
 222  7BCE D6 7B        	sub 07bh		;7bce	d6 7b 	. {
 223  7BD0 A0           	and b			;7bd0	a0 	.
 224  7BD1 00           	nop			;7bd1	00 	.
 225  7BD2 8D           	adc a,l			;7bd2	8d 	.
 226  7BD3 33           	inc sp			;7bd3	33 	3
 227  7BD4 30 00        	jr nc,l7bd6h		;7bd4	30 00 	0 .
 228  7BD6              l7bd6h:
 229  7BD6 00           	nop			;7bd6	00 	.
 230  7BD7 00           	nop			;7bd7	00 	.
 231  7BD8 FF           	rst 38h			;7bd8	ff 	.
 232  7BD9 00           	nop			;7bd9	00 	.
 233  7BDA 5F           	ld e,a			;7bda	5f 	_
 234  7BDB 20 FF        	jr nz,$+1		;7bdb	20 ff 	  .
 235  7BDD 00           	nop			;7bdd	00 	.
 236  7BDE FF           	rst 38h			;7bde	ff 	.
 237  7BDF 40           	ld b,b			;7bdf	40 	@
 238  7BE0 FF           	rst 38h			;7be0	ff 	.
 239  7BE1 80           	add a,b			;7be1	80 	.
 240  7BE2 FF           	rst 38h			;7be2	ff 	.
 241  7BE3 33           	inc sp			;7be3	33 	3
 242  7BE4 30 00        	jr nc,l7be6h		;7be4	30 00 	0 .
 243  7BE6              l7be6h:
 244  7BE6 00           	nop			;7be6	00 	.
 245  7BE7 00           	nop			;7be7	00 	.
 246  7BE8 FF           	rst 38h			;7be8	ff 	.
 247  7BE9 00           	nop			;7be9	00 	.
 248  7BEA 5F           	ld e,a			;7bea	5f 	_
 249  7BEB 20 FF        	jr nz,$+1		;7beb	20 ff 	  .
 250  7BED 00           	nop			;7bed	00 	.
 251  7BEE FF           	rst 38h			;7bee	ff 	.
 252  7BEF 40           	ld b,b			;7bef	40 	@
 253  7BF0 FF           	rst 38h			;7bf0	ff 	.
 254  7BF1 80           	add a,b			;7bf1	80 	.
 255  7BF2 FF           	rst 38h			;7bf2	ff 	.
 256  7BF3 00           	nop			;7bf3	00 	.
 257  7BF4 FC 7B A0     	call m,0a07bh		;7bf4	fc 7b a0 	. { .
 258  7BF7 00           	nop			;7bf7	00 	.
 259  7BF8 8D           	adc a,l			;7bf8	8d 	.
 260  7BF9 33           	inc sp			;7bf9	33 	3
 261  7BFA 30 00        	jr nc,l7bfch		;7bfa	30 00 	0 .
 262  7BFC              l7bfch:
 263  7BFC 00           	nop			;7bfc	00 	.
 264  7BFD 00           	nop			;7bfd	00 	.
 265  7BFE FF           	rst 38h			;7bfe	ff 	.
 266  7BFF 00           	nop			;7bff	00 	.
 267  7C00 5F           	ld e,a			;7c00	5f 	_
 268  7C01 20 FF        	jr nz,$+1		;7c01	20 ff 	  .
 269  7C03 00           	nop			;7c03	00 	.
 270  7C04 FF           	rst 38h			;7c04	ff 	.
 271  7C05 40           	ld b,b			;7c05	40 	@
 272  7C06 FF           	rst 38h			;7c06	ff 	.
 273  7C07 80           	add a,b			;7c07	80 	.
 274  7C08 FF           	rst 38h			;7c08	ff 	.
 275  7C09 33           	inc sp			;7c09	33 	3
 276  7C0A 30 00        	jr nc,l7c0ch		;7c0a	30 00 	0 .
 277  7C0C              l7c0ch:
 278  7C0C 00           	nop			;7c0c	00 	.
 279  7C0D 00           	nop			;7c0d	00 	.
 280  7C0E FF           	rst 38h			;7c0e	ff 	.
 281  7C0F 00           	nop			;7c0f	00 	.
 282  7C10 5F           	ld e,a			;7c10	5f 	_
 283  7C11 20 FF        	jr nz,$+1		;7c11	20 ff 	  .
 284  7C13 00           	nop			;7c13	00 	.
 285  7C14 FF           	rst 38h			;7c14	ff 	.
 286  7C15 40           	ld b,b			;7c15	40 	@
 287  7C16 FF           	rst 38h			;7c16	ff 	.
 288  7C17 80           	add a,b			;7c17	80 	.
 289  7C18 FF           	rst 38h			;7c18	ff 	.
 290  7C19 00           	nop			;7c19	00 	.
 291  7C1A 8D           	adc a,l			;7c1a	8d 	.
 292  7C1B 33           	inc sp			;7c1b	33 	3
 293  7C1C 30 00        	jr nc,l7c1eh		;7c1c	30 00 	0 .
 294  7C1E              l7c1eh:
 295  7C1E 00           	nop			;7c1e	00 	.
 296  7C1F 00           	nop			;7c1f	00 	.
 297  7C20 FF           	rst 38h			;7c20	ff 	.
 298  7C21 00           	nop			;7c21	00 	.
 299  7C22 5F           	ld e,a			;7c22	5f 	_
 300  7C23 20 FF        	jr nz,$+1		;7c23	20 ff 	  .
 301  7C25 00           	nop			;7c25	00 	.
 302  7C26 FF           	rst 38h			;7c26	ff 	.
 303  7C27 40           	ld b,b			;7c27	40 	@
 304  7C28 FF           	rst 38h			;7c28	ff 	.
 305  7C29 80           	add a,b			;7c29	80 	.
 306  7C2A FF           	rst 38h			;7c2a	ff 	.
 307  7C2B 00           	nop			;7c2b	00 	.
 308  7C2C 8D           	adc a,l			;7c2c	8d 	.
 309  7C2D 33           	inc sp			;7c2d	33 	3
 310  7C2E 30 00        	jr nc,l7c30h		;7c2e	30 00 	0 .
 311  7C30              l7c30h:
 312  7C30 00           	nop			;7c30	00 	.
 313  7C31 00           	nop			;7c31	00 	.
 314  7C32 FF           	rst 38h			;7c32	ff 	.
 315  7C33 00           	nop			;7c33	00 	.
 316  7C34 5F           	ld e,a			;7c34	5f 	_
 317  7C35 20 FF        	jr nz,$+1		;7c35	20 ff 	  .
 318  7C37 00           	nop			;7c37	00 	.
 319  7C38 FF           	rst 38h			;7c38	ff 	.
 320  7C39 40           	ld b,b			;7c39	40 	@
 321  7C3A FF           	rst 38h			;7c3a	ff 	.
 322  7C3B 80           	add a,b			;7c3b	80 	.
 323  7C3C FF           	rst 38h			;7c3c	ff 	.
 324  7C3D 45           	ld b,l			;7c3d	45 	E
 325  7C3E 7C           	ld a,h			;7c3e	7c 	|
 326  7C3F A0           	and b			;7c3f	a0 	.
 327  7C40 00           	nop			;7c40	00 	.
 328  7C41 8D           	adc a,l			;7c41	8d 	.
 329  7C42 33           	inc sp			;7c42	33 	3
 330  7C43 30 00        	jr nc,l7c45h		;7c43	30 00 	0 .
 331  7C45              l7c45h:
 332  7C45 00           	nop			;7c45	00 	.
 333  7C46 00           	nop			;7c46	00 	.
 334  7C47 FF           	rst 38h			;7c47	ff 	.
 335  7C48 00           	nop			;7c48	00 	.
 336  7C49 5F           	ld e,a			;7c49	5f 	_
 337  7C4A 20 FF        	jr nz,$+1		;7c4a	20 ff 	  .
 338  7C4C 00           	nop			;7c4c	00 	.
 339  7C4D FF           	rst 38h			;7c4d	ff 	.
 340  7C4E 40           	ld b,b			;7c4e	40 	@
 341  7C4F FF           	rst 38h			;7c4f	ff 	.
 342  7C50 80           	add a,b			;7c50	80 	.
 343  7C51 FF           	rst 38h			;7c51	ff 	.
 344  7C52 8D           	adc a,l			;7c52	8d 	.
 345  7C53 33           	inc sp			;7c53	33 	3
 346  7C54 30 00        	jr nc,l7c56h		;7c54	30 00 	0 .
 347  7C56              l7c56h:
 348  7C56 00           	nop			;7c56	00 	.
 349  7C57 00           	nop			;7c57	00 	.
 350  7C58 FF           	rst 38h			;7c58	ff 	.
 351  7C59 00           	nop			;7c59	00 	.
 352  7C5A 5F           	ld e,a			;7c5a	5f 	_
 353  7C5B 20 FF        	jr nz,$+1		;7c5b	20 ff 	  .
 354  7C5D 00           	nop			;7c5d	00 	.
 355  7C5E FF           	rst 38h			;7c5e	ff 	.
 356  7C5F 40           	ld b,b			;7c5f	40 	@
 357  7C60 FF           	rst 38h			;7c60	ff 	.
 358  7C61 80           	add a,b			;7c61	80 	.
 359  7C62 FF           	rst 38h			;7c62	ff 	.
 360  7C63 32 30 00     	ld (00030h),a		;7c63	32 30 00 	2 0 .
 361  7C66 6E           	ld l,(hl)			;7c66	6e 	n
 362  7C67 7C           	ld a,h			;7c67	7c 	|
 363  7C68 A0           	and b			;7c68	a0 	.
 364  7C69 00           	nop			;7c69	00 	.
 365  7C6A 8D           	adc a,l			;7c6a	8d 	.
 366  7C6B 33           	inc sp			;7c6b	33 	3
 367  7C6C 30 00        	jr nc,l7c6eh		;7c6c	30 00 	0 .
 368  7C6E              l7c6eh:
 369  7C6E 00           	nop			;7c6e	00 	.
 370  7C6F 00           	nop			;7c6f	00 	.
 371  7C70 FF           	rst 38h			;7c70	ff 	.
 372  7C71 00           	nop			;7c71	00 	.
 373  7C72 5F           	ld e,a			;7c72	5f 	_
 374  7C73 20 FF        	jr nz,$+1		;7c73	20 ff 	  .
 375  7C75 00           	nop			;7c75	00 	.
 376  7C76 FF           	rst 38h			;7c76	ff 	.
 377  7C77 40           	ld b,b			;7c77	40 	@
 378  7C78 FF           	rst 38h			;7c78	ff 	.
 379  7C79 80           	add a,b			;7c79	80 	.
 380  7C7A FF           	rst 38h			;7c7a	ff 	.
 381  7C7B 83           	add a,e			;7c7b	83 	.
 382  7C7C 7C           	ld a,h			;7c7c	7c 	|
 383  7C7D A0           	and b			;7c7d	a0 	.
 384  7C7E 00           	nop			;7c7e	00 	.
 385  7C7F 8D           	adc a,l			;7c7f	8d 	.
 386  7C80 33           	inc sp			;7c80	33 	3
 387  7C81 30 00        	jr nc,l7c83h		;7c81	30 00 	0 .
 388  7C83              l7c83h:
 389  7C83 00           	nop			;7c83	00 	.
 390  7C84 00           	nop			;7c84	00 	.
 391  7C85 FF           	rst 38h			;7c85	ff 	.
 392  7C86 00           	nop			;7c86	00 	.
 393  7C87 5F           	ld e,a			;7c87	5f 	_
 394  7C88 20 FF        	jr nz,$+1		;7c88	20 ff 	  .
 395  7C8A 00           	nop			;7c8a	00 	.
 396  7C8B FF           	rst 38h			;7c8b	ff 	.
 397  7C8C 40           	ld b,b			;7c8c	40 	@
 398  7C8D FF           	rst 38h			;7c8d	ff 	.
 399  7C8E 80           	add a,b			;7c8e	80 	.
 400  7C8F FF           	rst 38h			;7c8f	ff 	.
 401  7C90 98           	sbc a,b			;7c90	98 	.
 402  7C91 7C           	ld a,h			;7c91	7c 	|
 403  7C92 A0           	and b			;7c92	a0 	.
 404  7C93 00           	nop			;7c93	00 	.
 405  7C94 8D           	adc a,l			;7c94	8d 	.
 406  7C95 33           	inc sp			;7c95	33 	3
 407  7C96 30 00        	jr nc,l7c98h		;7c96	30 00 	0 .
 408  7C98              l7c98h:
 409  7C98 00           	nop			;7c98	00 	.
 410  7C99 00           	nop			;7c99	00 	.
 411  7C9A FF           	rst 38h			;7c9a	ff 	.
 412  7C9B 00           	nop			;7c9b	00 	.
 413  7C9C 5F           	ld e,a			;7c9c	5f 	_
 414  7C9D 20 FF        	jr nz,$+1		;7c9d	20 ff 	  .
 415  7C9F 00           	nop			;7c9f	00 	.
 416  7CA0 FF           	rst 38h			;7ca0	ff 	.
 417  7CA1 40           	ld b,b			;7ca1	40 	@
 418  7CA2 FF           	rst 38h			;7ca2	ff 	.
 419  7CA3 80           	add a,b			;7ca3	80 	.
 420  7CA4 FF           	rst 38h			;7ca4	ff 	.
 421  7CA5 D5           	push de			;7ca5	d5 	.
 422  7CA6 41           	ld b,c			;7ca6	41 	A
 423  7CA7 31 CE 31     	ld sp,031ceh		;7ca7	31 ce 31 	1 . 1
 424  7CAA 00           	nop			;7caa	00 	.
 425  7CAB BC           	cp h			;7cab	bc 	.
 426  7CAC 7C           	ld a,h			;7cac	7c 	|
 427  7CAD 96           	sub (hl)			;7cad	96 	.
 428  7CAE 00           	nop			;7cae	00 	.
 429  7CAF 8F           	adc a,a			;7caf	8f 	.
 430  7CB0 48           	ld c,b			;7cb0	48 	H
 431  7CB1 24           	inc h			;7cb1	24 	$
 432  7CB2 D5           	push de			;7cb2	d5 	.
 433  7CB3 22 41 44     	ld (04441h),hl		;7cb3	22 41 44 	" A D
 434  7CB6 44           	ld b,h			;7cb6	44 	D
 435  7CB7 22 CA 32     	ld (032cah),hl		;7cb7	22 ca 32 	" . 2
 436  7CBA 30 00        	jr nc,l7cbch		;7cba	30 00 	0 .
 437  7CBC              l7cbch:
 438  7CBC C4 7C A0     	call nz,0a07ch		;7cbc	c4 7c a0 	. | .
 439  7CBF 00           	nop			;7cbf	00 	.
 440  7CC0 8D           	adc a,l			;7cc0	8d 	.
 441  7CC1 33           	inc sp			;7cc1	33 	3
 442  7CC2 30 00        	jr nc,l7cc4h		;7cc2	30 00 	0 .
 443  7CC4              l7cc4h:
 444  7CC4 00           	nop			;7cc4	00 	.
 445  7CC5 00           	nop			;7cc5	00 	.
 446  7CC6 FF           	rst 38h			;7cc6	ff 	.
 447  7CC7 00           	nop			;7cc7	00 	.
 448  7CC8 5F           	ld e,a			;7cc8	5f 	_
 449  7CC9 20 FF        	jr nz,$+1		;7cc9	20 ff 	  .
 450  7CCB 00           	nop			;7ccb	00 	.
 451  7CCC FF           	rst 38h			;7ccc	ff 	.
 452  7CCD 40           	ld b,b			;7ccd	40 	@
 453  7CCE FF           	rst 38h			;7cce	ff 	.
 454  7CCF 80           	add a,b			;7ccf	80 	.
 455  7CD0 FF           	rst 38h			;7cd0	ff 	.
 456  7CD1 3A 41 31     	ld a,(03141h)		;7cd1	3a 41 31 	: A 1
 457  7CD4 D5           	push de			;7cd4	d5 	.
 458  7CD5 41           	ld b,c			;7cd5	41 	A
 459  7CD6 31 CE 31     	ld sp,031ceh		;7cd6	31 ce 31 	1 . 1
 460  7CD9 00           	nop			;7cd9	00 	.
 461  7CDA EB           	ex de,hl			;7cda	eb 	.
 462  7CDB 7C           	ld a,h			;7cdb	7c 	|
 463  7CDC 96           	sub (hl)			;7cdc	96 	.
 464  7CDD 00           	nop			;7cdd	00 	.
 465  7CDE 8F           	adc a,a			;7cde	8f 	.
 466  7CDF 48           	ld c,b			;7cdf	48 	H
 467  7CE0 24           	inc h			;7ce0	24 	$
 468  7CE1 D5           	push de			;7ce1	d5 	.
 469  7CE2 22 41 44     	ld (04441h),hl		;7ce2	22 41 44 	" A D
 470  7CE5 44           	ld b,h			;7ce5	44 	D
 471  7CE6 22 CA 32     	ld (032cah),hl		;7ce6	22 ca 32 	" . 2
 472  7CE9 30 00        	jr nc,l7cebh		;7ce9	30 00 	0 .
 473  7CEB              l7cebh:
 474  7CEB F3           	di			;7ceb	f3 	.
 475  7CEC 7C           	ld a,h			;7cec	7c 	|
 476  7CED A0           	and b			;7ced	a0 	.
 477  7CEE 00           	nop			;7cee	00 	.
 478  7CEF 8D           	adc a,l			;7cef	8d 	.
 479  7CF0 33           	inc sp			;7cf0	33 	3
 480  7CF1 30 00        	jr nc,l7cf3h		;7cf1	30 00 	0 .
 481  7CF3              l7cf3h:
 482  7CF3 00           	nop			;7cf3	00 	.
 483  7CF4 00           	nop			;7cf4	00 	.
 484  7CF5 FF           	rst 38h			;7cf5	ff 	.
 485  7CF6 00           	nop			;7cf6	00 	.
 486  7CF7 5F           	ld e,a			;7cf7	5f 	_
 487  7CF8 20 FF        	jr nz,$+1		;7cf8	20 ff 	  .
 488  7CFA 00           	nop			;7cfa	00 	.
 489  7CFB FF           	rst 38h			;7cfb	ff 	.
 490  7CFC 40           	ld b,b			;7cfc	40 	@
 491  7CFD FF           	rst 38h			;7cfd	ff 	.
 492  7CFE 80           	add a,b			;7cfe	80 	.
 493  7CFF FF           	rst 38h			;7cff	ff 	.
 494  7D00 04           	inc b			;7d00	04 	.
 495  7D01 FF           	rst 38h			;7d01	ff 	.
 496  7D02 00           	nop			;7d02	00 	.
 497  7D03 FF           	rst 38h			;7d03	ff 	.
 498  7D04 00           	nop			;7d04	00 	.
 499  7D05 FF           	rst 38h			;7d05	ff 	.
 500  7D06 A0           	and b			;7d06	a0 	.
 501  7D07 7F           	ld a,a			;7d07	7f 	
 502  7D08 28 6A        	jr z,l7d74h		;7d08	28 6a 	( j
 503  7D0A 00           	nop			;7d0a	00 	.
 504  7D0B FF           	rst 38h			;7d0b	ff 	.
 505  7D0C 00           	nop			;7d0c	00 	.
 506  7D0D FF           	rst 38h			;7d0d	ff 	.
 507  7D0E 20 7F        	jr nz,l7d8fh		;7d0e	20 7f 	  
 508  7D10 73           	ld (hl),e			;7d10	73 	s
 509  7D11 23           	inc hl			;7d11	23 	#
 510  7D12 00           	nop			;7d12	00 	.
 511  7D13 FF           	rst 38h			;7d13	ff 	.
 512  7D14 00           	nop			;7d14	00 	.
 513  7D15 FF           	rst 38h			;7d15	ff 	.
 514  7D16 00           	nop			;7d16	00 	.
 515  7D17 EF           	rst 28h			;7d17	ef 	.
 516  7D18 B0           	or b			;7d18	b0 	.
 517  7D19 3F           	ccf			;7d19	3f 	?
 518  7D1A 00           	nop			;7d1a	00 	.
 519  7D1B FF           	rst 38h			;7d1b	ff 	.
 520  7D1C 00           	nop			;7d1c	00 	.
 521  7D1D FF           	rst 38h			;7d1d	ff 	.
 522  7D1E 10 FF        	djnz $+1		;7d1e	10 ff 	. .
 523  7D20 12           	ld (de),a			;7d20	12 	.
 524  7D21 FD 00 FF     	defb 0fdh,000h,0ffh	;illegal sequence		;7d21	fd 00 ff 	. . .
 525  7D24 00           	nop			;7d24	00 	.
 526  7D25 FF           	rst 38h			;7d25	ff 	.
 527  7D26 40           	ld b,b			;7d26	40 	@
 528  7D27 BD           	cp l			;7d27	bd 	.
 529  7D28 90           	sub b			;7d28	90 	.
 530  7D29 FF           	rst 38h			;7d29	ff 	.
 531  7D2A 00           	nop			;7d2a	00 	.
 532  7D2B              l7d2bh:
 533  7D2B FF           	rst 38h			;7d2b	ff 	.
 534  7D2C 00           	nop			;7d2c	00 	.
 535  7D2D FF           	rst 38h			;7d2d	ff 	.
 536  7D2E 20 FB        	jr nz,l7d2bh		;7d2e	20 fb 	  .
 537  7D30 14           	inc d			;7d30	14 	.
 538  7D31 4D           	ld c,l			;7d31	4d 	M
 539  7D32 00           	nop			;7d32	00 	.
 540  7D33 FF           	rst 38h			;7d33	ff 	.
 541  7D34 00           	nop			;7d34	00 	.
 542  7D35 FF           	rst 38h			;7d35	ff 	.
 543  7D36 62           	ld h,d			;7d36	62 	b
 544  7D37 FF           	rst 38h			;7d37	ff 	.
 545  7D38 20 FF        	jr nz,$+1		;7d38	20 ff 	  .
 546  7D3A 00           	nop			;7d3a	00 	.
 547  7D3B FF           	rst 38h			;7d3b	ff 	.
 548  7D3C 40           	ld b,b			;7d3c	40 	@
 549  7D3D FF           	rst 38h			;7d3d	ff 	.
 550  7D3E 90           	sub b			;7d3e	90 	.
 551  7D3F 2B           	dec hl			;7d3f	2b 	+
 552  7D40 48           	ld c,b			;7d40	48 	H
 553  7D41 FF           	rst 38h			;7d41	ff 	.
 554  7D42 00           	nop			;7d42	00 	.
 555  7D43 FF           	rst 38h			;7d43	ff 	.
 556  7D44 00           	nop			;7d44	00 	.
 557  7D45 FF           	rst 38h			;7d45	ff 	.
 558  7D46 C0           	ret nz			;7d46	c0 	.
 559  7D47 FF           	rst 38h			;7d47	ff 	.
 560  7D48 00           	nop			;7d48	00 	.
 561  7D49 AD           	xor l			;7d49	ad 	.
 562  7D4A 00           	nop			;7d4a	00 	.
 563  7D4B FF           	rst 38h			;7d4b	ff 	.
 564  7D4C 00           	nop			;7d4c	00 	.
 565  7D4D FF           	rst 38h			;7d4d	ff 	.
 566  7D4E 52           	ld d,d			;7d4e	52 	R
 567  7D4F 8F           	adc a,a			;7d4f	8f 	.
 568  7D50 90           	sub b			;7d50	90 	.
 569  7D51 AF           	xor a			;7d51	af 	.
 570  7D52 00           	nop			;7d52	00 	.
 571  7D53 FF           	rst 38h			;7d53	ff 	.
 572  7D54 00           	nop			;7d54	00 	.
 573  7D55 FF           	rst 38h			;7d55	ff 	.
 574  7D56 01 FE 20     	ld bc,020feh		;7d56	01 fe 20 	. .
 575  7D59 3F           	ccf			;7d59	3f 	?
 576  7D5A 00           	nop			;7d5a	00 	.
 577  7D5B FF           	rst 38h			;7d5b	ff 	.
 578  7D5C 00           	nop			;7d5c	00 	.
 579  7D5D FF           	rst 38h			;7d5d	ff 	.
 580  7D5E 10 FF        	djnz $+1		;7d5e	10 ff 	. .
 581  7D60 72           	ld (hl),d			;7d60	72 	r
 582  7D61 FF           	rst 38h			;7d61	ff 	.
 583  7D62 00           	nop			;7d62	00 	.
 584  7D63 FF           	rst 38h			;7d63	ff 	.
 585  7D64 00           	nop			;7d64	00 	.
 586  7D65 FF           	rst 38h			;7d65	ff 	.
 587  7D66 30 7F        	jr nc,$+129		;7d66	30 7f 	0 
 588  7D68 90           	sub b			;7d68	90 	.
 589  7D69 AF           	xor a			;7d69	af 	.
 590  7D6A 00           	nop			;7d6a	00 	.
 591  7D6B FF           	rst 38h			;7d6b	ff 	.
 592  7D6C 00           	nop			;7d6c	00 	.
 593  7D6D FF           	rst 38h			;7d6d	ff 	.
 594  7D6E 60           	ld h,b			;7d6e	60 	`
 595  7D6F FF           	rst 38h			;7d6f	ff 	.
 596  7D70 00           	nop			;7d70	00 	.
 597  7D71 FE 00        	cp 000h		;7d71	fe 00 	. .
 598  7D73 FF           	rst 38h			;7d73	ff 	.
 599  7D74              l7d74h:
 600  7D74 00           	nop			;7d74	00 	.
 601  7D75 FF           	rst 38h			;7d75	ff 	.
 602  7D76 40           	ld b,b			;7d76	40 	@
 603  7D77 BF           	cp a			;7d77	bf 	.
 604  7D78 20 FF        	jr nz,$+1		;7d78	20 ff 	  .
 605  7D7A 00           	nop			;7d7a	00 	.
 606  7D7B FF           	rst 38h			;7d7b	ff 	.
 607  7D7C 00           	nop			;7d7c	00 	.
 608  7D7D FF           	rst 38h			;7d7d	ff 	.
 609  7D7E 20 FF        	jr nz,$+1		;7d7e	20 ff 	  .
 610  7D80 02           	ld (bc),a			;7d80	02 	.
 611  7D81 EF           	rst 28h			;7d81	ef 	.
 612  7D82 00           	nop			;7d82	00 	.
 613  7D83 FF           	rst 38h			;7d83	ff 	.
 614  7D84 00           	nop			;7d84	00 	.
 615  7D85 FF           	rst 38h			;7d85	ff 	.
 616  7D86 00           	nop			;7d86	00 	.
 617  7D87 FF           	rst 38h			;7d87	ff 	.
 618  7D88 02           	ld (bc),a			;7d88	02 	.
 619  7D89 EF           	rst 28h			;7d89	ef 	.
 620  7D8A 00           	nop			;7d8a	00 	.
 621  7D8B FF           	rst 38h			;7d8b	ff 	.
 622  7D8C 00           	nop			;7d8c	00 	.
 623  7D8D FF           	rst 38h			;7d8d	ff 	.
 624  7D8E 60           	ld h,b			;7d8e	60 	`
 625  7D8F              l7d8fh:
 626  7D8F EB           	ex de,hl			;7d8f	eb 	.
 627  7D90 E0           	ret po			;7d90	e0 	.
 628  7D91 7C           	ld a,h			;7d91	7c 	|
 629  7D92 00           	nop			;7d92	00 	.
 630  7D93 FB           	ei			;7d93	fb 	.
 631  7D94 00           	nop			;7d94	00 	.
 632  7D95 FF           	rst 38h			;7d95	ff 	.
 633  7D96 08           	ex af,af'			;7d96	08 	.
 634  7D97 FF           	rst 38h			;7d97	ff 	.
 635  7D98 90           	sub b			;7d98	90 	.
 636  7D99 7F           	ld a,a			;7d99	7f 	
 637  7D9A 00           	nop			;7d9a	00 	.
 638  7D9B FF           	rst 38h			;7d9b	ff 	.
 639  7D9C 00           	nop			;7d9c	00 	.
 640  7D9D FF           	rst 38h			;7d9d	ff 	.
 641  7D9E 00           	nop			;7d9e	00 	.
 642  7D9F FD 02 FF     	defb 0fdh,002h,0ffh	;illegal sequence		;7d9f	fd 02 ff 	. . .
 643  7DA2 00           	nop			;7da2	00 	.
 644  7DA3 FF           	rst 38h			;7da3	ff 	.
 645  7DA4 00           	nop			;7da4	00 	.
 646  7DA5 FF           	rst 38h			;7da5	ff 	.
 647  7DA6 42           	ld b,d			;7da6	42 	B
 648  7DA7 BF           	cp a			;7da7	bf 	.
 649  7DA8 02           	ld (bc),a			;7da8	02 	.
 650  7DA9 FF           	rst 38h			;7da9	ff 	.
 651  7DAA 00           	nop			;7daa	00 	.
 652  7DAB FF           	rst 38h			;7dab	ff 	.
 653  7DAC 00           	nop			;7dac	00 	.
 654  7DAD FF           	rst 38h			;7dad	ff 	.
 655  7DAE 44           	ld b,h			;7dae	44 	D
 656  7DAF 7F           	ld a,a			;7daf	7f 	
 657  7DB0 91           	sub c			;7db0	91 	.
 658  7DB1 FE 00        	cp 000h		;7db1	fe 00 	. .
 659  7DB3 FF           	rst 38h			;7db3	ff 	.
 660  7DB4 00           	nop			;7db4	00 	.
 661  7DB5 FF           	rst 38h			;7db5	ff 	.
 662  7DB6 00           	nop			;7db6	00 	.
 663  7DB7 3F           	ccf			;7db7	3f 	?
 664  7DB8 C0           	ret nz			;7db8	c0 	.
 665  7DB9 FF           	rst 38h			;7db9	ff 	.
 666  7DBA 00           	nop			;7dba	00 	.
 667  7DBB FF           	rst 38h			;7dbb	ff 	.
 668  7DBC 00           	nop			;7dbc	00 	.
 669  7DBD FF           	rst 38h			;7dbd	ff 	.
 670  7DBE A0           	and b			;7dbe	a0 	.
 671  7DBF              l7dbfh:
 672  7DBF FF           	rst 38h			;7dbf	ff 	.
 673  7DC0 42           	ld b,d			;7dc0	42 	B
 674  7DC1 BB           	cp e			;7dc1	bb 	.
 675  7DC2 00           	nop			;7dc2	00 	.
 676  7DC3 FF           	rst 38h			;7dc3	ff 	.
 677  7DC4 00           	nop			;7dc4	00 	.
 678  7DC5 FF           	rst 38h			;7dc5	ff 	.
 679  7DC6 50           	ld d,b			;7dc6	50 	P
 680  7DC7              l7dc7h:
 681  7DC7 AB           	xor e			;7dc7	ab 	.
 682  7DC8 10 7F        	djnz l7e49h		;7dc8	10 7f 	. 
 683  7DCA 00           	nop			;7dca	00 	.
 684  7DCB FF           	rst 38h			;7dcb	ff 	.
 685  7DCC 00           	nop			;7dcc	00 	.
 686  7DCD FF           	rst 38h			;7dcd	ff 	.
 687  7DCE 30 EF        	jr nc,l7dbfh		;7dce	30 ef 	0 .
 688  7DD0 40           	ld b,b			;7dd0	40 	@
 689  7DD1 BF           	cp a			;7dd1	bf 	.
 690  7DD2 00           	nop			;7dd2	00 	.
 691  7DD3 FF           	rst 38h			;7dd3	ff 	.
 692  7DD4 00           	nop			;7dd4	00 	.
 693  7DD5 FF           	rst 38h			;7dd5	ff 	.
 694  7DD6 02           	ld (bc),a			;7dd6	02 	.
 695  7DD7 BF           	cp a			;7dd7	bf 	.
 696  7DD8 02           	ld (bc),a			;7dd8	02 	.
 697  7DD9 6C           	ld l,h			;7dd9	6c 	l
 698  7DDA 00           	nop			;7dda	00 	.
 699  7DDB FF           	rst 38h			;7ddb	ff 	.
 700  7DDC 00           	nop			;7ddc	00 	.
 701  7DDD FF           	rst 38h			;7ddd	ff 	.
 702  7DDE 02           	ld (bc),a			;7dde	02 	.
 703  7DDF BB           	cp e			;7ddf	bb 	.
 704  7DE0 48           	ld c,b			;7de0	48 	H
 705  7DE1 BD           	cp l			;7de1	bd 	.
 706  7DE2 00           	nop			;7de2	00 	.
 707  7DE3 FF           	rst 38h			;7de3	ff 	.
 708  7DE4 00           	nop			;7de4	00 	.
 709  7DE5 FF           	rst 38h			;7de5	ff 	.
 710  7DE6 30 3F        	jr nc,$+65		;7de6	30 3f 	0 ?
 711  7DE8 FA F7 00     	jp m,000f7h		;7de8	fa f7 00 	. . .
 712  7DEB FF           	rst 38h			;7deb	ff 	.
 713  7DEC 00           	nop			;7dec	00 	.
 714  7DED FF           	rst 38h			;7ded	ff 	.
 715  7DEE 02           	ld (bc),a			;7dee	02 	.
 716  7DEF AF           	xor a			;7def	af 	.
 717  7DF0 00           	nop			;7df0	00 	.
 718  7DF1 FF           	rst 38h			;7df1	ff 	.
 719  7DF2 43           	ld b,e			;7df2	43 	C
 720  7DF3 1C           	inc e			;7df3	1c 	.
 721  7DF4 00           	nop			;7df4	00 	.
 722  7DF5 FF           	rst 38h			;7df5	ff 	.
 723  7DF6 10 FF        	djnz $+1		;7df6	10 ff 	. .
 724  7DF8 00           	nop			;7df8	00 	.
 725  7DF9 1E 00        	ld e,000h		;7df9	1e 00 	. .
 726  7DFB FF           	rst 38h			;7dfb	ff 	.
 727  7DFC 00           	nop			;7dfc	00 	.
 728  7DFD FF           	rst 38h			;7dfd	ff 	.
 729  7DFE 80           	add a,b			;7dfe	80 	.
 730  7DFF FF           	rst 38h			;7dff	ff 	.
 731  7E00 88           	adc a,b			;7e00	88 	.
 732  7E01 EB           	ex de,hl			;7e01	eb 	.
 733  7E02 00           	nop			;7e02	00 	.
 734  7E03 FF           	rst 38h			;7e03	ff 	.
 735  7E04 00           	nop			;7e04	00 	.
 736  7E05 FF           	rst 38h			;7e05	ff 	.
 737  7E06 A2           	and d			;7e06	a2 	.
 738  7E07 FA 04 FF     	jp m,0ff04h		;7e07	fa 04 ff 	. . .
 739  7E0A 00           	nop			;7e0a	00 	.
 740  7E0B FF           	rst 38h			;7e0b	ff 	.
 741  7E0C 00           	nop			;7e0c	00 	.
 742  7E0D FE 60        	cp 060h		;7e0d	fe 60 	. `
 743  7E0F F5           	push af			;7e0f	f5 	.
 744  7E10 7C           	ld a,h			;7e10	7c 	|
 745  7E11 0A           	ld a,(bc)			;7e11	0a 	.
 746  7E12 00           	nop			;7e12	00 	.
 747  7E13 FF           	rst 38h			;7e13	ff 	.
 748  7E14 00           	nop			;7e14	00 	.
 749  7E15 FF           	rst 38h			;7e15	ff 	.
 750  7E16 44           	ld b,h			;7e16	44 	D
 751  7E17 FB           	ei			;7e17	fb 	.
 752  7E18 34           	inc (hl)			;7e18	34 	4
 753  7E19 BD           	cp l			;7e19	bd 	.
 754  7E1A 00           	nop			;7e1a	00 	.
 755  7E1B FF           	rst 38h			;7e1b	ff 	.
 756  7E1C 00           	nop			;7e1c	00 	.
 757  7E1D FF           	rst 38h			;7e1d	ff 	.
 758  7E1E 02           	ld (bc),a			;7e1e	02 	.
 759  7E1F 9F           	sbc a,a			;7e1f	9f 	.
 760  7E20 70           	ld (hl),b			;7e20	70 	p
 761  7E21 FF           	rst 38h			;7e21	ff 	.
 762  7E22 00           	nop			;7e22	00 	.
 763  7E23 FF           	rst 38h			;7e23	ff 	.
 764  7E24 00           	nop			;7e24	00 	.
 765  7E25 FF           	rst 38h			;7e25	ff 	.
 766  7E26 30 9F        	jr nc,l7dc7h		;7e26	30 9f 	0 .
 767  7E28 20 BF        	jr nz,$-63		;7e28	20 bf 	  .
 768  7E2A 00           	nop			;7e2a	00 	.
 769  7E2B FF           	rst 38h			;7e2b	ff 	.
 770  7E2C 00           	nop			;7e2c	00 	.
 771  7E2D FF           	rst 38h			;7e2d	ff 	.
 772  7E2E 00           	nop			;7e2e	00 	.
 773  7E2F FE 50        	cp 050h		;7e2f	fe 50 	. P
 774  7E31 BE           	cp (hl)			;7e31	be 	.
 775  7E32 00           	nop			;7e32	00 	.
 776  7E33 FF           	rst 38h			;7e33	ff 	.
 777  7E34 00           	nop			;7e34	00 	.
 778  7E35 FF           	rst 38h			;7e35	ff 	.
 779  7E36 82           	add a,d			;7e36	82 	.
 780  7E37              l7e37h:
 781  7E37 BF           	cp a			;7e37	bf 	.
 782  7E38 80           	add a,b			;7e38	80 	.
 783  7E39 FF           	rst 38h			;7e39	ff 	.
 784  7E3A 00           	nop			;7e3a	00 	.
 785  7E3B FF           	rst 38h			;7e3b	ff 	.
 786  7E3C 00           	nop			;7e3c	00 	.
 787  7E3D              l7e3dh:
 788  7E3D FF           	rst 38h			;7e3d	ff 	.
 789  7E3E 42           	ld b,d			;7e3e	42 	B
 790  7E3F FF           	rst 38h			;7e3f	ff 	.
 791  7E40 00           	nop			;7e40	00 	.
 792  7E41 DB 00        	in a,(000h)		;7e41	db 00 	. .
 793  7E43 FF           	rst 38h			;7e43	ff 	.
 794  7E44 00           	nop			;7e44	00 	.
 795  7E45 FF           	rst 38h			;7e45	ff 	.
 796  7E46 C8           	ret z			;7e46	c8 	.
 797  7E47 FF           	rst 38h			;7e47	ff 	.
 798  7E48 A0           	and b			;7e48	a0 	.
 799  7E49              l7e49h:
 800  7E49 FF           	rst 38h			;7e49	ff 	.
 801  7E4A 00           	nop			;7e4a	00 	.
 802  7E4B FF           	rst 38h			;7e4b	ff 	.
 803  7E4C 00           	nop			;7e4c	00 	.
 804  7E4D FF           	rst 38h			;7e4d	ff 	.
 805  7E4E 00           	nop			;7e4e	00 	.
 806  7E4F FD 90 DF     	defb 0fdh,090h,0dfh	;illegal sequence		;7e4f	fd 90 df 	. . .
 807  7E52 00           	nop			;7e52	00 	.
 808  7E53 FF           	rst 38h			;7e53	ff 	.
 809  7E54 00           	nop			;7e54	00 	.
 810  7E55 FF           	rst 38h			;7e55	ff 	.
 811  7E56 40           	ld b,b			;7e56	40 	@
 812  7E57              l7e57h:
 813  7E57 FF           	rst 38h			;7e57	ff 	.
 814  7E58 00           	nop			;7e58	00 	.
 815  7E59 FD 00 FF     	defb 0fdh,000h,0ffh	;illegal sequence		;7e59	fd 00 ff 	. . .
 816  7E5C 00           	nop			;7e5c	00 	.
 817  7E5D FF           	rst 38h			;7e5d	ff 	.
 818  7E5E 20 DD        	jr nz,l7e3dh		;7e5e	20 dd 	  .
 819  7E60 48           	ld c,b			;7e60	48 	H
 820  7E61 DF           	rst 18h			;7e61	df 	.
 821  7E62 00           	nop			;7e62	00 	.
 822  7E63 FF           	rst 38h			;7e63	ff 	.
 823  7E64 00           	nop			;7e64	00 	.
 824  7E65 FF           	rst 38h			;7e65	ff 	.
 825  7E66 20 BF        	jr nz,$-63		;7e66	20 bf 	  .
 826  7E68 94           	sub h			;7e68	94 	.
 827  7E69 ED           	defb 0edh;next byte illegal after ed		;7e69	ed 	.
 828  7E6A 00           	nop			;7e6a	00 	.
 829  7E6B FF           	rst 38h			;7e6b	ff 	.
 830  7E6C 00           	nop			;7e6c	00 	.
 831  7E6D              l7e6dh:
 832  7E6D FF           	rst 38h			;7e6d	ff 	.
 833  7E6E 04           	inc b			;7e6e	04 	.
 834  7E6F DF           	rst 18h			;7e6f	df 	.
 835  7E70 D1           	pop de			;7e70	d1 	.
 836  7E71 DF           	rst 18h			;7e71	df 	.
 837  7E72 00           	nop			;7e72	00 	.
 838  7E73 FF           	rst 38h			;7e73	ff 	.
 839  7E74 00           	nop			;7e74	00 	.
 840  7E75 FF           	rst 38h			;7e75	ff 	.
 841  7E76 20 BF        	jr nz,l7e37h		;7e76	20 bf 	  .
 842  7E78 E0           	ret po			;7e78	e0 	.
 843  7E79              l7e79h:
 844  7E79 FE 00        	cp 000h		;7e79	fe 00 	. .
 845  7E7B FF           	rst 38h			;7e7b	ff 	.
 846  7E7C 00           	nop			;7e7c	00 	.
 847  7E7D FF           	rst 38h			;7e7d	ff 	.
 848  7E7E 10 ED        	djnz l7e6dh		;7e7e	10 ed 	. .
 849  7E80 00           	nop			;7e80	00 	.
 850  7E81 F7           	rst 30h			;7e81	f7 	.
 851  7E82 00           	nop			;7e82	00 	.
 852  7E83 FF           	rst 38h			;7e83	ff 	.
 853  7E84 00           	nop			;7e84	00 	.
 854  7E85 FF           	rst 38h			;7e85	ff 	.
 855  7E86 48           	ld c,b			;7e86	48 	H
 856  7E87 BF           	cp a			;7e87	bf 	.
 857  7E88 36 FD        	ld (hl),0fdh		;7e88	36 fd 	6 .
 858  7E8A 00           	nop			;7e8a	00 	.
 859  7E8B FF           	rst 38h			;7e8b	ff 	.
 860  7E8C 00           	nop			;7e8c	00 	.
 861  7E8D FF           	rst 38h			;7e8d	ff 	.
 862  7E8E 04           	inc b			;7e8e	04 	.
 863  7E8F F7           	rst 30h			;7e8f	f7 	.
 864  7E90 26 B5        	ld h,0b5h		;7e90	26 b5 	& .
 865  7E92 00           	nop			;7e92	00 	.
 866  7E93 FF           	rst 38h			;7e93	ff 	.
 867  7E94 00           	nop			;7e94	00 	.
 868  7E95 FF           	rst 38h			;7e95	ff 	.
 869  7E96 A2           	and d			;7e96	a2 	.
 870  7E97 FF           	rst 38h			;7e97	ff 	.
 871  7E98 20 DF        	jr nz,l7e79h		;7e98	20 df 	  .
 872  7E9A 00           	nop			;7e9a	00 	.
 873  7E9B FF           	rst 38h			;7e9b	ff 	.
 874  7E9C 00           	nop			;7e9c	00 	.
 875  7E9D FF           	rst 38h			;7e9d	ff 	.
 876  7E9E 20 B7        	jr nz,l7e57h		;7e9e	20 b7 	  .
 877  7EA0 12           	ld (de),a			;7ea0	12 	.
 878  7EA1 FE 00        	cp 000h		;7ea1	fe 00 	. .
 879  7EA3 FF           	rst 38h			;7ea3	ff 	.
 880  7EA4 00           	nop			;7ea4	00 	.
 881  7EA5 FF           	rst 38h			;7ea5	ff 	.
 882  7EA6 10 FF        	djnz $+1		;7ea6	10 ff 	. .
 883  7EA8 A8           	xor b			;7ea8	a8 	.
 884  7EA9 BE           	cp (hl)			;7ea9	be 	.
 885  7EAA 00           	nop			;7eaa	00 	.
 886  7EAB FF           	rst 38h			;7eab	ff 	.
 887  7EAC 00           	nop			;7eac	00 	.
 888  7EAD FF           	rst 38h			;7ead	ff 	.
 889  7EAE 00           	nop			;7eae	00 	.
 890  7EAF BF           	cp a			;7eaf	bf 	.
 891  7EB0 A1           	and c			;7eb0	a1 	.
 892  7EB1 BF           	cp a			;7eb1	bf 	.
 893  7EB2 00           	nop			;7eb2	00 	.
 894  7EB3 FF           	rst 38h			;7eb3	ff 	.
 895  7EB4 00           	nop			;7eb4	00 	.
 896  7EB5 FF           	rst 38h			;7eb5	ff 	.
 897  7EB6 82           	add a,d			;7eb6	82 	.
 898  7EB7 FF           	rst 38h			;7eb7	ff 	.
 899  7EB8 12           	ld (de),a			;7eb8	12 	.
 900  7EB9 FD 00 FF     	defb 0fdh,000h,0ffh	;illegal sequence		;7eb9	fd 00 ff 	. . .
 901  7EBC 00           	nop			;7ebc	00 	.
 902  7EBD FF           	rst 38h			;7ebd	ff 	.
 903  7EBE 02           	ld (bc),a			;7ebe	02 	.
 904  7EBF DF           	rst 18h			;7ebf	df 	.
 905  7EC0 24           	inc h			;7ec0	24 	$
 906  7EC1 FF           	rst 38h			;7ec1	ff 	.
 907  7EC2 00           	nop			;7ec2	00 	.
 908  7EC3 FF           	rst 38h			;7ec3	ff 	.
 909  7EC4 00           	nop			;7ec4	00 	.
 910  7EC5 FF           	rst 38h			;7ec5	ff 	.
 911  7EC6 00           	nop			;7ec6	00 	.
 912  7EC7 E7           	rst 20h			;7ec7	e7 	.
 913  7EC8 B8           	cp b			;7ec8	b8 	.
 914  7EC9 FF           	rst 38h			;7ec9	ff 	.
 915  7ECA 00           	nop			;7eca	00 	.
 916  7ECB FF           	rst 38h			;7ecb	ff 	.
 917  7ECC 00           	nop			;7ecc	00 	.
 918  7ECD FF           	rst 38h			;7ecd	ff 	.
 919  7ECE 60           	ld h,b			;7ece	60 	`
 920  7ECF 5A           	ld e,d			;7ecf	5a 	Z
 921  7ED0 00           	nop			;7ed0	00 	.
 922  7ED1 DB 00        	in a,(000h)		;7ed1	db 00 	. .
 923  7ED3 FF           	rst 38h			;7ed3	ff 	.
 924  7ED4 00           	nop			;7ed4	00 	.
 925  7ED5 FF           	rst 38h			;7ed5	ff 	.
 926  7ED6 00           	nop			;7ed6	00 	.
 927  7ED7 FF           	rst 38h			;7ed7	ff 	.
 928  7ED8 94           	sub h			;7ed8	94 	.
 929  7ED9 FF           	rst 38h			;7ed9	ff 	.
 930  7EDA 00           	nop			;7eda	00 	.
 931  7EDB FF           	rst 38h			;7edb	ff 	.
 932  7EDC 00           	nop			;7edc	00 	.
 933  7EDD FF           	rst 38h			;7edd	ff 	.
 934  7EDE 80           	add a,b			;7ede	80 	.
 935  7EDF FF           	rst 38h			;7edf	ff 	.
 936  7EE0 08           	ex af,af'			;7ee0	08 	.
 937  7EE1 FF           	rst 38h			;7ee1	ff 	.
 938  7EE2 00           	nop			;7ee2	00 	.
 939  7EE3 FF           	rst 38h			;7ee3	ff 	.
 940  7EE4 00           	nop			;7ee4	00 	.
 941  7EE5 FF           	rst 38h			;7ee5	ff 	.
 942  7EE6 10 FF        	djnz $+1		;7ee6	10 ff 	. .
 943  7EE8 40           	ld b,b			;7ee8	40 	@
 944  7EE9 DD 00 FF     	defb 0ddh,000h,0ffh	;illegal sequence		;7ee9	dd 00 ff 	. . .
 945  7EEC 00           	nop			;7eec	00 	.
 946  7EED FF           	rst 38h			;7eed	ff 	.
 947  7EEE 08           	ex af,af'			;7eee	08 	.
 948  7EEF FF           	rst 38h			;7eef	ff 	.
 949  7EF0
 950  7EF0              ;***************************************************************************************
 951  7EF0              ; Game CPU Stack Top
 952  7EF0              GAME_CPU_STACK:
 953  7EF0              ;***************************************************************************************
 954  7EF0
 955  7EF0
 956  7EF0 04           	inc b			;7ef0	04 	.
 957  7EF1 FC 86 A2     	call m,0a286h		;7ef1	fc 86 a2 	. . .
 958  7EF4 00           	nop			;7ef4	00 	.
 959  7EF5 FF           	rst 38h			;7ef5	ff 	.
 960  7EF6 80           	add a,b			;7ef6	80 	.
 961  7EF7 FE 80        	cp 080h		;7ef7	fe 80 	. .
 962  7EF9 F7           	rst 30h			;7ef9	f7 	.
 963  7EFA 00           	nop			;7efa	00 	.
 964  7EFB FF           	rst 38h			;7efb	ff 	.
 965  7EFC 00           	nop			;7efc	00 	.
 966  7EFD FF           	rst 38h			;7efd	ff 	.
 967  7EFE 00           	nop			;7efe	00 	.
 968  7EFF DB FF        	in a,(0ffh)		;7eff	db ff 	. .
 969  7F01 01 2F 5A     	ld bc,05a2fh		;7f01	01 2f 5a 	. / Z
 970  7F04 2F           	cpl			;7f04	2f 	/
 971  7F05 59           	ld e,c			;7f05	59 	Y
 972  7F06 2F           	cpl			;7f06	2f 	/
 973  7F07 57           	ld d,a			;7f07	57 	W
 974  7F08 2F           	cpl			;7f08	2f 	/
 975  7F09 55           	ld d,l			;7f09	55 	U
 976  7F0A 2F           	cpl			;7f0a	2f 	/
 977  7F0B 53           	ld d,e			;7f0b	53 	S
 978  7F0C 2F           	cpl			;7f0c	2f 	/
 979  7F0D 51           	ld d,c			;7f0d	51 	Q
 980  7F0E 2F           	cpl			;7f0e	2f 	/
 981  7F0F 4E           	ld c,(hl)			;7f0f	4e 	N
 982  7F10 2F           	cpl			;7f10	2f 	/
 983  7F11 4C           	ld c,h			;7f11	4c 	L
 984  7F12 2F           	cpl			;7f12	2f 	/
 985  7F13 49           	ld c,c			;7f13	49 	I
 986  7F14 2F           	cpl			;7f14	2f 	/
 987  7F15 45           	ld b,l			;7f15	45 	E
 988  7F16 2F           	cpl			;7f16	2f 	/
 989  7F17 40           	ld b,b			;7f17	40 	@
 990  7F18 2F           	cpl			;7f18	2f 	/
 991  7F19 3D           	dec a			;7f19	3d 	=
 992  7F1A 2F           	cpl			;7f1a	2f 	/
 993  7F1B 3A 2F 37     	ld a,(0372fh)		;7f1b	3a 2f 37 	: / 7
 994  7F1E 2F           	cpl			;7f1e	2f 	/
 995  7F1F 38 2F        	jr c,l7f50h		;7f1f	38 2f 	8 /
 996  7F21 3B           	dec sp			;7f21	3b 	;
 997  7F22 2F           	cpl			;7f22	2f 	/
 998  7F23 3F           	ccf			;7f23	3f 	?
 999  7F24 2F           	cpl			;7f24	2f 	/
1000  7F25 3F           	ccf			;7f25	3f 	?
1001  7F26 2F           	cpl			;7f26	2f 	/
1002  7F27 3F           	ccf			;7f27	3f 	?
1003  7F28 2F           	cpl			;7f28	2f 	/
1004  7F29 3F           	ccf			;7f29	3f 	?
1005  7F2A DE DE        	sbc a,0deh		;7f2a	de de 	. .
1006  7F2C 2F           	cpl			;7f2c	2f 	/
1007  7F2D 3F           	ccf			;7f2d	3f 	?
1008  7F2E 2F           	cpl			;7f2e	2f 	/
1009  7F2F 3F           	ccf			;7f2f	3f 	?
1010  7F30 2F           	cpl			;7f30	2f 	/
1011  7F31 3F           	ccf			;7f31	3f 	?
1012  7F32 2F           	cpl			;7f32	2f 	/
1013  7F33 3F           	ccf			;7f33	3f 	?
1014  7F34 DE DE        	sbc a,0deh		;7f34	de de 	. .
1015  7F36 2F           	cpl			;7f36	2f 	/
1016  7F37 3F           	ccf			;7f37	3f 	?
1017  7F38 2F           	cpl			;7f38	2f 	/
1018  7F39 3F           	ccf			;7f39	3f 	?
1019  7F3A 2F           	cpl			;7f3a	2f 	/
1020  7F3B 3F           	ccf			;7f3b	3f 	?
1021  7F3C 2F           	cpl			;7f3c	2f 	/
1022  7F3D 3F           	ccf			;7f3d	3f 	?
1023  7F3E DE DE        	sbc a,0deh		;7f3e	de de 	. .
1024  7F40 2F           	cpl			;7f40	2f 	/
1025  7F41 3F           	ccf			;7f41	3f 	?
1026  7F42 2F           	cpl			;7f42	2f 	/
1027  7F43 3F           	ccf			;7f43	3f 	?
1028  7F44 2F           	cpl			;7f44	2f 	/
1029  7F45 3F           	ccf			;7f45	3f 	?
1030  7F46 DD DD 2F     	defb 0ddh,0ddh,02fh	;illegal sequence		;7f46	dd dd 2f 	. . /
1031  7F49 3F           	ccf			;7f49	3f 	?
1032  7F4A 2F           	cpl			;7f4a	2f 	/
1033  7F4B 3F           	ccf			;7f4b	3f 	?
1034  7F4C DD DD 2F     	defb 0ddh,0ddh,02fh	;illegal sequence		;7f4c	dd dd 2f 	. . /
1035  7F4F 3F           	ccf			;7f4f	3f 	?
1036  7F50              l7f50h:
1037  7F50 2F           	cpl			;7f50	2f 	/
1038  7F51 3F           	ccf			;7f51	3f 	?
1039  7F52 DF           	rst 18h			;7f52	df 	.
1040  7F53 DF           	rst 18h			;7f53	df 	.
1041  7F54 2F           	cpl			;7f54	2f 	/
1042  7F55 3F           	ccf			;7f55	3f 	?
1043  7F56 2F           	cpl			;7f56	2f 	/
1044  7F57 3F           	ccf			;7f57	3f 	?
1045  7F58 2F           	cpl			;7f58	2f 	/
1046  7F59 3D           	dec a			;7f59	3d 	=
1047  7F5A 2F           	cpl			;7f5a	2f 	/
1048  7F5B 3B           	dec sp			;7f5b	3b 	;
1049  7F5C 2F           	cpl			;7f5c	2f 	/
1050  7F5D 39           	add hl,sp			;7f5d	39 	9
1051  7F5E 2F           	cpl			;7f5e	2f 	/
1052  7F5F 37           	scf			;7f5f	37 	7
1053  7F60 2F           	cpl			;7f60	2f 	/
1054  7F61 39           	add hl,sp			;7f61	39 	9
1055  7F62 2F           	cpl			;7f62	2f 	/
1056  7F63 42           	ld b,d			;7f63	42 	B
1057  7F64 2F           	cpl			;7f64	2f 	/
1058  7F65 42           	ld b,d			;7f65	42 	B
1059  7F66 2F           	cpl			;7f66	2f 	/
1060  7F67 42           	ld b,d			;7f67	42 	B
1061  7F68 DD DD 2F     	defb 0ddh,0ddh,02fh	;illegal sequence		;7f68	dd dd 2f 	. . /
1062  7F6B 44           	ld b,h			;7f6b	44 	D
1063  7F6C 2F           	cpl			;7f6c	2f 	/
1064  7F6D 46           	ld b,(hl)			;7f6d	46 	F
1065  7F6E 2F           	cpl			;7f6e	2f 	/
1066  7F6F 48           	ld c,b			;7f6f	48 	H
1067  7F70 2F           	cpl			;7f70	2f 	/
1068  7F71 54           	ld d,h			;7f71	54 	T
1069  7F72 2F           	cpl			;7f72	2f 	/
1070  7F73 54           	ld d,h			;7f73	54 	T
1071  7F74 2F           	cpl			;7f74	2f 	/
1072  7F75 54           	ld d,h			;7f75	54 	T
1073  7F76 DD DD 2F     	defb 0ddh,0ddh,02fh	;illegal sequence		;7f76	dd dd 2f 	. . /
1074  7F79 52           	ld d,d			;7f79	52 	R
1075  7F7A 2F           	cpl			;7f7a	2f 	/
1076  7F7B 51           	ld d,c			;7f7b	51 	Q
1077  7F7C 2F           	cpl			;7f7c	2f 	/
1078  7F7D 54           	ld d,h			;7f7d	54 	T
1079  7F7E 2F           	cpl			;7f7e	2f 	/
1080  7F7F 54           	ld d,h			;7f7f	54 	T
1081  7F80 2F           	cpl			;7f80	2f 	/
1082  7F81 54           	ld d,h			;7f81	54 	T
1083  7F82 DD DD 2F     	defb 0ddh,0ddh,02fh	;illegal sequence		;7f82	dd dd 2f 	. . /
1084  7F85 54           	ld d,h			;7f85	54 	T
1085  7F86 2F           	cpl			;7f86	2f 	/
1086  7F87 52           	ld d,d			;7f87	52 	R
1087  7F88 2F           	cpl			;7f88	2f 	/
1088  7F89 51           	ld d,c			;7f89	51 	Q
1089  7F8A 2F           	cpl			;7f8a	2f 	/
1090  7F8B 50           	ld d,b			;7f8b	50 	P
1091  7F8C 2F           	cpl			;7f8c	2f 	/
1092  7F8D 52           	ld d,d			;7f8d	52 	R
1093  7F8E 2F           	cpl			;7f8e	2f 	/
1094  7F8F 55           	ld d,l			;7f8f	55 	U
1095  7F90 2F           	cpl			;7f90	2f 	/
1096  7F91 55           	ld d,l			;7f91	55 	U
1097  7F92 2F           	cpl			;7f92	2f 	/
1098  7F93 55           	ld d,l			;7f93	55 	U
1099  7F94 DE DE        	sbc a,0deh		;7f94	de de 	. .
1100  7F96 2F           	cpl			;7f96	2f 	/
1101  7F97 55           	ld d,l			;7f97	55 	U
1102  7F98 2F           	cpl			;7f98	2f 	/
1103  7F99 55           	ld d,l			;7f99	55 	U
1104  7F9A 2F           	cpl			;7f9a	2f 	/
1105  7F9B 55           	ld d,l			;7f9b	55 	U
1106  7F9C DE DE        	sbc a,0deh		;7f9c	de de 	. .
1107  7F9E 2F           	cpl			;7f9e	2f 	/
1108  7F9F 55           	ld d,l			;7f9f	55 	U
1109  7FA0 2F           	cpl			;7fa0	2f 	/
1110  7FA1 4F           	ld c,a			;7fa1	4f 	O
1111  7FA2 2F           	cpl			;7fa2	2f 	/
1112  7FA3 4F           	ld c,a			;7fa3	4f 	O
1113  7FA4 2F           	cpl			;7fa4	2f 	/
1114  7FA5 4E           	ld c,(hl)			;7fa5	4e 	N
1115  7FA6 2F           	cpl			;7fa6	2f 	/
1116  7FA7 4B           	ld c,e			;7fa7	4b 	K
1117  7FA8 2F           	cpl			;7fa8	2f 	/
1118  7FA9 49           	ld c,c			;7fa9	49 	I
1119  7FAA 2F           	cpl			;7faa	2f 	/
1120  7FAB 48           	ld c,b			;7fab	48 	H
1121  7FAC 2F           	cpl			;7fac	2f 	/
1122  7FAD 48           	ld c,b			;7fad	48 	H
1123  7FAE 2F           	cpl			;7fae	2f 	/
1124  7FAF 47           	ld b,a			;7faf	47 	G
1125  7FB0 2F           	cpl			;7fb0	2f 	/
1126  7FB1 4B           	ld c,e			;7fb1	4b 	K
1127  7FB2 2F           	cpl			;7fb2	2f 	/
1128  7FB3 4B           	ld c,e			;7fb3	4b 	K
1129  7FB4 2F           	cpl			;7fb4	2f 	/
1130  7FB5 4B           	ld c,e			;7fb5	4b 	K
1131  7FB6 DF           	rst 18h			;7fb6	df 	.
1132  7FB7 DF           	rst 18h			;7fb7	df 	.
1133  7FB8 2F           	cpl			;7fb8	2f 	/
1134  7FB9 4B           	ld c,e			;7fb9	4b 	K
1135  7FBA 2F           	cpl			;7fba	2f 	/
1136  7FBB 45           	ld b,l			;7fbb	45 	E
1137  7FBC 2F           	cpl			;7fbc	2f 	/
1138  7FBD 3F           	ccf			;7fbd	3f 	?
1139  7FBE 2F           	cpl			;7fbe	2f 	/
1140  7FBF 3B           	dec sp			;7fbf	3b 	;
1141  7FC0 2F           	cpl			;7fc0	2f 	/
1142  7FC1 41           	ld b,c			;7fc1	41 	A
1143  7FC2 2F           	cpl			;7fc2	2f 	/
1144  7FC3 41           	ld b,c			;7fc3	41 	A
1145  7FC4 2F           	cpl			;7fc4	2f 	/
1146  7FC5 41           	ld b,c			;7fc5	41 	A
1147  7FC6 DD DD 2F     	defb 0ddh,0ddh,02fh	;illegal sequence		;7fc6	dd dd 2f 	. . /
1148  7FC9 37           	scf			;7fc9	37 	7
1149  7FCA 2F           	cpl			;7fca	2f 	/
1150  7FCB 36 2F        	ld (hl),02fh		;7fcb	36 2f 	6 /
1151  7FCD 3A 2F 3A     	ld a,(03a2fh)		;7fcd	3a 2f 3a 	: / :
1152  7FD0 2F           	cpl			;7fd0	2f 	/
1153  7FD1 3A DE DE     	ld a,(0dedeh)		;7fd1	3a de de 	: . .
1154  7FD4 2F           	cpl			;7fd4	2f 	/
1155  7FD5 3A 2F 3A     	ld a,(03a2fh)		;7fd5	3a 2f 3a 	: / :
1156  7FD8 2F           	cpl			;7fd8	2f 	/
1157  7FD9 3A DE DE     	ld a,(0dedeh)		;7fd9	3a de de 	: . .
1158  7FDC 2F           	cpl			;7fdc	2f 	/
1159  7FDD 3A 2F 3A     	ld a,(03a2fh)		;7fdd	3a 2f 3a 	: / :
1160  7FE0 2F           	cpl			;7fe0	2f 	/
1161  7FE1 3A 2F 3A     	ld a,(03a2fh)		;7fe1	3a 2f 3a 	: / :
1162  7FE4 2F           	cpl			;7fe4	2f 	/
1163  7FE5 3A 2F 3A     	ld a,(03a2fh)		;7fe5	3a 2f 3a 	: / :
1164  7FE8 DF           	rst 18h			;7fe8	df 	.
1165  7FE9 DF           	rst 18h			;7fe9	df 	.
1166  7FEA 2F           	cpl			;7fea	2f 	/
1167  7FEB 3A 2F 38     	ld a,(0382fh)		;7feb	3a 2f 38 	: / 8
1168  7FEE 2F           	cpl			;7fee	2f 	/
1169  7FEF 35           	dec (hl)			;7fef	35 	5
1170  7FF0 2F           	cpl			;7ff0	2f 	/
1171  7FF1 35           	dec (hl)			;7ff1	35 	5
1172  7FF2 2F           	cpl			;7ff2	2f 	/
1173  7FF3 37           	scf			;7ff3	37 	7
1174  7FF4 2F           	cpl			;7ff4	2f 	/
1175  7FF5 3C           	inc a			;7ff5	3c 	<
1176  7FF6 2F           	cpl			;7ff6	2f 	/
1177  7FF7 3C           	inc a			;7ff7	3c 	<
1178  7FF8 2F           	cpl			;7ff8	2f 	/
1179  7FF9 3C           	inc a			;7ff9	3c 	<
1180  7FFA DD DD 2F     	defb 0ddh,0ddh,02fh	;illegal sequence		;7ffa	dd dd 2f 	. . /
1181  7FFD 3E 2F        	ld a,02fh		;7ffd	3e 2f 	> /
1182  7FFF 42           	ld b,d			;7fff	42 	B
1183  8000 2F           	cpl			;8000	2f 	/
1184  8001 45           	ld b,l			;8001	45 	E
1185  8002 2F           	cpl			;8002	2f 	/
1186  8003 4A           	ld c,d			;8003	4a 	J
1187  8004 2F           	cpl			;8004	2f 	/
1188  8005 50           	ld d,b			;8005	50 	P
1189  8006 2F           	cpl			;8006	2f 	/
1190  8007 55           	ld d,l			;8007	55 	U
1191  8008 2F           	cpl			;8008	2f 	/
1192  8009 55           	ld d,l			;8009	55 	U
1193  800A 2F           	cpl			;800a	2f 	/
1194  800B 55           	ld d,l			;800b	55 	U
1195  800C DE DE        	sbc a,0deh		;800c	de de 	. .
1196  800E 2F           	cpl			;800e	2f 	/
1197  800F 55           	ld d,l			;800f	55 	U
1198  8010 2F           	cpl			;8010	2f 	/
1199  8011 55           	ld d,l			;8011	55 	U
1200  8012 2F           	cpl			;8012	2f 	/
1201  8013 55           	ld d,l			;8013	55 	U
1202  8014 DE DE        	sbc a,0deh		;8014	de de 	. .
1203  8016 2F           	cpl			;8016	2f 	/
1204  8017 55           	ld d,l			;8017	55 	U
1205  8018 2F           	cpl			;8018	2f 	/
1206  8019 55           	ld d,l			;8019	55 	U
1207  801A 2F           	cpl			;801a	2f 	/
1208  801B 55           	ld d,l			;801b	55 	U
1209  801C 2F           	cpl			;801c	2f 	/
1210  801D 55           	ld d,l			;801d	55 	U
1211  801E DF           	rst 18h			;801e	df 	.
1212  801F DF           	rst 18h			;801f	df 	.
1213  8020 2F           	cpl			;8020	2f 	/
1214  8021 55           	ld d,l			;8021	55 	U
1215  8022 2F           	cpl			;8022	2f 	/
1216  8023 4C           	ld c,h			;8023	4c 	L
1217  8024 2F           	cpl			;8024	2f 	/
1218  8025 46           	ld b,(hl)			;8025	46 	F
1219  8026 2F           	cpl			;8026	2f 	/
1220  8027 41           	ld b,c			;8027	41 	A
1221  8028 2F           	cpl			;8028	2f 	/
1222  8029 3B           	dec sp			;8029	3b 	;
1223  802A 2F           	cpl			;802a	2f 	/
1224  802B 37           	scf			;802b	37 	7
1225  802C 2F           	cpl			;802c	2f 	/
1226  802D 35           	dec (hl)			;802d	35 	5
1227  802E 2F           	cpl			;802e	2f 	/
1228  802F 40           	ld b,b			;802f	40 	@
1229  8030 2F           	cpl			;8030	2f 	/
1230  8031 40           	ld b,b			;8031	40 	@
1231  8032 2F           	cpl			;8032	2f 	/
1232  8033 40           	ld b,b			;8033	40 	@
1233  8034 DD DD 2F     	defb 0ddh,0ddh,02fh	;illegal sequence		;8034	dd dd 2f 	. . /
1234  8037 40           	ld b,b			;8037	40 	@
1235  8038 2F           	cpl			;8038	2f 	/
1236  8039 40           	ld b,b			;8039	40 	@
1237  803A DD DD 2F     	defb 0ddh,0ddh,02fh	;illegal sequence		;803a	dd dd 2f 	. . /
1238  803D 40           	ld b,b			;803d	40 	@
1239  803E 2F           	cpl			;803e	2f 	/
1240  803F 40           	ld b,b			;803f	40 	@
1241  8040 DD DD 2F     	defb 0ddh,0ddh,02fh	;illegal sequence		;8040	dd dd 2f 	. . /
1242  8043 40           	ld b,b			;8043	40 	@
1243  8044 2F           	cpl			;8044	2f 	/
1244  8045 40           	ld b,b			;8045	40 	@
1245  8046 DD DD 2F     	defb 0ddh,0ddh,02fh	;illegal sequence		;8046	dd dd 2f 	. . /
1246  8049 40           	ld b,b			;8049	40 	@
1247  804A 2F           	cpl			;804a	2f 	/
1248  804B 40           	ld b,b			;804b	40 	@
1249  804C DD DD 2F     	defb 0ddh,0ddh,02fh	;illegal sequence		;804c	dd dd 2f 	. . /
1250  804F 40           	ld b,b			;804f	40 	@
1251  8050 2F           	cpl			;8050	2f 	/
1252  8051 3E 2F        	ld a,02fh		;8051	3e 2f 	> /
1253  8053 3D           	dec a			;8053	3d 	=
1254  8054 2F           	cpl			;8054	2f 	/
1255  8055 3F           	ccf			;8055	3f 	?
1256  8056 2F           	cpl			;8056	2f 	/
1257  8057 43           	ld b,e			;8057	43 	C
1258  8058 2F           	cpl			;8058	2f 	/
1259  8059 45           	ld b,l			;8059	45 	E
1260  805A 2F           	cpl			;805a	2f 	/
1261  805B 47           	ld b,a			;805b	47 	G
1262  805C 2F           	cpl			;805c	2f 	/
1263  805D 47           	ld b,a			;805d	47 	G
1264  805E 2F           	cpl			;805e	2f 	/
1265  805F 47           	ld b,a			;805f	47 	G
1266  8060 DE DE        	sbc a,0deh		;8060	de de 	. .
1267  8062 2F           	cpl			;8062	2f 	/
1268  8063 47           	ld b,a			;8063	47 	G
1269  8064 2F           	cpl			;8064	2f 	/
1270  8065 47           	ld b,a			;8065	47 	G
1271  8066 2F           	cpl			;8066	2f 	/
1272  8067 47           	ld b,a			;8067	47 	G
1273  8068 DF           	rst 18h			;8068	df 	.
1274  8069 DF           	rst 18h			;8069	df 	.
1275  806A 2F           	cpl			;806a	2f 	/
1276  806B 47           	ld b,a			;806b	47 	G
1277  806C 2F           	cpl			;806c	2f 	/
1278  806D 47           	ld b,a			;806d	47 	G
1279  806E 2F           	cpl			;806e	2f 	/
1280  806F 49           	ld c,c			;806f	49 	I
1281  8070 2F           	cpl			;8070	2f 	/
1282  8071 4E           	ld c,(hl)			;8071	4e 	N
1283  8072 2F           	cpl			;8072	2f 	/
1284  8073 56           	ld d,(hl)			;8073	56 	V
1285  8074 2F           	cpl			;8074	2f 	/
1286  8075 56           	ld d,(hl)			;8075	56 	V
1287  8076 2F           	cpl			;8076	2f 	/
1288  8077 56           	ld d,(hl)			;8077	56 	V
1289  8078 FF           	rst 38h			;8078	ff 	.
1290  8079 02           	ld (bc),a			;8079	02 	.
1291  807A DD DD 2F     	defb 0ddh,0ddh,02fh	;illegal sequence		;807a	dd dd 2f 	. . /
1292  807D 57           	ld d,a			;807d	57 	W
1293  807E 30 57        	jr nc,$+89		;807e	30 57 	0 W
1294  8080 32 57 35     	ld (03557h),a		;8080	32 57 35 	2 W 5
1295  8083 56           	ld d,(hl)			;8083	56 	V
1296  8084 35           	dec (hl)			;8084	35 	5
1297  8085 55           	ld d,l			;8085	55 	U
1298  8086 37           	scf			;8086	37 	7
1299  8087 53           	ld d,e			;8087	53 	S
1300  8088 36 52        	ld (hl),052h		;8088	36 52 	6 R
1301  808A 36 52        	ld (hl),052h		;808a	36 52 	6 R
1302  808C 36 56        	ld (hl),056h		;808c	36 56 	6 V
1303  808E 37           	scf			;808e	37 	7
1304  808F 56           	ld d,(hl)			;808f	56 	V
1305  8090 38 56        	jr c,l80e8h		;8090	38 56 	8 V
1306  8092 DE DE        	sbc a,0deh		;8092	de de 	. .
1307  8094 39           	add hl,sp			;8094	39 	9
1308  8095 56           	ld d,(hl)			;8095	56 	V
1309  8096 3A 57 3B     	ld a,(03b57h)		;8096	3a 57 3b 	: W ;
1310  8099 59           	ld e,c			;8099	59 	Y
1311  809A 3B           	dec sp			;809a	3b 	;
1312  809B 59           	ld e,c			;809b	59 	Y
1313  809C 3C           	inc a			;809c	3c 	<
1314  809D 59           	ld e,c			;809d	59 	Y
1315  809E DF           	rst 18h			;809e	df 	.
1316  809F DF           	rst 18h			;809f	df 	.
1317  80A0 3C           	inc a			;80a0	3c 	<
1318  80A1 59           	ld e,c			;80a1	59 	Y
1319  80A2 3C           	inc a			;80a2	3c 	<
1320  80A3 59           	ld e,c			;80a3	59 	Y
1321  80A4 3B           	dec sp			;80a4	3b 	;
1322  80A5 59           	ld e,c			;80a5	59 	Y
1323  80A6 DD DD 3B     	defb 0ddh,0ddh,03bh	;illegal sequence		;80a6	dd dd 3b 	. . ;
1324  80A9 59           	ld e,c			;80a9	59 	Y
1325  80AA 3A 59 DD     	ld a,(0dd59h)		;80aa	3a 59 dd 	: Y .
1326  80AD DD 3C 59     	defb 0ddh,03ch,059h	;illegal sequence		;80ad	dd 3c 59 	. < Y
1327  80B0 3E 59        	ld a,059h		;80b0	3e 59 	> Y
1328  80B2 DD DD 3C     	defb 0ddh,0ddh,03ch	;illegal sequence		;80b2	dd dd 3c 	. . <
1329  80B5 57           	ld d,a			;80b5	57 	W
1330  80B6 39           	add hl,sp			;80b6	39 	9
1331  80B7 55           	ld d,l			;80b7	55 	U
1332  80B8 39           	add hl,sp			;80b8	39 	9
1333  80B9 55           	ld d,l			;80b9	55 	U
1334  80BA 39           	add hl,sp			;80ba	39 	9
1335  80BB 53           	ld d,e			;80bb	53 	S
1336  80BC 3B           	dec sp			;80bc	3b 	;
1337  80BD 53           	ld d,e			;80bd	53 	S
1338  80BE 3B           	dec sp			;80be	3b 	;
1339  80BF 50           	ld d,b			;80bf	50 	P
1340  80C0 3C           	inc a			;80c0	3c 	<
1341  80C1 4F           	ld c,a			;80c1	4f 	O
1342  80C2 3C           	inc a			;80c2	3c 	<
1343  80C3 51           	ld d,c			;80c3	51 	Q
1344  80C4 3C           	inc a			;80c4	3c 	<
1345  80C5 52           	ld d,d			;80c5	52 	R
1346  80C6 3B           	dec sp			;80c6	3b 	;
1347  80C7 53           	ld d,e			;80c7	53 	S
1348  80C8 3B           	dec sp			;80c8	3b 	;
1349  80C9 53           	ld d,e			;80c9	53 	S
1350  80CA 3A 53 3A     	ld a,(03a53h)		;80ca	3a 53 3a 	: S :
1351  80CD 53           	ld d,e			;80cd	53 	S
1352  80CE DE DE        	sbc a,0deh		;80ce	de de 	. .
1353  80D0 39           	add hl,sp			;80d0	39 	9
1354  80D1 53           	ld d,e			;80d1	53 	S
1355  80D2 39           	add hl,sp			;80d2	39 	9
1356  80D3 53           	ld d,e			;80d3	53 	S
1357  80D4 39           	add hl,sp			;80d4	39 	9
1358  80D5 53           	ld d,e			;80d5	53 	S
1359  80D6 DE DE        	sbc a,0deh		;80d6	de de 	. .
1360  80D8 36 53        	ld (hl),053h		;80d8	36 53 	6 S
1361  80DA 36 51        	ld (hl),051h		;80da	36 51 	6 Q
1362  80DC 37           	scf			;80dc	37 	7
1363  80DD 53           	ld d,e			;80dd	53 	S
1364  80DE 38 55        	jr c,l8135h		;80de	38 55 	8 U
1365  80E0 39           	add hl,sp			;80e0	39 	9
1366  80E1 52           	ld d,d			;80e1	52 	R
1367  80E2 3B           	dec sp			;80e2	3b 	;
1368  80E3 54           	ld d,h			;80e3	54 	T
1369  80E4 3B           	dec sp			;80e4	3b 	;
1370  80E5 55           	ld d,l			;80e5	55 	U
1371  80E6 3B           	dec sp			;80e6	3b 	;
1372  80E7 55           	ld d,l			;80e7	55 	U
1373  80E8              l80e8h:
1374  80E8 3D           	dec a			;80e8	3d 	=
1375  80E9 55           	ld d,l			;80e9	55 	U
1376  80EA DD DD 3E     	defb 0ddh,0ddh,03eh	;illegal sequence		;80ea	dd dd 3e 	. . >
1377  80ED 55           	ld d,l			;80ed	55 	U
1378  80EE 3D           	dec a			;80ee	3d 	=
1379  80EF 55           	ld d,l			;80ef	55 	U
1380  80F0 3C           	inc a			;80f0	3c 	<
1381  80F1 55           	ld d,l			;80f1	55 	U
1382  80F2 DF           	rst 18h			;80f2	df 	.
1383  80F3 DF           	rst 18h			;80f3	df 	.
1384  80F4 3B           	dec sp			;80f4	3b 	;
1385  80F5 55           	ld d,l			;80f5	55 	U
1386  80F6 38 53        	jr c,l814bh		;80f6	38 53 	8 S
1387  80F8 35           	dec (hl)			;80f8	35 	5
1388  80F9 56           	ld d,(hl)			;80f9	56 	V
1389  80FA 36 55        	ld (hl),055h		;80fa	36 55 	6 U
1390  80FC 35           	dec (hl)			;80fc	35 	5
1391  80FD 54           	ld d,h			;80fd	54 	T
1392  80FE 37           	scf			;80fe	37 	7
1393  80FF 56           	ld d,(hl)			;80ff	56 	V
1394  8100 39           	add hl,sp			;8100	39 	9
1395  8101 58           	ld e,b			;8101	58 	X
1396  8102 39           	add hl,sp			;8102	39 	9
1397  8103 58           	ld e,b			;8103	58 	X
1398  8104 3A 58 DE     	ld a,(0de58h)		;8104	3a 58 de 	: X .
1399  8107 DE 3B        	sbc a,03bh		;8107	de 3b 	. ;
1400  8109 58           	ld e,b			;8109	58 	X
1401  810A 3A 58 3A     	ld a,(03a58h)		;810a	3a 58 3a 	: X :
1402  810D 58           	ld e,b			;810d	58 	X
1403  810E DE DE        	sbc a,0deh		;810e	de de 	. .
1404  8110 38 58        	jr c,$+90		;8110	38 58 	8 X
1405  8112 37           	scf			;8112	37 	7
1406  8113 57           	ld d,a			;8113	57 	W
1407  8114 36 55        	ld (hl),055h		;8114	36 55 	6 U
1408  8116 35           	dec (hl)			;8116	35 	5
1409  8117 52           	ld d,d			;8117	52 	R
1410  8118 35           	dec (hl)			;8118	35 	5
1411  8119 50           	ld d,b			;8119	50 	P
1412  811A 38 4F        	jr c,$+81		;811a	38 4f 	8 O
1413  811C 3A 52 3B     	ld a,(03b52h)		;811c	3a 52 3b 	: R ;
1414  811F 58           	ld e,b			;811f	58 	X
1415  8120 3B           	dec sp			;8120	3b 	;
1416  8121 58           	ld e,b			;8121	58 	X
1417  8122 3C           	inc a			;8122	3c 	<
1418  8123 58           	ld e,b			;8123	58 	X
1419  8124 DD DD 3C     	defb 0ddh,0ddh,03ch	;illegal sequence		;8124	dd dd 3c 	. . <
1420  8127 58           	ld e,b			;8127	58 	X
1421  8128 3E 58        	ld a,058h		;8128	3e 58 	> X
1422  812A DD DD 3E     	defb 0ddh,0ddh,03eh	;illegal sequence		;812a	dd dd 3e 	. . >
1423  812D 58           	ld e,b			;812d	58 	X
1424  812E 3F           	ccf			;812e	3f 	?
1425  812F 58           	ld e,b			;812f	58 	X
1426  8130 DF           	rst 18h			;8130	df 	.
1427  8131 DF           	rst 18h			;8131	df 	.
1428  8132 3F           	ccf			;8132	3f 	?
1429  8133 58           	ld e,b			;8133	58 	X
1430  8134 3C           	inc a			;8134	3c 	<
1431  8135              l8135h:
1432  8135 56           	ld d,(hl)			;8135	56 	V
1433  8136 3B           	dec sp			;8136	3b 	;
1434  8137 57           	ld d,a			;8137	57 	W
1435  8138 3A 55 39     	ld a,(03955h)		;8138	3a 55 39 	: U 9
1436  813B 54           	ld d,h			;813b	54 	T
1437  813C 3A 55 3B     	ld a,(03b55h)		;813c	3a 55 3b 	: U ;
1438  813F 53           	ld d,e			;813f	53 	S
1439  8140 3A 52 37     	ld a,(03752h)		;8140	3a 52 37 	: R 7
1440  8143 53           	ld d,e			;8143	53 	S
1441  8144 38 54        	jr c,l819ah		;8144	38 54 	8 T
1442  8146 38 56        	jr c,l819eh		;8146	38 56 	8 V
1443  8148 37           	scf			;8148	37 	7
1444  8149 57           	ld d,a			;8149	57 	W
1445  814A 39           	add hl,sp			;814a	39 	9
1446  814B              l814bh:
1447  814B 57           	ld d,a			;814b	57 	W
1448  814C 39           	add hl,sp			;814c	39 	9
1449  814D 57           	ld d,a			;814d	57 	W
1450  814E DD DD 36     	defb 0ddh,0ddh,036h	;illegal sequence		;814e	dd dd 36 	. . 6
1451  8151 57           	ld d,a			;8151	57 	W
1452  8152 36 57        	ld (hl),057h		;8152	36 57 	6 W
1453  8154 DD DD 35     	defb 0ddh,0ddh,035h	;illegal sequence		;8154	dd dd 35 	. . 5
1454  8157 55           	ld d,l			;8157	55 	U
1455  8158 38 52        	jr c,l81ach		;8158	38 52 	8 R
1456  815A 39           	add hl,sp			;815a	39 	9
1457  815B 4D           	ld c,l			;815b	4d 	M
1458  815C 36 50        	ld (hl),050h		;815c	36 50 	6 P
1459  815E 36 53        	ld (hl),053h		;815e	36 53 	6 S
1460  8160 36 56        	ld (hl),056h		;8160	36 56 	6 V
1461  8162 34           	inc (hl)			;8162	34 	4
1462  8163 56           	ld d,(hl)			;8163	56 	V
1463  8164 34           	inc (hl)			;8164	34 	4
1464  8165 56           	ld d,(hl)			;8165	56 	V
1465  8166 32 56 DD     	ld (0dd56h),a		;8166	32 56 dd 	2 V .
1466  8169 DD 32 56     	defb 0ddh,032h,056h	;illegal sequence		;8169	dd 32 56 	. 2 V
1467  816C 34           	inc (hl)			;816c	34 	4
1468  816D 56           	ld d,(hl)			;816d	56 	V
1469  816E 32 56 DD     	ld (0dd56h),a		;816e	32 56 dd 	2 V .
1470  8171 DD 34 56     	inc (ix+056h)		;8171	dd 34 56 	. 4 V
1471  8174 32 56 33     	ld (03356h),a		;8174	32 56 33 	2 V 3
1472  8177 56           	ld d,(hl)			;8177	56 	V
1473  8178 DF           	rst 18h			;8178	df 	.
1474  8179 DF           	rst 18h			;8179	df 	.
1475  817A 32 56 34     	ld (03456h),a		;817a	32 56 34 	2 V 4
1476  817D 56           	ld d,(hl)			;817d	56 	V
1477  817E 33           	inc sp			;817e	33 	3
1478  817F 52           	ld d,d			;817f	52 	R
1479  8180 32 54 31     	ld (03154h),a		;8180	32 54 31 	2 T 1
1480  8183 4F           	ld c,a			;8183	4f 	O
1481  8184 30 51        	jr nc,l81d7h		;8184	30 51 	0 Q
1482  8186 2F           	cpl			;8186	2f 	/
1483  8187 56           	ld d,(hl)			;8187	56 	V
1484  8188 2F           	cpl			;8188	2f 	/
1485  8189 56           	ld d,(hl)			;8189	56 	V
1486  818A 2F           	cpl			;818a	2f 	/
1487  818B 56           	ld d,(hl)			;818b	56 	V
1488  818C DE DE        	sbc a,0deh		;818c	de de 	. .
1489  818E 2F           	cpl			;818e	2f 	/
1490  818F 56           	ld d,(hl)			;818f	56 	V
1491  8190 2F           	cpl			;8190	2f 	/
1492  8191 56           	ld d,(hl)			;8191	56 	V
1493  8192 2F           	cpl			;8192	2f 	/
1494  8193 56           	ld d,(hl)			;8193	56 	V
1495  8194 2F           	cpl			;8194	2f 	/
1496  8195 56           	ld d,(hl)			;8195	56 	V
1497  8196 DE DE        	sbc a,0deh		;8196	de de 	. .
1498  8198 2F           	cpl			;8198	2f 	/
1499  8199 56           	ld d,(hl)			;8199	56 	V
1500  819A              l819ah:
1501  819A 2F           	cpl			;819a	2f 	/
1502  819B 54           	ld d,h			;819b	54 	T
1503  819C 2F           	cpl			;819c	2f 	/
1504  819D 52           	ld d,d			;819d	52 	R
1505  819E              l819eh:
1506  819E 2F           	cpl			;819e	2f 	/
1507  819F 57           	ld d,a			;819f	57 	W
1508  81A0 2F           	cpl			;81a0	2f 	/
1509  81A1 57           	ld d,a			;81a1	57 	W
1510  81A2 2F           	cpl			;81a2	2f 	/
1511  81A3 57           	ld d,a			;81a3	57 	W
1512  81A4 DE DE        	sbc a,0deh		;81a4	de de 	. .
1513  81A6 2F           	cpl			;81a6	2f 	/
1514  81A7 57           	ld d,a			;81a7	57 	W
1515  81A8 FF           	rst 38h			;81a8	ff 	.
1516  81A9 03           	inc bc			;81a9	03 	.
1517  81AA 2F           	cpl			;81aa	2f 	/
1518  81AB 58           	ld e,b			;81ab	58 	X
1519  81AC              l81ach:
1520  81AC 2F           	cpl			;81ac	2f 	/
1521  81AD 59           	ld e,c			;81ad	59 	Y
1522  81AE 2F           	cpl			;81ae	2f 	/
1523  81AF 55           	ld d,l			;81af	55 	U
1524  81B0 2F           	cpl			;81b0	2f 	/
1525  81B1 53           	ld d,e			;81b1	53 	S
1526  81B2 2F           	cpl			;81b2	2f 	/
1527  81B3 52           	ld d,d			;81b3	52 	R
1528  81B4 2F           	cpl			;81b4	2f 	/
1529  81B5 53           	ld d,e			;81b5	53 	S
1530  81B6 2F           	cpl			;81b6	2f 	/
1531  81B7 51           	ld d,c			;81b7	51 	Q
1532  81B8 2F           	cpl			;81b8	2f 	/
1533  81B9 50           	ld d,b			;81b9	50 	P
1534  81BA 2F           	cpl			;81ba	2f 	/
1535  81BB 4E           	ld c,(hl)			;81bb	4e 	N
1536  81BC 2F           	cpl			;81bc	2f 	/
1537  81BD 4E           	ld c,(hl)			;81bd	4e 	N
1538  81BE 2F           	cpl			;81be	2f 	/
1539  81BF 4D           	ld c,l			;81bf	4d 	M
1540  81C0 2F           	cpl			;81c0	2f 	/
1541  81C1 4D           	ld c,l			;81c1	4d 	M
1542  81C2 2F           	cpl			;81c2	2f 	/
1543  81C3 51           	ld d,c			;81c3	51 	Q
1544  81C4 2F           	cpl			;81c4	2f 	/
1545  81C5 53           	ld d,e			;81c5	53 	S
1546  81C6 2F           	cpl			;81c6	2f 	/
1547  81C7 53           	ld d,e			;81c7	53 	S
1548  81C8 2F           	cpl			;81c8	2f 	/
1549  81C9 53           	ld d,e			;81c9	53 	S
1550  81CA DD DD 2F     	defb 0ddh,0ddh,02fh	;illegal sequence		;81ca	dd dd 2f 	. . /
1551  81CD 52           	ld d,d			;81cd	52 	R
1552  81CE 2F           	cpl			;81ce	2f 	/
1553  81CF 52           	ld d,d			;81cf	52 	R
1554  81D0 2F           	cpl			;81d0	2f 	/
1555  81D1 52           	ld d,d			;81d1	52 	R
1556  81D2 DF           	rst 18h			;81d2	df 	.
1557  81D3 DF           	rst 18h			;81d3	df 	.
1558  81D4 2F           	cpl			;81d4	2f 	/
1559  81D5 52           	ld d,d			;81d5	52 	R
1560  81D6 2F           	cpl			;81d6	2f 	/
1561  81D7              l81d7h:
1562  81D7 4D           	ld c,l			;81d7	4d 	M
1563  81D8 2F           	cpl			;81d8	2f 	/
1564  81D9 4D           	ld c,l			;81d9	4d 	M
1565  81DA 2F           	cpl			;81da	2f 	/
1566  81DB 4F           	ld c,a			;81db	4f 	O
1567  81DC 2F           	cpl			;81dc	2f 	/
1568  81DD 51           	ld d,c			;81dd	51 	Q
1569  81DE 2F           	cpl			;81de	2f 	/
1570  81DF 51           	ld d,c			;81df	51 	Q
1571  81E0 2F           	cpl			;81e0	2f 	/
1572  81E1 51           	ld d,c			;81e1	51 	Q
1573  81E2 DE DE        	sbc a,0deh		;81e2	de de 	. .
1574  81E4 2F           	cpl			;81e4	2f 	/
1575  81E5 51           	ld d,c			;81e5	51 	Q
1576  81E6 2F           	cpl			;81e6	2f 	/
1577  81E7 4E           	ld c,(hl)			;81e7	4e 	N
1578  81E8 2F           	cpl			;81e8	2f 	/
1579  81E9 4F           	ld c,a			;81e9	4f 	O
1580  81EA 2F           	cpl			;81ea	2f 	/
1581  81EB 4D           	ld c,l			;81eb	4d 	M
1582  81EC 2F           	cpl			;81ec	2f 	/
1583  81ED 4D           	ld c,l			;81ed	4d 	M
1584  81EE 2F           	cpl			;81ee	2f 	/
1585  81EF 4D           	ld c,l			;81ef	4d 	M
1586  81F0 2F           	cpl			;81f0	2f 	/
1587  81F1 4D           	ld c,l			;81f1	4d 	M
1588  81F2 2F           	cpl			;81f2	2f 	/
1589  81F3 4D           	ld c,l			;81f3	4d 	M
1590  81F4 2F           	cpl			;81f4	2f 	/
1591  81F5 4F           	ld c,a			;81f5	4f 	O
1592  81F6 2F           	cpl			;81f6	2f 	/
1593  81F7 4E           	ld c,(hl)			;81f7	4e 	N
1594  81F8 2F           	cpl			;81f8	2f 	/
1595  81F9 4D           	ld c,l			;81f9	4d 	M
1596  81FA 2F           	cpl			;81fa	2f 	/
1597  81FB 4E           	ld c,(hl)			;81fb	4e 	N
1598  81FC 2F           	cpl			;81fc	2f 	/
1599  81FD 4F           	ld c,a			;81fd	4f 	O
1600  81FE 2F           	cpl			;81fe	2f 	/
1601  81FF 50           	ld d,b			;81ff	50 	P
1602  8200 2F           	cpl			;8200	2f 	/
1603  8201 4E           	ld c,(hl)			;8201	4e 	N
1604  8202 2F           	cpl			;8202	2f 	/
1605  8203 4E           	ld c,(hl)			;8203	4e 	N
1606  8204 2F           	cpl			;8204	2f 	/
1607  8205 4F           	ld c,a			;8205	4f 	O
1608  8206 2F           	cpl			;8206	2f 	/
1609  8207 52           	ld d,d			;8207	52 	R
1610  8208 2F           	cpl			;8208	2f 	/
1611  8209 53           	ld d,e			;8209	53 	S
1612  820A 2F           	cpl			;820a	2f 	/
1613  820B 53           	ld d,e			;820b	53 	S
1614  820C 2F           	cpl			;820c	2f 	/
1615  820D 53           	ld d,e			;820d	53 	S
1616  820E DE DE        	sbc a,0deh		;820e	de de 	. .
1617  8210 2F           	cpl			;8210	2f 	/
1618  8211 53           	ld d,e			;8211	53 	S
1619  8212 2F           	cpl			;8212	2f 	/
1620  8213 50           	ld d,b			;8213	50 	P
1621  8214 2F           	cpl			;8214	2f 	/
1622  8215 4D           	ld c,l			;8215	4d 	M
1623  8216 2F           	cpl			;8216	2f 	/
1624  8217 55           	ld d,l			;8217	55 	U
1625  8218 2F           	cpl			;8218	2f 	/
1626  8219 55           	ld d,l			;8219	55 	U
1627  821A 2F           	cpl			;821a	2f 	/
1628  821B 55           	ld d,l			;821b	55 	U
1629  821C DD DD 2F     	defb 0ddh,0ddh,02fh	;illegal sequence		;821c	dd dd 2f 	. . /
1630  821F 53           	ld d,e			;821f	53 	S
1631  8220 2F           	cpl			;8220	2f 	/
1632  8221 50           	ld d,b			;8221	50 	P
1633  8222 2F           	cpl			;8222	2f 	/
1634  8223 55           	ld d,l			;8223	55 	U
1635  8224 2F           	cpl			;8224	2f 	/
1636  8225 55           	ld d,l			;8225	55 	U
1637  8226 2F           	cpl			;8226	2f 	/
1638  8227 55           	ld d,l			;8227	55 	U
1639  8228 DE DE        	sbc a,0deh		;8228	de de 	. .
1640  822A 2F           	cpl			;822a	2f 	/
1641  822B 55           	ld d,l			;822b	55 	U
1642  822C 2F           	cpl			;822c	2f 	/
1643  822D 55           	ld d,l			;822d	55 	U
1644  822E 2F           	cpl			;822e	2f 	/
1645  822F 55           	ld d,l			;822f	55 	U
1646  8230 DE DE        	sbc a,0deh		;8230	de de 	. .
1647  8232 2F           	cpl			;8232	2f 	/
1648  8233 55           	ld d,l			;8233	55 	U
1649  8234 2F           	cpl			;8234	2f 	/
1650  8235 55           	ld d,l			;8235	55 	U
1651  8236 2F           	cpl			;8236	2f 	/
1652  8237 55           	ld d,l			;8237	55 	U
1653  8238 DE DE        	sbc a,0deh		;8238	de de 	. .
1654  823A 2F           	cpl			;823a	2f 	/
1655  823B 55           	ld d,l			;823b	55 	U
1656  823C 2F           	cpl			;823c	2f 	/
1657  823D 53           	ld d,e			;823d	53 	S
1658  823E 2F           	cpl			;823e	2f 	/
1659  823F 50           	ld d,b			;823f	50 	P
1660  8240 2F           	cpl			;8240	2f 	/
1661  8241 4F           	ld c,a			;8241	4f 	O
1662  8242 2F           	cpl			;8242	2f 	/
1663  8243 4E           	ld c,(hl)			;8243	4e 	N
1664  8244 2F           	cpl			;8244	2f 	/
1665  8245 4D           	ld c,l			;8245	4d 	M
1666  8246 2F           	cpl			;8246	2f 	/
1667  8247 4F           	ld c,a			;8247	4f 	O
1668  8248 2F           	cpl			;8248	2f 	/
1669  8249 4E           	ld c,(hl)			;8249	4e 	N
1670  824A 2F           	cpl			;824a	2f 	/
1671  824B 51           	ld d,c			;824b	51 	Q
1672  824C 2F           	cpl			;824c	2f 	/
1673  824D 51           	ld d,c			;824d	51 	Q
1674  824E 2F           	cpl			;824e	2f 	/
1675  824F 51           	ld d,c			;824f	51 	Q
1676  8250 DF           	rst 18h			;8250	df 	.
1677  8251 DF           	rst 18h			;8251	df 	.
1678  8252 2F           	cpl			;8252	2f 	/
1679  8253 51           	ld d,c			;8253	51 	Q
1680  8254 2F           	cpl			;8254	2f 	/
1681  8255 51           	ld d,c			;8255	51 	Q
1682  8256 2F           	cpl			;8256	2f 	/
1683  8257 4E           	ld c,(hl)			;8257	4e 	N
1684  8258 2F           	cpl			;8258	2f 	/
1685  8259 4E           	ld c,(hl)			;8259	4e 	N
1686  825A 2F           	cpl			;825a	2f 	/
1687  825B 4F           	ld c,a			;825b	4f 	O
1688  825C 2F           	cpl			;825c	2f 	/
1689  825D 4F           	ld c,a			;825d	4f 	O
1690  825E 2F           	cpl			;825e	2f 	/
1691  825F 4D           	ld c,l			;825f	4d 	M
1692  8260 2F           	cpl			;8260	2f 	/
1693  8261 4F           	ld c,a			;8261	4f 	O
1694  8262 2F           	cpl			;8262	2f 	/
1695  8263 4F           	ld c,a			;8263	4f 	O
1696  8264 2F           	cpl			;8264	2f 	/
1697  8265 4E           	ld c,(hl)			;8265	4e 	N
1698  8266 2F           	cpl			;8266	2f 	/
1699  8267 4D           	ld c,l			;8267	4d 	M
1700  8268 2F           	cpl			;8268	2f 	/
1701  8269 4C           	ld c,h			;8269	4c 	L
1702  826A 2F           	cpl			;826a	2f 	/
1703  826B 54           	ld d,h			;826b	54 	T
1704  826C 2F           	cpl			;826c	2f 	/
1705  826D 54           	ld d,h			;826d	54 	T
1706  826E 2F           	cpl			;826e	2f 	/
1707  826F 54           	ld d,h			;826f	54 	T
1708  8270 DD DD 2F     	defb 0ddh,0ddh,02fh	;illegal sequence		;8270	dd dd 2f 	. . /
1709  8273 54           	ld d,h			;8273	54 	T
1710  8274 2F           	cpl			;8274	2f 	/
1711  8275 54           	ld d,h			;8275	54 	T
1712  8276 DD DD 2F     	defb 0ddh,0ddh,02fh	;illegal sequence		;8276	dd dd 2f 	. . /
1713  8279 54           	ld d,h			;8279	54 	T
1714  827A 2F           	cpl			;827a	2f 	/
1715  827B 54           	ld d,h			;827b	54 	T
1716  827C DE DE        	sbc a,0deh		;827c	de de 	. .
1717  827E 2F           	cpl			;827e	2f 	/
1718  827F 54           	ld d,h			;827f	54 	T
1719  8280 2F           	cpl			;8280	2f 	/
1720  8281 51           	ld d,c			;8281	51 	Q
1721  8282 2F           	cpl			;8282	2f 	/
1722  8283 4D           	ld c,l			;8283	4d 	M
1723  8284 2F           	cpl			;8284	2f 	/
1724  8285 4E           	ld c,(hl)			;8285	4e 	N
1725  8286 2F           	cpl			;8286	2f 	/
1726  8287 4E           	ld c,(hl)			;8287	4e 	N
1727  8288 2F           	cpl			;8288	2f 	/
1728  8289 4D           	ld c,l			;8289	4d 	M
1729  828A 2F           	cpl			;828a	2f 	/
1730  828B 4C           	ld c,h			;828b	4c 	L
1731  828C 2F           	cpl			;828c	2f 	/
1732  828D 4D           	ld c,l			;828d	4d 	M
1733  828E 2F           	cpl			;828e	2f 	/
1734  828F 4D           	ld c,l			;828f	4d 	M
1735  8290 2F           	cpl			;8290	2f 	/
1736  8291 4E           	ld c,(hl)			;8291	4e 	N
1737  8292 2F           	cpl			;8292	2f 	/
1738  8293 4F           	ld c,a			;8293	4f 	O
1739  8294 2F           	cpl			;8294	2f 	/
1740  8295 50           	ld d,b			;8295	50 	P
1741  8296 2F           	cpl			;8296	2f 	/
1742  8297 50           	ld d,b			;8297	50 	P
1743  8298 2F           	cpl			;8298	2f 	/
1744  8299 50           	ld d,b			;8299	50 	P
1745  829A 2F           	cpl			;829a	2f 	/
1746  829B 50           	ld d,b			;829b	50 	P
1747  829C DE DE        	sbc a,0deh		;829c	de de 	. .
1748  829E 2F           	cpl			;829e	2f 	/
1749  829F 50           	ld d,b			;829f	50 	P
1750  82A0 2F           	cpl			;82a0	2f 	/
1751  82A1 50           	ld d,b			;82a1	50 	P
1752  82A2 2F           	cpl			;82a2	2f 	/
1753  82A3 4E           	ld c,(hl)			;82a3	4e 	N
1754  82A4 2F           	cpl			;82a4	2f 	/
1755  82A5 4D           	ld c,l			;82a5	4d 	M
1756  82A6 2F           	cpl			;82a6	2f 	/
1757  82A7 4D           	ld c,l			;82a7	4d 	M
1758  82A8 2F           	cpl			;82a8	2f 	/
1759  82A9 4F           	ld c,a			;82a9	4f 	O
1760  82AA 2F           	cpl			;82aa	2f 	/
1761  82AB 4F           	ld c,a			;82ab	4f 	O
1762  82AC 2F           	cpl			;82ac	2f 	/
1763  82AD 50           	ld d,b			;82ad	50 	P
1764  82AE 2F           	cpl			;82ae	2f 	/
1765  82AF 50           	ld d,b			;82af	50 	P
1766  82B0 2F           	cpl			;82b0	2f 	/
1767  82B1 50           	ld d,b			;82b1	50 	P
1768  82B2 DE DE        	sbc a,0deh		;82b2	de de 	. .
1769  82B4 2F           	cpl			;82b4	2f 	/
1770  82B5 50           	ld d,b			;82b5	50 	P
1771  82B6 2F           	cpl			;82b6	2f 	/
1772  82B7 50           	ld d,b			;82b7	50 	P
1773  82B8 2F           	cpl			;82b8	2f 	/
1774  82B9 50           	ld d,b			;82b9	50 	P
1775  82BA DF           	rst 18h			;82ba	df 	.
1776  82BB DF           	rst 18h			;82bb	df 	.
1777  82BC 2F           	cpl			;82bc	2f 	/
1778  82BD 50           	ld d,b			;82bd	50 	P
1779  82BE 2F           	cpl			;82be	2f 	/
1780  82BF 50           	ld d,b			;82bf	50 	P
1781  82C0 2F           	cpl			;82c0	2f 	/
1782  82C1 50           	ld d,b			;82c1	50 	P
1783  82C2 DD DD 2F     	defb 0ddh,0ddh,02fh	;illegal sequence		;82c2	dd dd 2f 	. . /
1784  82C5 50           	ld d,b			;82c5	50 	P
1785  82C6 2F           	cpl			;82c6	2f 	/
1786  82C7 50           	ld d,b			;82c7	50 	P
1787  82C8 2F           	cpl			;82c8	2f 	/
1788  82C9 3A FF 04     	ld a,(004ffh)		;82c9	3a ff 04 	: . .
1789  82CC 2F           	cpl			;82cc	2f 	/
1790  82CD 3A 2F 42     	ld a,(0422fh)		;82cd	3a 2f 42 	: / B
1791  82D0 2F           	cpl			;82d0	2f 	/
1792  82D1 42           	ld b,d			;82d1	42 	B
1793  82D2 2F           	cpl			;82d2	2f 	/
1794  82D3 42           	ld b,d			;82d3	42 	B
1795  82D4 DD DD 2F     	defb 0ddh,0ddh,02fh	;illegal sequence		;82d4	dd dd 2f 	. . /
1796  82D7 3A 2F 42     	ld a,(0422fh)		;82d7	3a 2f 42 	: / B
1797  82DA 2F           	cpl			;82da	2f 	/
1798  82DB 42           	ld b,d			;82db	42 	B
1799  82DC 2F           	cpl			;82dc	2f 	/
1800  82DD 42           	ld b,d			;82dd	42 	B
1801  82DE DD DD 2F     	defb 0ddh,0ddh,02fh	;illegal sequence		;82de	dd dd 2f 	. . /
1802  82E1 3A 2F 48     	ld a,(0482fh)		;82e1	3a 2f 48 	: / H
1803  82E4 2F           	cpl			;82e4	2f 	/
1804  82E5 48           	ld c,b			;82e5	48 	H
1805  82E6 2F           	cpl			;82e6	2f 	/
1806  82E7 48           	ld c,b			;82e7	48 	H
1807  82E8 DD DD 2F     	defb 0ddh,0ddh,02fh	;illegal sequence		;82e8	dd dd 2f 	. . /
1808  82EB 36 2F        	ld (hl),02fh		;82eb	36 2f 	6 /
1809  82ED 36 2F        	ld (hl),02fh		;82ed	36 2f 	6 /
1810  82EF 3E 2F        	ld a,02fh		;82ef	3e 2f 	> /
1811  82F1 3E 2F        	ld a,02fh		;82f1	3e 2f 	> /
1812  82F3 3E DD        	ld a,0ddh		;82f3	3e dd 	> .
1813  82F5 DD 2F 35     	defb 0ddh,02fh,035h	;illegal sequence		;82f5	dd 2f 35 	. / 5
1814  82F8 2F           	cpl			;82f8	2f 	/
1815  82F9 35           	dec (hl)			;82f9	35 	5
1816  82FA 2F           	cpl			;82fa	2f 	/
1817  82FB 3D           	dec a			;82fb	3d 	=
1818  82FC 2F           	cpl			;82fc	2f 	/
1819  82FD 3D           	dec a			;82fd	3d 	=
1820  82FE 2F           	cpl			;82fe	2f 	/
1821  82FF 3D           	dec a			;82ff	3d 	=
1822  8300 DD DD 2F     	defb 0ddh,0ddh,02fh	;illegal sequence		;8300	dd dd 2f 	. . /
1823  8303 35           	dec (hl)			;8303	35 	5
1824  8304 2F           	cpl			;8304	2f 	/
1825  8305 35           	dec (hl)			;8305	35 	5
1826  8306 2F           	cpl			;8306	2f 	/
1827  8307 3D           	dec a			;8307	3d 	=
1828  8308 2F           	cpl			;8308	2f 	/
1829  8309 3D           	dec a			;8309	3d 	=
1830  830A 2F           	cpl			;830a	2f 	/
1831  830B 3D           	dec a			;830b	3d 	=
1832  830C DD DD 2F     	defb 0ddh,0ddh,02fh	;illegal sequence		;830c	dd dd 2f 	. . /
1833  830F 4A           	ld c,d			;830f	4a 	J
1834  8310 2F           	cpl			;8310	2f 	/
1835  8311 4A           	ld c,d			;8311	4a 	J
1836  8312 2F           	cpl			;8312	2f 	/
1837  8313 4A           	ld c,d			;8313	4a 	J
1838  8314 DD DD 2F     	defb 0ddh,0ddh,02fh	;illegal sequence		;8314	dd dd 2f 	. . /
1839  8317 4A           	ld c,d			;8317	4a 	J
1840  8318 2F           	cpl			;8318	2f 	/
1841  8319 4A           	ld c,d			;8319	4a 	J
1842  831A DD DD 2F     	defb 0ddh,0ddh,02fh	;illegal sequence		;831a	dd dd 2f 	. . /
1843  831D 4A           	ld c,d			;831d	4a 	J
1844  831E 2F           	cpl			;831e	2f 	/
1845  831F 4A           	ld c,d			;831f	4a 	J
1846  8320 2F           	cpl			;8320	2f 	/
1847  8321 4A           	ld c,d			;8321	4a 	J
1848  8322 DE DE        	sbc a,0deh		;8322	de de 	. .
1849  8324 2F           	cpl			;8324	2f 	/
1850  8325 4A           	ld c,d			;8325	4a 	J
1851  8326 2F           	cpl			;8326	2f 	/
1852  8327 4A           	ld c,d			;8327	4a 	J
1853  8328 2F           	cpl			;8328	2f 	/
1854  8329 4A           	ld c,d			;8329	4a 	J
1855  832A DE DE        	sbc a,0deh		;832a	de de 	. .
1856  832C 2F           	cpl			;832c	2f 	/
1857  832D 4A           	ld c,d			;832d	4a 	J
1858  832E 2F           	cpl			;832e	2f 	/
1859  832F 4A           	ld c,d			;832f	4a 	J
1860  8330 2F           	cpl			;8330	2f 	/
1861  8331 4A           	ld c,d			;8331	4a 	J
1862  8332 DF           	rst 18h			;8332	df 	.
1863  8333 DF           	rst 18h			;8333	df 	.
1864  8334 2F           	cpl			;8334	2f 	/
1865  8335 4A           	ld c,d			;8335	4a 	J
1866  8336 2F           	cpl			;8336	2f 	/
1867  8337 3A 2F 3A     	ld a,(03a2fh)		;8337	3a 2f 3a 	: / :
1868  833A 2F           	cpl			;833a	2f 	/
1869  833B 4A           	ld c,d			;833b	4a 	J
1870  833C 2F           	cpl			;833c	2f 	/
1871  833D 4A           	ld c,d			;833d	4a 	J
1872  833E 2F           	cpl			;833e	2f 	/
1873  833F 4A           	ld c,d			;833f	4a 	J
1874  8340 DD DD 2F     	defb 0ddh,0ddh,02fh	;illegal sequence		;8340	dd dd 2f 	. . /
1875  8343 3F           	ccf			;8343	3f 	?
1876  8344 2F           	cpl			;8344	2f 	/
1877  8345 49           	ld c,c			;8345	49 	I
1878  8346 2F           	cpl			;8346	2f 	/
1879  8347 49           	ld c,c			;8347	49 	I
1880  8348 2F           	cpl			;8348	2f 	/
1881  8349 49           	ld c,c			;8349	49 	I
1882  834A DD DD 2F     	defb 0ddh,0ddh,02fh	;illegal sequence		;834a	dd dd 2f 	. . /
1883  834D 3E 2F        	ld a,02fh		;834d	3e 2f 	> /
1884  834F 48           	ld c,b			;834f	48 	H
1885  8350 2F           	cpl			;8350	2f 	/
1886  8351 48           	ld c,b			;8351	48 	H
1887  8352 2F           	cpl			;8352	2f 	/
1888  8353 48           	ld c,b			;8353	48 	H
1889  8354 DD DD 2F     	defb 0ddh,0ddh,02fh	;illegal sequence		;8354	dd dd 2f 	. . /
1890  8357 3A 2F 45     	ld a,(0452fh)		;8357	3a 2f 45 	: / E
1891  835A 2F           	cpl			;835a	2f 	/
1892  835B 45           	ld b,l			;835b	45 	E
1893  835C 2F           	cpl			;835c	2f 	/
1894  835D 45           	ld b,l			;835d	45 	E
1895  835E DD DD 2F     	defb 0ddh,0ddh,02fh	;illegal sequence		;835e	dd dd 2f 	. . /
1896  8361 38 2F        	jr c,$+49		;8361	38 2f 	8 /
1897  8363 43           	ld b,e			;8363	43 	C
1898  8364 2F           	cpl			;8364	2f 	/
1899  8365 43           	ld b,e			;8365	43 	C
1900  8366 2F           	cpl			;8366	2f 	/
1901  8367 43           	ld b,e			;8367	43 	C
1902  8368 DD DD 2F     	defb 0ddh,0ddh,02fh	;illegal sequence		;8368	dd dd 2f 	. . /
1903  836B 36 2F        	ld (hl),02fh		;836b	36 2f 	6 /
1904  836D 41           	ld b,c			;836d	41 	A
1905  836E 2F           	cpl			;836e	2f 	/
1906  836F 41           	ld b,c			;836f	41 	A
1907  8370 2F           	cpl			;8370	2f 	/
1908  8371 41           	ld b,c			;8371	41 	A
1909  8372 DD DD 2F     	defb 0ddh,0ddh,02fh	;illegal sequence		;8372	dd dd 2f 	. . /
1910  8375 41           	ld b,c			;8375	41 	A
1911  8376 2F           	cpl			;8376	2f 	/
1912  8377 41           	ld b,c			;8377	41 	A
1913  8378 2F           	cpl			;8378	2f 	/
1914  8379 41           	ld b,c			;8379	41 	A
1915  837A DD DD 2F     	defb 0ddh,0ddh,02fh	;illegal sequence		;837a	dd dd 2f 	. . /
1916  837D 36 2F        	ld (hl),02fh		;837d	36 2f 	6 /
1917  837F 36 2F        	ld (hl),02fh		;837f	36 2f 	6 /
1918  8381 40           	ld b,b			;8381	40 	@
1919  8382 2F           	cpl			;8382	2f 	/
1920  8383 40           	ld b,b			;8383	40 	@
1921  8384 2F           	cpl			;8384	2f 	/
1922  8385 40           	ld b,b			;8385	40 	@
1923  8386 DD DD 2F     	defb 0ddh,0ddh,02fh	;illegal sequence		;8386	dd dd 2f 	. . /
1924  8389 36 2F        	ld (hl),02fh		;8389	36 2f 	6 /
1925  838B 46           	ld b,(hl)			;838b	46 	F
1926  838C 2F           	cpl			;838c	2f 	/
1927  838D 46           	ld b,(hl)			;838d	46 	F
1928  838E 2F           	cpl			;838e	2f 	/
1929  838F 46           	ld b,(hl)			;838f	46 	F
1930  8390 DD DD 2F     	defb 0ddh,0ddh,02fh	;illegal sequence		;8390	dd dd 2f 	. . /
1931  8393 3A 2F 4C     	ld a,(04c2fh)		;8393	3a 2f 4c 	: / L
1932  8396 2F           	cpl			;8396	2f 	/
1933  8397 4C           	ld c,h			;8397	4c 	L
1934  8398 2F           	cpl			;8398	2f 	/
1935  8399 4C           	ld c,h			;8399	4c 	L
1936  839A DD DD 2F     	defb 0ddh,0ddh,02fh	;illegal sequence		;839a	dd dd 2f 	. . /
1937  839D 4C           	ld c,h			;839d	4c 	L
1938  839E 2F           	cpl			;839e	2f 	/
1939  839F 4C           	ld c,h			;839f	4c 	L
1940  83A0 2F           	cpl			;83a0	2f 	/
1941  83A1 4C           	ld c,h			;83a1	4c 	L
1942  83A2 DF           	rst 18h			;83a2	df 	.
1943  83A3 DF           	rst 18h			;83a3	df 	.
1944  83A4 2F           	cpl			;83a4	2f 	/
1945  83A5 4C           	ld c,h			;83a5	4c 	L
1946  83A6 2F           	cpl			;83a6	2f 	/
1947  83A7 4C           	ld c,h			;83a7	4c 	L
1948  83A8 2F           	cpl			;83a8	2f 	/
1949  83A9 4C           	ld c,h			;83a9	4c 	L
1950  83AA 2F           	cpl			;83aa	2f 	/
1951  83AB 4C           	ld c,h			;83ab	4c 	L
1952  83AC DE DE        	sbc a,0deh		;83ac	de de 	. .
1953  83AE 2F           	cpl			;83ae	2f 	/
1954  83AF 4C           	ld c,h			;83af	4c 	L
1955  83B0 2F           	cpl			;83b0	2f 	/
1956  83B1 4C           	ld c,h			;83b1	4c 	L
1957  83B2 2F           	cpl			;83b2	2f 	/
1958  83B3 4C           	ld c,h			;83b3	4c 	L
1959  83B4 DE DE        	sbc a,0deh		;83b4	de de 	. .
1960  83B6 2F           	cpl			;83b6	2f 	/
1961  83B7 4C           	ld c,h			;83b7	4c 	L
1962  83B8 2F           	cpl			;83b8	2f 	/
1963  83B9 4C           	ld c,h			;83b9	4c 	L
1964  83BA 33           	inc sp			;83ba	33 	3
1965  83BB 3A FF 05     	ld a,(005ffh)		;83bb	3a ff 05 	: . .
1966  83BE 33           	inc sp			;83be	33 	3
1967  83BF 3A 33 3A     	ld a,(03a33h)		;83bf	3a 33 3a 	: 3 :
1968  83C2 33           	inc sp			;83c2	33 	3
1969  83C3 3A 33 3A     	ld a,(03a33h)		;83c3	3a 33 3a 	: 3 :
1970  83C6 33           	inc sp			;83c6	33 	3
1971  83C7 3A 33 3A     	ld a,(03a33h)		;83c7	3a 33 3a 	: 3 :
1972  83CA 33           	inc sp			;83ca	33 	3
1973  83CB 3A DE DE     	ld a,(0dedeh)		;83cb	3a de de 	: . .
1974  83CE 33           	inc sp			;83ce	33 	3
1975  83CF 3A 33 3A     	ld a,(03a33h)		;83cf	3a 33 3a 	: 3 :
1976  83D2 33           	inc sp			;83d2	33 	3
1977  83D3 3A DE DE     	ld a,(0dedeh)		;83d3	3a de de 	: . .
1978  83D6 33           	inc sp			;83d6	33 	3
1979  83D7 3A 33 3A     	ld a,(03a33h)		;83d7	3a 33 3a 	: 3 :
1980  83DA 33           	inc sp			;83da	33 	3
1981  83DB 3A DE DE     	ld a,(0dedeh)		;83db	3a de de 	: . .
1982  83DE 33           	inc sp			;83de	33 	3
1983  83DF 3A 33 3C     	ld a,(03c33h)		;83df	3a 33 3c 	: 3 <
1984  83E2 35           	dec (hl)			;83e2	35 	5
1985  83E3 3E 36        	ld a,036h		;83e3	3e 36 	> 6
1986  83E5 3E 37        	ld a,037h		;83e5	3e 37 	> 7
1987  83E7 56           	ld d,(hl)			;83e7	56 	V
1988  83E8 37           	scf			;83e8	37 	7
1989  83E9 56           	ld d,(hl)			;83e9	56 	V
1990  83EA 37           	scf			;83ea	37 	7
1991  83EB 56           	ld d,(hl)			;83eb	56 	V
1992  83EC 37           	scf			;83ec	37 	7
1993  83ED 56           	ld d,(hl)			;83ed	56 	V
1994  83EE 49           	ld c,c			;83ee	49 	I
1995  83EF 56           	ld d,(hl)			;83ef	56 	V
1996  83F0 4A           	ld c,d			;83f0	4a 	J
1997  83F1 56           	ld d,(hl)			;83f1	56 	V
1998  83F2 4B           	ld c,e			;83f2	4b 	K
1999  83F3 56           	ld d,(hl)			;83f3	56 	V
2000  83F4 4C           	ld c,h			;83f4	4c 	L
2001  83F5 56           	ld d,(hl)			;83f5	56 	V
2002  83F6 4D           	ld c,l			;83f6	4d 	M
2003  83F7 56           	ld d,(hl)			;83f7	56 	V
2004  83F8 DF           	rst 18h			;83f8	df 	.
2005  83F9 DF           	rst 18h			;83f9	df 	.
2006  83FA 4E           	ld c,(hl)			;83fa	4e 	N
2007  83FB 56           	ld d,(hl)			;83fb	56 	V
2008  83FC 4F           	ld c,a			;83fc	4f 	O
2009  83FD 56           	ld d,(hl)			;83fd	56 	V
2010  83FE 50           	ld d,b			;83fe	50 	P
2011  83FF 56           	ld d,(hl)			;83ff	56 	V
2012  8400 4F           	ld c,a			;8400	4f 	O
2013  8401 56           	ld d,(hl)			;8401	56 	V
2014  8402 4E           	ld c,(hl)			;8402	4e 	N
2015  8403 56           	ld d,(hl)			;8403	56 	V
2016  8404 4D           	ld c,l			;8404	4d 	M
2017  8405 56           	ld d,(hl)			;8405	56 	V
2018  8406 4C           	ld c,h			;8406	4c 	L
2019  8407 55           	ld d,l			;8407	55 	U
2020  8408 4B           	ld c,e			;8408	4b 	K
2021  8409 54           	ld d,h			;8409	54 	T
2022  840A 4A           	ld c,d			;840a	4a 	J
2023  840B 54           	ld d,h			;840b	54 	T
2024  840C 4A           	ld c,d			;840c	4a 	J
2025  840D 54           	ld d,h			;840d	54 	T
2026  840E 4A           	ld c,d			;840e	4a 	J
2027  840F 52           	ld d,d			;840f	52 	R
2028  8410 4A           	ld c,d			;8410	4a 	J
2029  8411 51           	ld d,c			;8411	51 	Q
2030  8412 4A           	ld c,d			;8412	4a 	J
2031  8413 51           	ld d,c			;8413	51 	Q
2032  8414 4A           	ld c,d			;8414	4a 	J
2033  8415 51           	ld d,c			;8415	51 	Q
2034  8416 4A           	ld c,d			;8416	4a 	J
2035  8417 51           	ld d,c			;8417	51 	Q
2036  8418 4A           	ld c,d			;8418	4a 	J
2037  8419 51           	ld d,c			;8419	51 	Q
2038  841A 4A           	ld c,d			;841a	4a 	J
2039  841B 51           	ld d,c			;841b	51 	Q
2040  841C 46           	ld b,(hl)			;841c	46 	F
2041  841D 51           	ld d,c			;841d	51 	Q
2042  841E 46           	ld b,(hl)			;841e	46 	F
2043  841F 59           	ld e,c			;841f	59 	Y
2044  8420 45           	ld b,l			;8420	45 	E
2045  8421 59           	ld e,c			;8421	59 	Y
2046  8422 44           	ld b,h			;8422	44 	D
2047  8423 59           	ld e,c			;8423	59 	Y
2048  8424 DD DD 44     	defb 0ddh,0ddh,044h	;illegal sequence		;8424	dd dd 44 	. . D
2049  8427 4C           	ld c,h			;8427	4c 	L
2050  8428 44           	ld b,h			;8428	44 	D
2051  8429 4C           	ld c,h			;8429	4c 	L
2052  842A 44           	ld b,h			;842a	44 	D
2053  842B 4A           	ld c,d			;842b	4a 	J
2054  842C 44           	ld b,h			;842c	44 	D
2055  842D 4A           	ld c,d			;842d	4a 	J
2056  842E 44           	ld b,h			;842e	44 	D
2057  842F 4A           	ld c,d			;842f	4a 	J
2058  8430 44           	ld b,h			;8430	44 	D
2059  8431 54           	ld d,h			;8431	54 	T
2060  8432 44           	ld b,h			;8432	44 	D
2061  8433 54           	ld d,h			;8433	54 	T
2062  8434 44           	ld b,h			;8434	44 	D
2063  8435 54           	ld d,h			;8435	54 	T
2064  8436 DE DE        	sbc a,0deh		;8436	de de 	. .
2065  8438 3A 54 3A     	ld a,(03a54h)		;8438	3a 54 3a 	: T :
2066  843B 54           	ld d,h			;843b	54 	T
2067  843C 3A 54 DF     	ld a,(0df54h)		;843c	3a 54 df 	: T .
2068  843F DF           	rst 18h			;843f	df 	.
2069  8440 3A 54 3A     	ld a,(03a54h)		;8440	3a 54 3a 	: T :
2070  8443 41           	ld b,c			;8443	41 	A
2071  8444 3A 41 3A     	ld a,(03a41h)		;8444	3a 41 3a 	: A :
2072  8447 41           	ld b,c			;8447	41 	A
2073  8448 3A 41 3A     	ld a,(03a41h)		;8448	3a 41 3a 	: A :
2074  844B 41           	ld b,c			;844b	41 	A
2075  844C 39           	add hl,sp			;844c	39 	9
2076  844D 41           	ld b,c			;844d	41 	A
2077  844E 34           	inc (hl)			;844e	34 	4
2078  844F 40           	ld b,b			;844f	40 	@
2079  8450 34           	inc (hl)			;8450	34 	4
2080  8451 40           	ld b,b			;8451	40 	@
2081  8452 34           	inc (hl)			;8452	34 	4
2082  8453 3F           	ccf			;8453	3f 	?
2083  8454 34           	inc (hl)			;8454	34 	4
2084  8455 3E 34        	ld a,034h		;8455	3e 34 	> 4
2085  8457 3D           	dec a			;8457	3d 	=
2086  8458 34           	inc (hl)			;8458	34 	4
2087  8459 3A 34 3A     	ld a,(03a34h)		;8459	3a 34 3a 	: 4 :
2088  845C 34           	inc (hl)			;845c	34 	4
2089  845D 3A DE DE     	ld a,(0dedeh)		;845d	3a de de 	: . .
2090  8460 34           	inc (hl)			;8460	34 	4
2091  8461 3A 34 3A     	ld a,(03a34h)		;8461	3a 34 3a 	: 4 :
2092  8464 34           	inc (hl)			;8464	34 	4
2093  8465 3A DE DE     	ld a,(0dedeh)		;8465	3a de de 	: . .
2094  8468 34           	inc (hl)			;8468	34 	4
2095  8469 3A 34 3A     	ld a,(03a34h)		;8469	3a 34 3a 	: 4 :
2096  846C 34           	inc (hl)			;846c	34 	4
2097  846D 3A DE DE     	ld a,(0dedeh)		;846d	3a de de 	: . .
2098  8470 34           	inc (hl)			;8470	34 	4
2099  8471 3A 34 3A     	ld a,(03a34h)		;8471	3a 34 3a 	: 4 :
2100  8474 34           	inc (hl)			;8474	34 	4
2101  8475 3A DE DE     	ld a,(0dedeh)		;8475	3a de de 	: . .
2102  8478 34           	inc (hl)			;8478	34 	4
2103  8479 3A 34 3A     	ld a,(03a34h)		;8479	3a 34 3a 	: 4 :
2104  847C 34           	inc (hl)			;847c	34 	4
2105  847D 3A DE DE     	ld a,(0dedeh)		;847d	3a de de 	: . .
2106  8480 34           	inc (hl)			;8480	34 	4
2107  8481 3A 34 3A     	ld a,(03a34h)		;8481	3a 34 3a 	: 4 :
2108  8484 34           	inc (hl)			;8484	34 	4
2109  8485 3A DE DE     	ld a,(0dedeh)		;8485	3a de de 	: . .
2110  8488 34           	inc (hl)			;8488	34 	4
2111  8489 56           	ld d,(hl)			;8489	56 	V
2112  848A 34           	inc (hl)			;848a	34 	4
2113  848B 56           	ld d,(hl)			;848b	56 	V
2114  848C 34           	inc (hl)			;848c	34 	4
2115  848D 56           	ld d,(hl)			;848d	56 	V
2116  848E 34           	inc (hl)			;848e	34 	4
2117  848F 56           	ld d,(hl)			;848f	56 	V
2118  8490 DD DD 3F     	defb 0ddh,0ddh,03fh	;illegal sequence		;8490	dd dd 3f 	. . ?
2119  8493 46           	ld b,(hl)			;8493	46 	F
2120  8494 3F           	ccf			;8494	3f 	?
2121  8495 46           	ld b,(hl)			;8495	46 	F
2122  8496 3F           	ccf			;8496	3f 	?
2123  8497 46           	ld b,(hl)			;8497	46 	F
2124  8498 3F           	ccf			;8498	3f 	?
2125  8499 46           	ld b,(hl)			;8499	46 	F
2126  849A FF           	rst 38h			;849a	ff 	.
2127  849B 06 3E        	ld b,03eh		;849b	06 3e 	. >
2128  849D 47           	ld b,a			;849d	47 	G
2129  849E 3D           	dec a			;849e	3d 	=
2130  849F 48           	ld c,b			;849f	48 	H
2131  84A0 3C           	inc a			;84a0	3c 	<
2132  84A1 49           	ld c,c			;84a1	49 	I
2133  84A2 3B           	dec sp			;84a2	3b 	;
2134  84A3 4A           	ld c,d			;84a3	4a 	J
2135  84A4 3A 4B 39     	ld a,(0394bh)		;84a4	3a 4b 39 	: K 9
2136  84A7 4C           	ld c,h			;84a7	4c 	L
2137  84A8 38 4D        	jr c,l84f7h		;84a8	38 4d 	8 M
2138  84AA 37           	scf			;84aa	37 	7
2139  84AB 4E           	ld c,(hl)			;84ab	4e 	N
2140  84AC 36 4F        	ld (hl),04fh		;84ac	36 4f 	6 O
2141  84AE 35           	dec (hl)			;84ae	35 	5
2142  84AF 50           	ld d,b			;84af	50 	P
2143  84B0 34           	inc (hl)			;84b0	34 	4
2144  84B1 51           	ld d,c			;84b1	51 	Q
2145  84B2 33           	inc sp			;84b2	33 	3
2146  84B3 52           	ld d,d			;84b3	52 	R
2147  84B4 32 53 31     	ld (03153h),a		;84b4	32 53 31 	2 S 1
2148  84B7 54           	ld d,h			;84b7	54 	T
2149  84B8 30 55        	jr nc,l850fh		;84b8	30 55 	0 U
2150  84BA 2F           	cpl			;84ba	2f 	/
2151  84BB 56           	ld d,(hl)			;84bb	56 	V
2152  84BC 2F           	cpl			;84bc	2f 	/
2153  84BD 56           	ld d,(hl)			;84bd	56 	V
2154  84BE 2F           	cpl			;84be	2f 	/
2155  84BF 52           	ld d,d			;84bf	52 	R
2156  84C0 2F           	cpl			;84c0	2f 	/
2157  84C1 4E           	ld c,(hl)			;84c1	4e 	N
2158  84C2 2F           	cpl			;84c2	2f 	/
2159  84C3 56           	ld d,(hl)			;84c3	56 	V
2160  84C4 2F           	cpl			;84c4	2f 	/
2161  84C5 56           	ld d,(hl)			;84c5	56 	V
2162  84C6 2F           	cpl			;84c6	2f 	/
2163  84C7 56           	ld d,(hl)			;84c7	56 	V
2164  84C8 DD DD 2F     	defb 0ddh,0ddh,02fh	;illegal sequence		;84c8	dd dd 2f 	. . /
2165  84CB 4E           	ld c,(hl)			;84cb	4e 	N
2166  84CC 2F           	cpl			;84cc	2f 	/
2167  84CD 52           	ld d,d			;84cd	52 	R
2168  84CE 2F           	cpl			;84ce	2f 	/
2169  84CF 56           	ld d,(hl)			;84cf	56 	V
2170  84D0 2F           	cpl			;84d0	2f 	/
2171  84D1 56           	ld d,(hl)			;84d1	56 	V
2172  84D2 2F           	cpl			;84d2	2f 	/
2173  84D3 56           	ld d,(hl)			;84d3	56 	V
2174  84D4 DC DC 2F     	call c,02fdch		;84d4	dc dc 2f 	. . /
2175  84D7 56           	ld d,(hl)			;84d7	56 	V
2176  84D8 2F           	cpl			;84d8	2f 	/
2177  84D9 52           	ld d,d			;84d9	52 	R
2178  84DA 2F           	cpl			;84da	2f 	/
2179  84DB 4E           	ld c,(hl)			;84db	4e 	N
2180  84DC 2F           	cpl			;84dc	2f 	/
2181  84DD 56           	ld d,(hl)			;84dd	56 	V
2182  84DE 2F           	cpl			;84de	2f 	/
2183  84DF 56           	ld d,(hl)			;84df	56 	V
2184  84E0 30 56        	jr nc,$+88		;84e0	30 56 	0 V
2185  84E2 DD DD 30     	defb 0ddh,0ddh,030h	;illegal sequence		;84e2	dd dd 30 	. . 0
2186  84E5 4E           	ld c,(hl)			;84e5	4e 	N
2187  84E6 30 52        	jr nc,$853a		;84e6	30 52 	0 R
2188  84E8 30 56        	jr nc,$+88		;84e8	30 56 	0 V
2189  84EA 44           	ld b,h			;84ea	44 	D
2190  84EB 46           	ld b,(hl)			;84eb	46 	F
2191  84EC 44           	ld b,h			;84ec	44 	D
2192  84ED 46           	ld b,(hl)			;84ed	46 	F
2193  84EE 44           	ld b,h			;84ee	44 	D
2194  84EF 46           	ld b,(hl)			;84ef	46 	F
2195  84F0 44           	ld b,h			;84f0	44 	D
2196  84F1 46           	ld b,(hl)			;84f1	46 	F
2197  84F2 44           	ld b,h			;84f2	44 	D
2198  84F3 46           	ld b,(hl)			;84f3	46 	F
2199  84F4 44           	ld b,h			;84f4	44 	D
2200  84F5 46           	ld b,(hl)			;84f5	46 	F
2201  84F6 44           	ld b,h			;84f6	44 	D
2202  84F7              l84f7h:
2203  84F7 46           	ld b,(hl)			;84f7	46 	F
2204  84F8 44           	ld b,h			;84f8	44 	D
2205  84F9 46           	ld b,(hl)			;84f9	46 	F
2206  84FA 44           	ld b,h			;84fa	44 	D
2207  84FB 46           	ld b,(hl)			;84fb	46 	F
2208  84FC 44           	ld b,h			;84fc	44 	D
2209  84FD 46           	ld b,(hl)			;84fd	46 	F
2210  84FE 44           	ld b,h			;84fe	44 	D
2211  84FF 46           	ld b,(hl)			;84ff	46 	F
2212  8500 44           	ld b,h			;8500	44 	D
2213  8501 46           	ld b,(hl)			;8501	46 	F
2214  8502 44           	ld b,h			;8502	44 	D
2215  8503 46           	ld b,(hl)			;8503	46 	F
2216  8504 44           	ld b,h			;8504	44 	D
2217  8505 46           	ld b,(hl)			;8505	46 	F
2218  8506 44           	ld b,h			;8506	44 	D
2219  8507 46           	ld b,(hl)			;8507	46 	F
2220  8508 44           	ld b,h			;8508	44 	D
2221  8509 46           	ld b,(hl)			;8509	46 	F
2222  850A 44           	ld b,h			;850a	44 	D
2223  850B 46           	ld b,(hl)			;850b	46 	F
2224  850C 44           	ld b,h			;850c	44 	D
2225  850D 46           	ld b,(hl)			;850d	46 	F
2226  850E 44           	ld b,h			;850e	44 	D
2227  850F              l850fh:
2228  850F 46           	ld b,(hl)			;850f	46 	F
2229  8510 44           	ld b,h			;8510	44 	D
2230  8511 46           	ld b,(hl)			;8511	46 	F
2231  8512 44           	ld b,h			;8512	44 	D
2232  8513 46           	ld b,(hl)			;8513	46 	F
2233  8514 44           	ld b,h			;8514	44 	D
2234  8515 46           	ld b,(hl)			;8515	46 	F
2235  8516 44           	ld b,h			;8516	44 	D
2236  8517 46           	ld b,(hl)			;8517	46 	F
2237  8518 44           	ld b,h			;8518	44 	D
2238  8519 46           	ld b,(hl)			;8519	46 	F
2239  851A 44           	ld b,h			;851a	44 	D
2240  851B 46           	ld b,(hl)			;851b	46 	F
2241  851C 44           	ld b,h			;851c	44 	D
2242  851D 46           	ld b,(hl)			;851d	46 	F
2243  851E 44           	ld b,h			;851e	44 	D
2244  851F 46           	ld b,(hl)			;851f	46 	F
2245  8520 44           	ld b,h			;8520	44 	D
2246  8521 46           	ld b,(hl)			;8521	46 	F
2247  8522 44           	ld b,h			;8522	44 	D
2248  8523 46           	ld b,(hl)			;8523	46 	F
2249  8524 44           	ld b,h			;8524	44 	D
2250  8525 46           	ld b,(hl)			;8525	46 	F
2251  8526 44           	ld b,h			;8526	44 	D
2252  8527 46           	ld b,(hl)			;8527	46 	F
2253  8528 44           	ld b,h			;8528	44 	D
2254  8529 46           	ld b,(hl)			;8529	46 	F
2255  852A 44           	ld b,h			;852a	44 	D
2256  852B 46           	ld b,(hl)			;852b	46 	F
2257  852C 44           	ld b,h			;852c	44 	D
2258  852D 46           	ld b,(hl)			;852d	46 	F
2259  852E 44           	ld b,h			;852e	44 	D
2260  852F 46           	ld b,(hl)			;852f	46 	F
2261  8530 44           	ld b,h			;8530	44 	D
2262  8531 46           	ld b,(hl)			;8531	46 	F
2263  8532 44           	ld b,h			;8532	44 	D
2264  8533 46           	ld b,(hl)			;8533	46 	F
2265  8534 44           	ld b,h			;8534	44 	D
2266  8535 46           	ld b,(hl)			;8535	46 	F
2267  8536
2268  8536              ;***************************************************************************************
2269  8536              ; Game Texts.
2270  8536              ; Every text is terminated with '$ char and is printed in Gfx Mode 0
2271  8536              ;***************************************************************************************
2272  8536              TXT_TITLE:
2273  8536 2A 20 44 45  	db	"* DEFENCE PENETRATOR *$"			;8536	2a 20 44 45 46 45 4e 43 45 20 50 45 4e 45 54 52 41 54 4f 52 20 2a 24
2273  853A 46 45 4E 43
2273  853E 45 20 50 45
2273  8542 4E 45 54 52
2273  8546 41 54 4F 52
2273  854A 20 2A 24
2274  854D              TXT_AUTHOR:
2275  854D 57 52 49 54  	db	"WRITTEN BY TOM THIEL$" 			;854d	57 52 49 54 54 45 4e 20 42 59 20 54 4f 4d 20 54 48 49 45 4c 24
2275  8551 54 45 4E 20
2275  8555 42 59 20 54
2275  8559 4F 4D 20 54
2275  855D 48 49 45 4C
2275  8561 24
2276  8562              TXT_COPYRIGHT:
2277  8562 43 4F 50 59  	db	"COPYRIGHT 1982 - COSMIC SOFTWARE$"	;8562	43 4f 50 59 52 49 47 48 54 20 31 39 38 32 20 2d 20 43 4f 53 4d 49 43 20 53 4f 46 54 57 41 52 45 24
2277  8566 52 49 47 48
2277  856A 54 20 31 39
2277  856E 38 32 20 2D
2277  8572 20 43 4F 53
2277  8576 4D 49 43 20
2277  857A 53 4F 46 54
2277  857E 57 41 52 45
2277  8582 24
2278  8583              TXT_PRESSSPACE:
2279  8583 50 52 45 53  	db	"PRESS <SPACE> TO PLAY!$"			;8583	50 52 45 53 53 20 3c 53 50 41 43 45 3e 20 54 4f 20 50 4c 41 59 21 24
2279  8587 53 20 3C 53
2279  858B 50 41 43 45
2279  858F 3E 20 54 4F
2279  8593 20 50 4C 41
2279  8597 59 21 24
2280  859A              TXT_GAMEOVER:
2281  859A 2A 20 47 41  	db "* GAME-OVER *$"						;859a	2a 20 47 41 4d 45 2d 4f 56 45 52 20 2a 24
2281  859E 4D 45 2D 4F
2281  85A2 56 45 52 20
2281  85A6 2A 24
2282  85A8              ;***************************************************************************************
2283  85A8
2284  85A8
2285  85A8              l85a8h:
2286  85A8 00           	nop			;85a8	00 	.
2287  85A9              l85a9h:
2288  85A9 00           	nop			;85a9	00 	.
2289  85AA              l85aah:
2290  85AA 00           	nop			;85aa	00 	.
2291  85AB 7F           	ld a,a			;85ab	7f 	
2292  85AC              l85ach:
2293  85AC 00           	nop			;85ac	00 	.
2294  85AD              l85adh:
2295  85AD 00           	nop			;85ad	00 	.
2296  85AE              l85aeh:
2297  85AE DA 87 00     	jp c,00087h		;85ae	da 87 00 	. . .
2298  85B1              l85b1h:
2299  85B1 00           	nop			;85b1	00 	.
2300  85B2              l85b2h:
2301  85B2 00           	nop			;85b2	00 	.
2302  85B3              l85b3h:
2303  85B3 00           	nop			;85b3	00 	.
2304  85B4              l85b4h:
2305  85B4 00           	nop			;85b4	00 	.
2306  85B5              l85b5h:
2307  85B5 00           	nop			;85b5	00 	.
2308  85B6 00           	nop			;85b6	00 	.
2309  85B7              l85b7h:
2310  85B7 00           	nop			;85b7	00 	.
2311  85B8 00           	nop			;85b8	00 	.
2312  85B9              l85b9h:
2313  85B9 00           	nop			;85b9	00 	.
2314  85BA              l85bah:
2315  85BA 00           	nop			;85ba	00 	.
2316  85BB 00           	nop			;85bb	00 	.
2317  85BC              l85bch:
2318  85BC 00           	nop			;85bc	00 	.
2319  85BD              l85bdh:
2320  85BD 03           	inc bc			;85bd	03 	.
2321  85BE 8D           	adc a,l			;85be	8d 	.
2322  85BF              l85bfh:
2323  85BF 00           	nop			;85bf	00 	.
2324  85C0              l85c0h:
2325  85C0 00           	nop			;85c0	00 	.
2326  85C1 00           	nop			;85c1	00 	.
2327  85C2 00           	nop			;85c2	00 	.
2328  85C3 00           	nop			;85c3	00 	.
2329  85C4 00           	nop			;85c4	00 	.
2330  85C5 00           	nop			;85c5	00 	.
2331  85C6              l85c6h:
2332  85C6 00           	nop			;85c6	00 	.
2333  85C7 00           	nop			;85c7	00 	.
2334  85C8 00           	nop			;85c8	00 	.
2335  85C9 00           	nop			;85c9	00 	.
2336  85CA 00           	nop			;85ca	00 	.
2337  85CB 00           	nop			;85cb	00 	.
2338  85CC 00           	nop			;85cc	00 	.
2339  85CD 00           	nop			;85cd	00 	.
2340  85CE              l85ceh:
2341  85CE 00           	nop			;85ce	00 	.
2342  85CF 00           	nop			;85cf	00 	.
2343  85D0 00           	nop			;85d0	00 	.
2344  85D1              l85d1h:
2345  85D1 00           	nop			;85d1	00 	.
2346  85D2 00           	nop			;85d2	00 	.
2347  85D3              l85d3h:
2348  85D3 00           	nop			;85d3	00 	.
2349  85D4 00           	nop			;85d4	00 	.
2350  85D5 00           	nop			;85d5	00 	.
2351  85D6 00           	nop			;85d6	00 	.
2352  85D7 00           	nop			;85d7	00 	.
2353  85D8 00           	nop			;85d8	00 	.
2354  85D9 00           	nop			;85d9	00 	.
2355  85DA 00           	nop			;85da	00 	.
2356  85DB 00           	nop			;85db	00 	.
2357  85DC 00           	nop			;85dc	00 	.
2358  85DD 00           	nop			;85dd	00 	.
2359  85DE 00           	nop			;85de	00 	.
2360  85DF 00           	nop			;85df	00 	.
2361  85E0 00           	nop			;85e0	00 	.
2362  85E1 00           	nop			;85e1	00 	.
2363  85E2 00           	nop			;85e2	00 	.
2364  85E3 00           	nop			;85e3	00 	.
2365  85E4              l85e4h:
2366  85E4 00           	nop			;85e4	00 	.
2367  85E5              l85e5h:
2368  85E5 00           	nop			;85e5	00 	.
2369  85E6 00           	nop			;85e6	00 	.
2370  85E7              l85e7h:
2371  85E7 00           	nop			;85e7	00 	.
2372  85E8 00           	nop			;85e8	00 	.
2373  85E9 00           	nop			;85e9	00 	.
2374  85EA 00           	nop			;85ea	00 	.
2375  85EB 00           	nop			;85eb	00 	.
2376  85EC 00           	nop			;85ec	00 	.
2377  85ED 00           	nop			;85ed	00 	.
2378  85EE 00           	nop			;85ee	00 	.
2379  85EF 00           	nop			;85ef	00 	.
2380  85F0 00           	nop			;85f0	00 	.
2381  85F1 00           	nop			;85f1	00 	.
2382  85F2 00           	nop			;85f2	00 	.
2383  85F3 00           	nop			;85f3	00 	.
2384  85F4 00           	nop			;85f4	00 	.
2385  85F5 00           	nop			;85f5	00 	.
2386  85F6 00           	nop			;85f6	00 	.
2387  85F7 00           	nop			;85f7	00 	.
2388  85F8 00           	nop			;85f8	00 	.
2389  85F9 00           	nop			;85f9	00 	.
2390  85FA 00           	nop			;85fa	00 	.
2391  85FB 00           	nop			;85fb	00 	.
2392  85FC 00           	nop			;85fc	00 	.
2393  85FD 00           	nop			;85fd	00 	.
2394  85FE 00           	nop			;85fe	00 	.
2395  85FF 00           	nop			;85ff	00 	.
2396  8600              l8600h:
2397  8600 00           	nop			;8600	00 	.
2398  8601              l8601h:
2399  8601 00           	nop			;8601	00 	.
2400  8602 00           	nop			;8602	00 	.
2401  8603              l8603h:
2402  8603 00           	nop			;8603	00 	.
2403  8604 00           	nop			;8604	00 	.
2404  8605 00           	nop			;8605	00 	.
2405  8606 00           	nop			;8606	00 	.
2406  8607 00           	nop			;8607	00 	.
2407  8608 00           	nop			;8608	00 	.
2408  8609 00           	nop			;8609	00 	.
2409  860A 00           	nop			;860a	00 	.
2410  860B 00           	nop			;860b	00 	.
2411  860C 00           	nop			;860c	00 	.
2412  860D 00           	nop			;860d	00 	.
2413  860E 00           	nop			;860e	00 	.
2414  860F 00           	nop			;860f	00 	.
2415  8610 00           	nop			;8610	00 	.
2416  8611 00           	nop			;8611	00 	.
2417  8612 00           	nop			;8612	00 	.
2418  8613 00           	nop			;8613	00 	.
2419  8614 00           	nop			;8614	00 	.
2420  8615 00           	nop			;8615	00 	.
2421  8616 00           	nop			;8616	00 	.
2422  8617 00           	nop			;8617	00 	.
2423  8618 00           	nop			;8618	00 	.
2424  8619 00           	nop			;8619	00 	.
2425  861A 00           	nop			;861a	00 	.
2426  861B 00           	nop			;861b	00 	.
2427  861C 00           	nop			;861c	00 	.
2428  861D 00           	nop			;861d	00 	.
2429  861E 00           	nop			;861e	00 	.
2430  861F 00           	nop			;861f	00 	.
2431  8620 00           	nop			;8620	00 	.
2432  8621              l8621h:
2433  8621 00           	nop			;8621	00 	.
2434  8622 00           	nop			;8622	00 	.
2435  8623 00           	nop			;8623	00 	.
2436  8624 00           	nop			;8624	00 	.
2437  8625 00           	nop			;8625	00 	.
2438  8626 00           	nop			;8626	00 	.
2439  8627 00           	nop			;8627	00 	.
2440  8628 00           	nop			;8628	00 	.
2441  8629 00           	nop			;8629	00 	.
2442  862A 00           	nop			;862a	00 	.
2443  862B 00           	nop			;862b	00 	.
2444  862C 00           	nop			;862c	00 	.
2445  862D 00           	nop			;862d	00 	.
2446  862E 00           	nop			;862e	00 	.
2447  862F 00           	nop			;862f	00 	.
2448  8630 00           	nop			;8630	00 	.
2449  8631 00           	nop			;8631	00 	.
2450  8632 00           	nop			;8632	00 	.
2451  8633 00           	nop			;8633	00 	.
2452  8634 00           	nop			;8634	00 	.
2453  8635 00           	nop			;8635	00 	.
2454  8636 00           	nop			;8636	00 	.
2455  8637 00           	nop			;8637	00 	.
2456  8638 00           	nop			;8638	00 	.
2457  8639 00           	nop			;8639	00 	.
2458  863A 00           	nop			;863a	00 	.
2459  863B 00           	nop			;863b	00 	.
2460  863C 00           	nop			;863c	00 	.
2461  863D 00           	nop			;863d	00 	.
2462  863E 00           	nop			;863e	00 	.
2463  863F 00           	nop			;863f	00 	.
2464  8640 00           	nop			;8640	00 	.
2465  8641 00           	nop			;8641	00 	.
2466  8642 00           	nop			;8642	00 	.
2467  8643 00           	nop			;8643	00 	.
2468  8644 00           	nop			;8644	00 	.
2469  8645 00           	nop			;8645	00 	.
2470  8646 00           	nop			;8646	00 	.
2471  8647              l8647h:
2472  8647 00           	nop			;8647	00 	.
2473  8648 00           	nop			;8648	00 	.
2474  8649 00           	nop			;8649	00 	.
2475  864A 00           	nop			;864a	00 	.
2476  864B 00           	nop			;864b	00 	.
2477  864C 00           	nop			;864c	00 	.
2478  864D 00           	nop			;864d	00 	.
2479  864E 00           	nop			;864e	00 	.
2480  864F 00           	nop			;864f	00 	.
2481  8650 00           	nop			;8650	00 	.
2482  8651 00           	nop			;8651	00 	.
2483  8652 00           	nop			;8652	00 	.
2484  8653 00           	nop			;8653	00 	.
2485  8654 00           	nop			;8654	00 	.
2486  8655 00           	nop			;8655	00 	.
2487  8656 00           	nop			;8656	00 	.
2488  8657 00           	nop			;8657	00 	.
2489  8658 00           	nop			;8658	00 	.
2490  8659 00           	nop			;8659	00 	.
2491  865A 00           	nop			;865a	00 	.
2492  865B 00           	nop			;865b	00 	.
2493  865C 00           	nop			;865c	00 	.
2494  865D              sub_865dh:
2495  865D 21 00 70     	ld hl,VRAM		;865d	21 00 70 	! . p
2496  8660 11 01 70     	ld de,VRAM+1		;8660	11 01 70 	. . p
2497  8663 01 58 02     	ld bc,00258h		;8663	01 58 02 	. X .
2498  8666 36 20        	ld (hl),020h		;8666	36 20 	6
2499  8668 ED B0        	ldir		;8668	ed b0 	. .
2500  866A C9           	ret			;866a	c9 	.
2501  866B              sub_866bh:
2502  866B 21 00 78     	ld hl,07800h		;866b	21 00 78 	! . x
2503  866E 11 01 78     	ld de,07801h		;866e	11 01 78 	. . x
2504  8671 01 DC 05     	ld bc,005dch		;8671	01 dc 05 	. . .
2505  8674 36 00        	ld (hl),000h		;8674	36 00 	6 .
2506  8676 ED B0        	ldir		;8676	ed b0 	. .
2507  8678 C9           	ret			;8678	c9 	.
2508  8679              l8679h:
2509  8679 0B           	dec bc			;8679	0b 	.
2510  867A 78           	ld a,b			;867a	78 	x
2511  867B B1           	or c			;867b	b1 	.
2512  867C 20 FB        	jr nz,l8679h		;867c	20 fb 	  .
2513  867E C9           	ret			;867e	c9 	.
2514  867F
2515  867F              ;***************************************************************************************
2516  867F              ; Print text on Screen.
2517  867F              ; Given text has to be terminated with '$' char. Procedure convert ASCII chars to Screen chars.
2518  867F              ; IN: hl - address of text to display
2519  867F              ;     de - VRAM destination address
2520  867F              PRINT_TEXT:
2521  867F 7E           	ld a,(hl)			; a - char to display									;867f	7e 	~
2522  8680 FE 40        	cp $40				; is greater than $40 - need convert to Screen char		;8680	fe 40 	. @
2523  8682 D4 8D 86     	call nc,.ASCII_2_SCREEN	; yes - convert to Screen Char						;8682	d4 8d 86 	. . .
2524  8685 FE 24        	cp '$'				; is this text delimiter? 								;8685	fe 24 	. $
2525  8687 C8           	ret z				; yes -------------- End of Proc ---------------------- ;8687	c8 	.
2526  8688 12           	ld (de),a			; store char to Screen memoey (VRAM)					;8688	12 	.
2527  8689 13           	inc de				; de - next char in VRAM (destination)					;8689	13 	.
2528  868A 23           	inc hl				; hl - next char to display (source)					;868a	23 	#
2529  868B 18 F2        	jr PRINT_TEXT		; print all chars until '$' is found					;868b	18 f2 	. .
2530  868D              .ASCII_2_SCREEN:
2531  868D D6 40        	sub $40				; convert ASCII char to Screen Char						;868d	d6 40 	. @
2532  868F C9           	ret					; ------------------ End of Proc ---------------------- ;868f	c9 	.
2533  8690
2534  8690
2535  8690              sub_8690h:
2536  8690 21 00 78     	ld hl,07800h		;8690	21 00 78 	! . x
2537  8693 11 80 71     	ld de,07180h		;8693	11 80 71 	. . q
2538  8696 01 80 05     	ld bc,00580h		;8696	01 80 05 	. . .
2539  8699 ED B0        	ldir		;8699	ed b0 	. .
2540  869B C9           	ret			;869b	c9 	.
2541  869C
2542  869C
2543  869C
2544  869C              ;***********************************************************************************************
2545  869C              ;
2546  869C              ;    M A I N   E N T R Y   P O I N T
2547  869C              ;
2548  869C              ;***********************************************************************************************
2549  869C              	org $869c
2550  869C
2551  869C              MAIN:
2552  869C              ; -- cleanup procedure
2553  869C AF           	xor a				; 0 - CASOUT off, SOUND off, GFX MODE 0					;869c	af
2554  869D 32 00 68     	ld (IOLATCH),a		; reset Gfx and Sound									;869d	32 00 68
2555  86A0              ; -- clear screen (fill with spaces)
2556  86A0 21 00 70     	ld hl,VRAM			; hl - start of Video RAM 								;86a0	21 00 70
2557  86A3 11 01 70     	ld de,VRAM+1		; de - destination - start of Video RAM 				;86a3	11 01 70
2558  86A6 01 00 02     	ld bc,512			; 512 bytes of VRAM area (Mode 0)						;86a6	01 00 02
2559  86A9 36 20        	ld (hl),' '			; store space into first byte							;86a9	36 20
2560  86AB ED B0        	ldir				; fill rest of Screen with spaces						;86ab	ed b0
2561  86AD              ; -- disable interrupts and reset CPU stack
2562  86AD F3           	di					; disable interrupts									;86ad	f3
2563  86AE 31 F0 7E     	ld sp,GAME_CPU_STACK; set CPU Stack to custom reserved area					;86ae	31 f0 7e
2564  86B1
2565  86B1              ; -- Print Welcome screen Texts
2566  86B1 11 65 70     	ld de,VRAM+(3*32)+5	; screen coord (5,3)char [$7065]						;86b1	11 65 70
2567  86B4 21 36 85     	ld hl,TXT_TITLE		; hl - "DEFENCE PENETRATOR" text						;86b4	21 36 85
2568  86B7 CD 7F 86     	call PRINT_TEXT		; print text on Screen 									;86b7	cd 7f 86 	.  .
2569  86BA 11 C6 70     	ld de,VRAM+(6*32)+6	; screen coord (6,6)char [$70c6]						;86ba	11 c6 70
2570  86BD 21 4D 85     	ld hl,TXT_AUTHOR	; hl - "WRITTEN BY TOM THIEL" text						;86bd	21 4d 85
2571  86C0 CD 7F 86     	call PRINT_TEXT		; print text on Screen 									;86c0	cd 7f 86 	.  .
2572  86C3 11 20 71     	ld de,VRAM+(9*32)+0	; screen coord (0,9)char [$7120]						;86c3	11 20 71
2573  86C6 21 62 85     	ld hl,TXT_COPYRIGHT	; hl - "COPYRIGHT 1982 - COSMIC SOFTWARE" text			;86c6	21 62 85
2574  86C9 CD 7F 86     	call PRINT_TEXT		; print text on Screen 									;86c9	cd 7f 86 	.  .
2575  86CC 11 C5 71     	ld de,VRAM+(14*32)+5; screen coord (5,14)char [$71c5]						;86cc	11 c5 71
2576  86CF 21 83 85     	ld hl,TXT_PRESSSPACE; hl - "PRESS <SPACE> TO PLAY!" text					;86cf	21 83 85
2577  86D2 CD 7F 86     	call PRINT_TEXT		; print text on Screen 									;86d2	cd 7f 86 	.  .
2578  86D5
2579  86D5              ; -- Draw Welcome screen Frame chars
2580  86D5 3E 80        	ld a,$80			; a - green blank SemiGfx Char 							;86d5	3e 80 	> .
2581  86D7              l86d7h:
2582  86D7 21 00 70     	ld hl,VRAM+(0*32)+0	; screen coord (0,0) [$7000]							;86d7	21 00 70 	! . p
2583  86DA 11 01 70     	ld de,VRAM+1		; next char in 1st line									;86da	11 01 70 	. . p
2584  86DD 01 1F 00     	ld bc,31			; 31 chars in line to fill								;86dd	01 1f 00 	. . .
2585  86E0 77           	ld (hl),a			; store 1rs char										;86e0	77 	w
2586  86E1 ED B0        	ldir				; fill 1st line on Screen with char from A				;86e1	ed b0 	. .
2587  86E3 21 E0 71     	ld hl,VRAM+(15*32)+0; screen coord (0,15) [$71e0]							;86e3	21 e0 71 	! . q
2588  86E6 11 E1 71     	ld de,VRAM+(15*32)+1; next char in last line								;86e6	11 e1 71 	. . q
2589  86E9 01 1F 00     	ld bc,31			; 31 chars in line to fill								;86e9	01 1f 00 	. . .
2590  86EC 77           	ld (hl),a			; store 1rs char										;86ec	77 	w
2591  86ED ED B0        	ldir				; fill last line on Screen with char from A				;86ed	ed b0 	. .
2592  86EF 3C           	inc a				; a - next SemiChar to draw on Top&Bottom line			;86ef	3c 	<
2593  86F0 FE FF        	cp $ff				; is less than last char 								;86f0	fe ff 	. .
2594  86F2 38 02        	jr c,l86f6h			; yes - skip reset SemiChar - check space Key press 	;86f2	38 02 	8 .
2595  86F4 3E 80        	ld a,080h			; reset SemiChar to draw next time						;86f4	3e 80 	> .
2596  86F6              l86f6h:
2597  86F6 57           	ld d,a				; d - save SemiChar to draw								;86f6	57 	W
2598  86F7 3A EF 6F     	ld a,(KEYS_ROW_4)		;86f7	3a ef 6f 	: . o
2599  86FA CB 67        	bit 4,a		;86fa	cb 67 	. g
2600  86FC 28 09        	jr z,l8707h		;86fc	28 09 	( .
2601  86FE 01 34 21     	ld bc,02134h		;86fe	01 34 21 	. 4 !
2602  8701 CD 79 86     	call l8679h		;8701	cd 79 86 	. y .
2603  8704 7A           	ld a,d			;8704	7a 	z
2604  8705 18 D0        	jr l86d7h		;8705	18 d0 	. .
2605  8707              l8707h:
2606  8707 3E 03        	ld a,003h		;8707	3e 03 	> .
2607  8709 32 B3 85     	ld (l85b3h),a		;8709	32 b3 85 	2 . .
2608  870C 3E 01        	ld a,001h		;870c	3e 01 	> .
2609  870E 32 B4 85     	ld (l85b4h),a		;870e	32 b4 85 	2 . .
2610  8711 3E 08        	ld a,008h		;8711	3e 08 	> .
2611  8713 32 00 68     	ld (IOLATCH),a		;8713	32 00 68 	2 . h
2612  8716 32 A9 85     	ld (l85a9h),a		;8716	32 a9 85 	2 . .
2613  8719 21 00 00     	ld hl,00000h		;8719	21 00 00 	! . .
2614  871C 22 B5 85     	ld (l85b5h),hl		;871c	22 b5 85 	" . .
2615  871F CD 25 87     	call sub_8725h		;871f	cd 25 87 	. % .
2616  8722 C3 AA 90     	jp l90aah		;8722	c3 aa 90 	. . .
2617  8725              sub_8725h:
2618  8725 21 82 72     	ld hl,07282h		;8725	21 82 72 	! . r
2619  8728 22 AC 85     	ld (l85ach),hl		;8728	22 ac 85 	" . .
2620  872B 3E 02        	ld a,002h		;872b	3e 02 	> .
2621  872D 32 B0 85     	ld (l85aeh+2),a		;872d	32 b0 85 	2 . .
2622  8730 21 BF 85     	ld hl,l85bfh		;8730	21 bf 85 	! . .
2623  8733 11 C0 85     	ld de,l85c0h		;8733	11 c0 85 	. . .
2624  8736 01 96 00     	ld bc,00096h		;8736	01 96 00 	. . .
2625  8739 36 00        	ld (hl),000h		;8739	36 00 	6 .
2626  873B ED B0        	ldir		;873b	ed b0 	. .
2627  873D CD 6B 86     	call sub_866bh		;873d	cd 6b 86 	. k .
2628  8740 21 00 78     	ld hl,07800h		;8740	21 00 78 	! . x
2629  8743 11 01 78     	ld de,07801h		;8743	11 01 78 	. . x
2630  8746 01 40 00     	ld bc,00040h		;8746	01 40 00 	. @ .
2631  8749 36 55        	ld (hl),055h		;8749	36 55 	6 U
2632  874B ED B0        	ldir		;874b	ed b0 	. .
2633  874D CD 81 87     	call sub_8781h		;874d	cd 81 87 	. . .
2634  8750 DD 22 AA 85  	ld (l85aah),ix		;8750	dd 22 aa 85 	. " . .
2635  8754 AF           	xor a			;8754	af 	.
2636  8755 32 A8 85     	ld (l85a8h),a		;8755	32 a8 85 	2 . .
2637  8758 3E 08        	ld a,008h		;8758	3e 08 	> .
2638  875A 32 00 68     	ld (IOLATCH),a		;875a	32 00 68 	2 . h
2639  875D 32 A9 85     	ld (l85a9h),a		;875d	32 a9 85 	2 . .
2640  8760 3E 14        	ld a,014h		;8760	3e 14 	> .
2641  8762 32 B9 85     	ld (l85b9h),a		;8762	32 b9 85 	2 . .
2642  8765 21 00 70     	ld hl,VRAM		;8765	21 00 70 	! . p
2643  8768 11 01 70     	ld de,VRAM+1		;8768	11 01 70 	. . p
2644  876B 01 00 08     	ld bc,00800h		;876b	01 00 08 	. . .
2645  876E 36 00        	ld (hl),000h		;876e	36 00 	6 .
2646  8770 ED B0        	ldir		;8770	ed b0 	. .
2647  8772 AF           	xor a			;8772	af 	.
2648  8773 32 84 8E     	ld (l8e84h),a		;8773	32 84 8e 	2 . .
2649  8776 00           	nop			;8776	00 	.
2650  8777 00           	nop			;8777	00 	.
2651  8778 00           	nop			;8778	00 	.
2652  8779 00           	nop			;8779	00 	.
2653  877A 00           	nop			;877a	00 	.
2654  877B E1           	pop hl			;877b	e1 	.
2655  877C 31 F0 7E     	ld sp,GAME_CPU_STACK		;877c	31 f0 7e 	1 . ~
2656  877F E5           	push hl			;877f	e5 	.
2657  8780 C9           	ret			;8780	c9 	.
2658  8781              sub_8781h:
2659  8781 DD 21 00 7F  	ld ix,07f00h		;8781	dd 21 00 7f 	. ! . 
2660  8785 3A B4 85     	ld a,(l85b4h)		;8785	3a b4 85 	: . .
2661  8788 4F           	ld c,a			;8788	4f 	O
2662  8789              l8789h:
2663  8789 DD 7E 00     	ld a,(ix+000h)		;8789	dd 7e 00 	. ~ .
2664  878C FE FF        	cp 0ffh		;878c	fe ff 	. .
2665  878E 20 06        	jr nz,l8796h		;878e	20 06 	  .
2666  8790 DD 7E 01     	ld a,(ix+001h)		;8790	dd 7e 01 	. ~ .
2667  8793 B9           	cp c			;8793	b9 	.
2668  8794 28 06        	jr z,l879ch		;8794	28 06 	( .
2669  8796              l8796h:
2670  8796 DD 23        	inc ix		;8796	dd 23 	. #
2671  8798 DD 23        	inc ix		;8798	dd 23 	. #
2672  879A 18 ED        	jr l8789h		;879a	18 ed 	. .
2673  879C              l879ch:
2674  879C DD 23        	inc ix		;879c	dd 23 	. #
2675  879E DD 23        	inc ix		;879e	dd 23 	. #
2676  87A0 C9           	ret			;87a0	c9 	.
2677  87A1              sub_87a1h:
2678  87A1 2A AC 85     	ld hl,(l85ach)		;87a1	2a ac 85 	* . .
2679  87A4 00           	nop			;87a4	00 	.
2680  87A5 00           	nop			;87a5	00 	.
2681  87A6 11 20 00     	ld de,00020h		;87a6	11 20 00 	.   .
2682  87A9 19           	add hl,de			;87a9	19 	.
2683  87AA 36 0A        	ld (hl),00ah		;87aa	36 0a 	6 .
2684  87AC 13           	inc de			;87ac	13 	.
2685  87AD 19           	add hl,de			;87ad	19 	.
2686  87AE 36 AA        	ld (hl),0aah		;87ae	36 aa 	6 .
2687  87B0 23           	inc hl			;87b0	23 	#
2688  87B1 36 A0        	ld (hl),0a0h		;87b1	36 a0 	6 .
2689  87B3 11 1E 00     	ld de,0001eh		;87b3	11 1e 00 	. . .
2690  87B6 19           	add hl,de			;87b6	19 	.
2691  87B7 36 0A        	ld (hl),00ah		;87b7	36 0a 	6 .
2692  87B9 23           	inc hl			;87b9	23 	#
2693  87BA 36 AA        	ld (hl),0aah		;87ba	36 aa 	6 .
2694  87BC 23           	inc hl			;87bc	23 	#
2695  87BD 36 AA        	ld (hl),0aah		;87bd	36 aa 	6 .
2696  87BF DD 2A AE 85  	ld ix,(l85aeh)		;87bf	dd 2a ae 85 	. * . .
2697  87C3 DD 7E 00     	ld a,(ix+000h)		;87c3	dd 7e 00 	. ~ .
2698  87C6 FE CE        	cp 0ceh		;87c6	fe ce 	. .
2699  87C8 CC DE 87     	call z,087deh		;87c8	cc de 87 	. . .
2700  87CB DD 23        	inc ix		;87cb	dd 23 	. #
2701  87CD DD 22 AE 85  	ld (l85aeh),ix		;87cd	dd 22 ae 85 	. " . .
2702  87D1 2A AC 85     	ld hl,(l85ach)		;87d1	2a ac 85 	* . .
2703  87D4 11 40 00     	ld de,00040h		;87d4	11 40 00 	. @ .
2704  87D7 19           	add hl,de			;87d7	19 	.
2705  87D8 77           	ld (hl),a			;87d8	77 	w
2706  87D9              l87d9h:
2707  87D9 C9           	ret			;87d9	c9 	.
2708  87DA 0A           	ld a,(bc)			;87da	0a 	.
2709  87DB 06 36        	ld b,036h		;87db	06 36 	. 6
2710  87DD CE DD        	adc a,0ddh		;87dd	ce dd 	. .
2711  87DF 21 D9 87     	ld hl,l87d9h		;87df	21 d9 87 	! . .
2712  87E2 C9           	ret			;87e2	c9 	.
2713  87E3              sub_87e3h:
2714  87E3 21 00 70     	ld hl,VRAM		;87e3	21 00 70 	! . p
2715  87E6 22 BA 85     	ld (l85bah),hl		;87e6	22 ba 85 	" . .
2716  87E9 2A B5 85     	ld hl,(l85b5h)		;87e9	2a b5 85 	* . .
2717  87EC CD 8B 88     	call sub_888bh		;87ec	cd 8b 88 	. . .
2718  87EF 21 00 71     	ld hl,07100h		;87ef	21 00 71 	! . q
2719  87F2 3A B3 85     	ld a,(l85b3h)		;87f2	3a b3 85 	: . .
2720  87F5 47           	ld b,a			;87f5	47 	G
2721  87F6              l87f6h:
2722  87F6 36 C0        	ld (hl),0c0h		;87f6	36 c0 	6 .
2723  87F8 E5           	push hl			;87f8	e5 	.
2724  87F9 11 20 00     	ld de,00020h		;87f9	11 20 00 	.   .
2725  87FC 19           	add hl,de			;87fc	19 	.
2726  87FD 36 FC        	ld (hl),0fch		;87fd	36 fc 	6 .
2727  87FF E1           	pop hl			;87ff	e1 	.
2728  8800 23           	inc hl			;8800	23 	#
2729  8801 10 F3        	djnz l87f6h		;8801	10 f3 	. .
2730  8803 21 0C 70     	ld hl,0700ch		;8803	21 0c 70 	! . p
2731  8806 11 0D 70     	ld de,0700dh		;8806	11 0d 70 	. . p
2732  8809 01 0C 00     	ld bc,0000ch		;8809	01 0c 00 	. . .
2733  880C 36 AA        	ld (hl),0aah		;880c	36 aa 	6 .
2734  880E ED B0        	ldir		;880e	ed b0 	. .
2735  8810 21 AC 70     	ld hl,070ach		;8810	21 ac 70 	! . p
2736  8813 11 AD 70     	ld de,070adh		;8813	11 ad 70 	. . p
2737  8816 01 0C 00     	ld bc,0000ch		;8816	01 0c 00 	. . .
2738  8819 36 AA        	ld (hl),0aah		;8819	36 aa 	6 .
2739  881B ED B0        	ldir		;881b	ed b0 	. .
2740  881D DD 21 2C 70  	ld ix,0702ch		;881d	dd 21 2c 70 	. ! , p
2741  8821 06 07        	ld b,007h		;8821	06 07 	. .
2742  8823 0E 28        	ld c,028h		;8823	0e 28 	. (
2743  8825              l8825h:
2744  8825 DD 71 00     	ld (ix+000h),c		;8825	dd 71 00 	. q .
2745  8828 DD 71 20     	ld (ix+020h),c		;8828	dd 71 20 	. q
2746  882B DD 71 40     	ld (ix+040h),c		;882b	dd 71 40 	. q @
2747  882E DD 71 60     	ld (ix+060h),c		;882e	dd 71 60 	. q `
2748  8831 DD 23        	inc ix		;8831	dd 23 	. #
2749  8833 DD 23        	inc ix		;8833	dd 23 	. #
2750  8835 10 EE        	djnz l8825h		;8835	10 ee 	. .
2751  8837 21 4D 70     	ld hl,0704dh		;8837	21 4d 70 	! M p
2752  883A 0E 00        	ld c,000h		;883a	0e 00 	. .
2753  883C 3A B4 85     	ld a,(l85b4h)		;883c	3a b4 85 	: . .
2754  883F              l883fh:
2755  883F 0C           	inc c			;883f	0c 	.
2756  8840 B9           	cp c			;8840	b9 	.
2757  8841 28 04        	jr z,l8847h		;8841	28 04 	( .
2758  8843 23           	inc hl			;8843	23 	#
2759  8844 23           	inc hl			;8844	23 	#
2760  8845 18 F8        	jr l883fh		;8845	18 f8 	. .
2761  8847              l8847h:
2762  8847 3A BC 85     	ld a,(l85bch)		;8847	3a bc 85 	: . .
2763  884A 3C           	inc a			;884a	3c 	<
2764  884B 32 BC 85     	ld (l85bch),a		;884b	32 bc 85 	2 . .
2765  884E FE 08        	cp 008h		;884e	fe 08 	. .
2766  8850 38 0F        	jr c,l8861h		;8850	38 0f 	8 .
2767  8852 FE 10        	cp 010h		;8852	fe 10 	. .
2768  8854 D4 86 88     	call nc,sub_8886h		;8854	d4 86 88 	. . .
2769  8857 36 55        	ld (hl),055h		;8857	36 55 	6 U
2770  8859 11 20 00     	ld de,00020h		;8859	11 20 00 	.   .
2771  885C 19           	add hl,de			;885c	19 	.
2772  885D 36 55        	ld (hl),055h		;885d	36 55 	6 U
2773  885F 18 08        	jr l8869h		;885f	18 08 	. .
2774  8861              l8861h:
2775  8861 36 FF        	ld (hl),0ffh		;8861	36 ff 	6 .
2776  8863 11 20 00     	ld de,00020h		;8863	11 20 00 	.   .
2777  8866 19           	add hl,de			;8866	19 	.
2778  8867 36 FF        	ld (hl),0ffh		;8867	36 ff 	6 .
2779  8869              l8869h:
2780  8869 21 28 71     	ld hl,07128h		;8869	21 28 71 	! ( q
2781  886C 11 29 71     	ld de,07129h		;886c	11 29 71 	. ) q
2782  886F 01 14 00     	ld bc,00014h		;886f	01 14 00 	. . .
2783  8872 36 FF        	ld (hl),0ffh		;8872	36 ff 	6 .
2784  8874 ED B0        	ldir		;8874	ed b0 	. .
2785  8876 3A B9 85     	ld a,(l85b9h)		;8876	3a b9 85 	: . .
2786  8879 0E 00        	ld c,000h		;8879	0e 00 	. .
2787  887B 21 28 71     	ld hl,07128h		;887b	21 28 71 	! ( q
2788  887E              l887eh:
2789  887E 36 55        	ld (hl),055h		;887e	36 55 	6 U
2790  8880 0C           	inc c			;8880	0c 	.
2791  8881 23           	inc hl			;8881	23 	#
2792  8882 B9           	cp c			;8882	b9 	.
2793  8883 30 F9        	jr nc,l887eh		;8883	30 f9 	0 .
2794  8885 C9           	ret			;8885	c9 	.
2795  8886              sub_8886h:
2796  8886 AF           	xor a			;8886	af 	.
2797  8887 32 BC 85     	ld (l85bch),a		;8887	32 bc 85 	2 . .
2798  888A C9           	ret			;888a	c9 	.
2799  888B              sub_888bh:
2800  888B FD 21 B2 88  	ld iy,l88b2h		;888b	fd 21 b2 88 	. ! . .
2801  888F              l888fh:
2802  888F AF           	xor a			;888f	af 	.
2803  8890 FD 46 01     	ld b,(iy+001h)		;8890	fd 46 01 	. F .
2804  8893 FD 4E 00     	ld c,(iy+000h)		;8893	fd 4e 00 	. N .
2805  8896 B7           	or a			;8896	b7 	.
2806  8897              l8897h:
2807  8897 ED 42        	sbc hl,bc		;8897	ed 42 	. B
2808  8899 38 03        	jr c,l889eh		;8899	38 03 	8 .
2809  889B 3C           	inc a			;889b	3c 	<
2810  889C 18 F9        	jr l8897h		;889c	18 f9 	. .
2811  889E              l889eh:
2812  889E 09           	add hl,bc			;889e	09 	.
2813  889F E5           	push hl			;889f	e5 	.
2814  88A0 D5           	push de			;88a0	d5 	.
2815  88A1 C5           	push bc			;88a1	c5 	.
2816  88A2 CD BC 88     	call 088bch		;88a2	cd bc 88 	. . .
2817  88A5 C1           	pop bc			;88a5	c1 	.
2818  88A6 D1           	pop de			;88a6	d1 	.
2819  88A7 E1           	pop hl			;88a7	e1 	.
2820  88A8 79           	ld a,c			;88a8	79 	y
2821  88A9 FE 01        	cp 001h		;88a9	fe 01 	. .
2822  88AB C8           	ret z			;88ab	c8 	.
2823  88AC FD 23        	inc iy		;88ac	fd 23 	. #
2824  88AE FD 23        	inc iy		;88ae	fd 23 	. #
2825  88B0 18 DD        	jr l888fh		;88b0	18 dd 	. .
2826  88B2              l88b2h:
2827  88B2 10 27        	djnz $+41		;88b2	10 27 	. '
2828  88B4 E8           	ret pe			;88b4	e8 	.
2829  88B5 03           	inc bc			;88b5	03 	.
2830  88B6 64           	ld h,h			;88b6	64 	d
2831  88B7 00           	nop			;88b7	00 	.
2832  88B8 0A           	ld a,(bc)			;88b8	0a 	.
2833  88B9 00           	nop			;88b9	00 	.
2834  88BA 01 00 DD     	ld bc,0dd00h		;88ba	01 00 dd 	. . .
2835  88BD 21 E6 88     	ld hl,l88e6h		;88bd	21 e6 88 	! . .
2836  88C0 FE 00        	cp 000h		;88c0	fe 00 	. .
2837  88C2 28 0B        	jr z,l88cfh		;88c2	28 0b 	( .
2838  88C4 11 05 00     	ld de,00005h		;88c4	11 05 00 	. . .
2839  88C7 0E 00        	ld c,000h		;88c7	0e 00 	. .
2840  88C9              l88c9h:
2841  88C9 0C           	inc c			;88c9	0c 	.
2842  88CA DD 19        	add ix,de		;88ca	dd 19 	. .
2843  88CC B9           	cp c			;88cc	b9 	.
2844  88CD 20 FA        	jr nz,l88c9h		;88cd	20 fa 	  .
2845  88CF              l88cfh:
2846  88CF 11 20 00     	ld de,00020h		;88cf	11 20 00 	.   .
2847  88D2 2A BA 85     	ld hl,(l85bah)		;88d2	2a ba 85 	* . .
2848  88D5 23           	inc hl			;88d5	23 	#
2849  88D6 22 BA 85     	ld (l85bah),hl		;88d6	22 ba 85 	" . .
2850  88D9 2B           	dec hl			;88d9	2b 	+
2851  88DA 06 05        	ld b,005h		;88da	06 05 	. .
2852  88DC              l88dch:
2853  88DC DD 4E 00     	ld c,(ix+000h)		;88dc	dd 4e 00 	. N .
2854  88DF 71           	ld (hl),c			;88df	71 	q
2855  88E0 DD 23        	inc ix		;88e0	dd 23 	. #
2856  88E2 19           	add hl,de			;88e2	19 	.
2857  88E3 10 F7        	djnz l88dch		;88e3	10 f7 	. .
2858  88E5 C9           	ret			;88e5	c9 	.
2859  88E6              l88e6h:
2860  88E6 FC CC CC     	call m,0cccch		;88e6	fc cc cc 	. . .
2861  88E9 CC FC 30     	call z,030fch		;88e9	cc fc 30 	. . 0
2862  88EC 30 30        	jr nc,$+50		;88ec	30 30 	0 0
2863  88EE 30 30        	jr nc,$+50		;88ee	30 30 	0 0
2864  88F0 FC 0C FC     	call m,0fc0ch		;88f0	fc 0c fc 	. . .
2865  88F3 C0           	ret nz			;88f3	c0 	.
2866  88F4 FC FC 0C     	call m,00cfch		;88f4	fc fc 0c 	. . .
2867  88F7 3C           	inc a			;88f7	3c 	<
2868  88F8 0C           	inc c			;88f8	0c 	.
2869  88F9 FC CC CC     	call m,0cccch		;88f9	fc cc cc 	. . .
2870  88FC FC 0C 0C     	call m,00c0ch		;88fc	fc 0c 0c 	. . .
2871  88FF FC C0 FC     	call m,0fcc0h		;88ff	fc c0 fc 	. . .
2872  8902 0C           	inc c			;8902	0c 	.
2873  8903 FC FC C0     	call m,0c0fch		;8903	fc fc c0 	. . .
2874  8906 FC CC FC     	call m,0fccch		;8906	fc cc fc 	. . .
2875  8909 FC 0C 0C     	call m,00c0ch		;8909	fc 0c 0c 	. . .
2876  890C 0C           	inc c			;890c	0c 	.
2877  890D 0C           	inc c			;890d	0c 	.
2878  890E FC CC FC     	call m,0fccch		;890e	fc cc fc 	. . .
2879  8911 CC FC FC     	call z,0fcfch		;8911	cc fc fc 	. . .
2880  8914 CC FC 0C     	call z,00cfch		;8914	cc fc 0c 	. . .
2881  8917 FC DD 2A     	call m,02addh		;8917	fc dd 2a 	. . *
2882  891A AA           	xor d			;891a	aa 	.
2883  891B 85           	add a,l			;891b	85 	.
2884  891C DD 56 00     	ld d,(ix+000h)		;891c	dd 56 00 	. V .
2885  891F DD 5E 01     	ld e,(ix+001h)		;891f	dd 5e 01 	. ^ .
2886  8922 DD 23        	inc ix		;8922	dd 23 	. #
2887  8924 DD 23        	inc ix		;8924	dd 23 	. #
2888  8926 DD 22 AA 85  	ld (l85aah),ix		;8926	dd 22 aa 85 	. " . .
2889  892A 7A           	ld a,d			;892a	7a 	z
2890  892B FE FF        	cp 0ffh		;892b	fe ff 	. .
2891  892D CA 88 89     	jp z,l8988h		;892d	ca 88 89 	. . .
2892  8930 FE C8        	cp 0c8h		;8930	fe c8 	. .
2893  8932 D2 24 8A     	jp nc,l8a24h		;8932	d2 24 8a 	. $ .
2894  8935 D6 2C        	sub 02ch		;8935	d6 2c 	. ,
2895  8937 57           	ld d,a			;8937	57 	W
2896  8938 7B           	ld a,e			;8938	7b 	{
2897  8939 D6 2B        	sub 02bh		;8939	d6 2b 	. +
2898  893B 5F           	ld e,a			;893b	5f 	_
2899  893C 21 1F 78     	ld hl,0781fh		;893c	21 1f 78 	! . x
2900  893F 0E 00        	ld c,000h		;893f	0e 00 	. .
2901  8941              l8941h:
2902  8941 0C           	inc c			;8941	0c 	.
2903  8942 79           	ld a,c			;8942	79 	y
2904  8943 BA           	cp d			;8943	ba 	.
2905  8944 38 07        	jr c,l894dh		;8944	38 07 	8 .
2906  8946 BB           	cp e			;8946	bb 	.
2907  8947 30 04        	jr nc,l894dh		;8947	30 04 	0 .
2908  8949 36 00        	ld (hl),000h		;8949	36 00 	6 .
2909  894B 18 02        	jr l894fh		;894b	18 02 	. .
2910  894D              l894dh:
2911  894D 36 55        	ld (hl),055h		;894d	36 55 	6 U
2912  894F              l894fh:
2913  894F D5           	push de			;894f	d5 	.
2914  8950 11 20 00     	ld de,00020h		;8950	11 20 00 	.   .
2915  8953 19           	add hl,de			;8953	19 	.
2916  8954 D1           	pop de			;8954	d1 	.
2917  8955 FE 2C        	cp 02ch		;8955	fe 2c 	. ,
2918  8957 D0           	ret nc			;8957	d0 	.
2919  8958 18 E7        	jr l8941h		;8958	18 e7 	. .
2920  895A              sub_895ah:
2921  895A 21 01 78     	ld hl,07801h		;895a	21 01 78 	! . x
2922  895D 11 00 78     	ld de,07800h		;895d	11 00 78 	. . x
2923  8960 01 81 05     	ld bc,00581h		;8960	01 81 05 	. . .
2924  8963 ED B0        	ldir		;8963	ed b0 	. .
2925  8965 C9           	ret			;8965	c9 	.
2926  8966 00           	nop			;8966	00 	.
2927  8967 00           	nop			;8967	00 	.
2928  8968 00           	nop			;8968	00 	.
2929  8969 00           	nop			;8969	00 	.
2930  896A 00           	nop			;896a	00 	.
2931  896B 00           	nop			;896b	00 	.
2932  896C 00           	nop			;896c	00 	.
2933  896D 00           	nop			;896d	00 	.
2934  896E 00           	nop			;896e	00 	.
2935  896F 00           	nop			;896f	00 	.
2936  8970 00           	nop			;8970	00 	.
2937  8971 00           	nop			;8971	00 	.
2938  8972 00           	nop			;8972	00 	.
2939  8973 00           	nop			;8973	00 	.
2940  8974 00           	nop			;8974	00 	.
2941  8975 00           	nop			;8975	00 	.
2942  8976 00           	nop			;8976	00 	.
2943  8977 00           	nop			;8977	00 	.
2944  8978 00           	nop			;8978	00 	.
2945  8979 00           	nop			;8979	00 	.
2946  897A              sub_897ah:
2947  897A 21 00 77     	ld hl,07700h		;897a	21 00 77 	! . w
2948  897D 11 01 77     	ld de,07701h		;897d	11 01 77 	. . w
2949  8980 01 00 01     	ld bc,00100h		;8980	01 00 01 	. . .
2950  8983 36 55        	ld (hl),055h		;8983	36 55 	6 U
2951  8985 ED B0        	ldir		;8985	ed b0 	. .
2952  8987 C9           	ret			;8987	c9 	.
2953  8988              l8988h:
2954  8988 7B           	ld a,e			;8988	7b 	{
2955  8989 32 B4 85     	ld (l85b4h),a		;8989	32 b4 85 	2 . .
2956  898C 21 00 70     	ld hl,VRAM		;898c	21 00 70 	! . p
2957  898F 11 01 70     	ld de,VRAM+1		;898f	11 01 70 	. . p
2958  8992 01 40 01     	ld bc,00140h		;8992	01 40 01 	. @ .
2959  8995 36 00        	ld (hl),000h		;8995	36 00 	6 .
2960  8997 ED B0        	ldir		;8997	ed b0 	. .
2961  8999 CD C4 8D     	call sub_8dc4h		;8999	cd c4 8d 	. . .
2962  899C 3E 08        	ld a,008h		;899c	3e 08 	> .
2963  899E 32 A9 85     	ld (l85a9h),a		;899e	32 a9 85 	2 . .
2964  89A1 AF           	xor a			;89a1	af 	.
2965  89A2 32 A8 85     	ld (l85a8h),a		;89a2	32 a8 85 	2 . .
2966  89A5 C3 18 89     	jp 08918h		;89a5	c3 18 89 	. . .
2967  89A8              sub_89a8h:
2968  89A8 3A FE 6F     	ld a,(KEYS_ROW_0)		;89a8	3a fe 6f 	: . o
2969  89AB CB 67        	bit 4,a		;89ab	cb 67 	. g
2970  89AD 28 33        	jr z,l89e2h		;89ad	28 33 	( 3
2971  89AF 3A FD 6F     	ld a,(KEYS_ROW_1)		;89af	3a fd 6f 	: . o
2972  89B2 CB 67        	bit 4,a		;89b2	cb 67 	. g
2973  89B4 28 3A        	jr z,l89f0h		;89b4	28 3a 	( :
2974  89B6              l89b6h:
2975  89B6 3A DF 6F     	ld a,(KEYS_ROW_5)		;89b6	3a df 6f 	: . o
2976  89B9 CB 67        	bit 4,a		;89b9	cb 67 	. g
2977  89BB 28 3F        	jr z,l89fch		;89bb	28 3f 	( ?
2978  89BD CB 57        	bit 2,a		;89bd	cb 57 	. W
2979  89BF 28 4F        	jr z,l8a10h		;89bf	28 4f 	( O
2980  89C1              l89c1h:
2981  89C1 3A EF 6F     	ld a,(KEYS_ROW_4)		;89c1	3a ef 6f 	: . o
2982  89C4 CB 6F        	bit 5,a		;89c4	cb 6f 	. o
2983  89C6 CD 20 8E     	call sub_8e20h		;89c6	cd 20 8e 	.   .
2984  89C9 3A DF 6F     	ld a,(KEYS_ROW_5)		;89c9	3a df 6f 	: . o
2985  89CC FE F5        	cp 0f5h		;89cc	fe f5 	. .
2986  89CE CA 9C 86     	jp z,MAIN		;89ce	ca 9c 86 	. . .
2987  89D1 3A F7 6F     	ld a,(KEYS_ROW_3)		;89d1	3a f7 6f 	: . o
2988  89D4 CB 5F        	bit 3,a		;89d4	cb 5f 	. _
2989  89D6 CC DA 89     	call z,sub_89dah		;89d6	cc da 89 	. . .
2990  89D9 C9           	ret			;89d9	c9 	.
2991  89DA              sub_89dah:
2992  89DA 3A F7 6F     	ld a,(KEYS_ROW_3)		;89da	3a f7 6f 	: . o
2993  89DD CB 6F        	bit 5,a		;89dd	cb 6f 	. o
2994  89DF 20 F9        	jr nz,sub_89dah		;89df	20 f9 	  .
2995  89E1 C9           	ret			;89e1	c9 	.
2996  89E2              l89e2h:
2997  89E2 2A AC 85     	ld hl,(l85ach)		;89e2	2a ac 85 	* . .
2998  89E5 11 20 00     	ld de,00020h		;89e5	11 20 00 	.   .
2999  89E8 B7           	or a			;89e8	b7 	.
3000  89E9 ED 52        	sbc hl,de		;89e9	ed 52 	. R
3001  89EB 22 AC 85     	ld (l85ach),hl		;89eb	22 ac 85 	" . .
3002  89EE 18 C6        	jr l89b6h		;89ee	18 c6 	. .
3003  89F0              l89f0h:
3004  89F0 2A AC 85     	ld hl,(l85ach)		;89f0	2a ac 85 	* . .
3005  89F3 11 20 00     	ld de,00020h		;89f3	11 20 00 	.   .
3006  89F6 19           	add hl,de			;89f6	19 	.
3007  89F7 22 AC 85     	ld (l85ach),hl		;89f7	22 ac 85 	" . .
3008  89FA 18 BA        	jr l89b6h		;89fa	18 ba 	. .
3009  89FC              l89fch:
3010  89FC 3A B0 85     	ld a,(l85aeh+2)		;89fc	3a b0 85 	: . .
3011  89FF FE 02        	cp 002h		;89ff	fe 02 	. .
3012  8A01 38 BE        	jr c,l89c1h		;8a01	38 be 	8 .
3013  8A03 3D           	dec a			;8a03	3d 	=
3014  8A04 32 B0 85     	ld (l85aeh+2),a		;8a04	32 b0 85 	2 . .
3015  8A07 2A AC 85     	ld hl,(l85ach)		;8a07	2a ac 85 	* . .
3016  8A0A 2B           	dec hl			;8a0a	2b 	+
3017  8A0B 22 AC 85     	ld (l85ach),hl		;8a0b	22 ac 85 	" . .
3018  8A0E 18 B1        	jr l89c1h		;8a0e	18 b1 	. .
3019  8A10              l8a10h:
3020  8A10 3A B0 85     	ld a,(l85aeh+2)		;8a10	3a b0 85 	: . .
3021  8A13 FE 14        	cp 014h		;8a13	fe 14 	. .
3022  8A15 30 AA        	jr nc,l89c1h		;8a15	30 aa 	0 .
3023  8A17 3C           	inc a			;8a17	3c 	<
3024  8A18 32 B0 85     	ld (l85aeh+2),a		;8a18	32 b0 85 	2 . .
3025  8A1B 2A AC 85     	ld hl,(l85ach)		;8a1b	2a ac 85 	* . .
3026  8A1E 23           	inc hl			;8a1e	23 	#
3027  8A1F 22 AC 85     	ld (l85ach),hl		;8a1f	22 ac 85 	" . .
3028  8A22 18 9D        	jr l89c1h		;8a22	18 9d 	. .
3029  8A24              l8a24h:
3030  8A24 08           	ex af,af'			;8a24	08 	.
3031  8A25 CD B4 8A     	call sub_8ab4h		;8a25	cd b4 8a 	. . .
3032  8A28 08           	ex af,af'			;8a28	08 	.
3033  8A29 FE DF        	cp 0dfh		;8a29	fe df 	. .
3034  8A2B 28 13        	jr z,l8a40h		;8a2b	28 13 	( .
3035  8A2D FE DE        	cp 0deh		;8a2d	fe de 	. .
3036  8A2F 28 33        	jr z,l8a64h		;8a2f	28 33 	( 3
3037  8A31 FE DD        	cp 0ddh		;8a31	fe dd 	. .
3038  8A33 28 53        	jr z,l8a88h		;8a33	28 53 	( S
3039  8A35 3E 1E        	ld a,01eh		;8a35	3e 1e 	> .
3040  8A37 32 00 86     	ld (l8600h),a		;8a37	32 00 86 	2 . .
3041  8A3A 22 01 86     	ld (l8601h),hl		;8a3a	22 01 86 	" . .
3042  8A3D C3 18 89     	jp 08918h		;8a3d	c3 18 89 	. . .
3043  8A40              l8a40h:
3044  8A40 FD 21 47 86  	ld iy,l8647h		;8a40	fd 21 47 86 	. ! G .
3045  8A44 06 03        	ld b,003h		;8a44	06 03 	. .
3046  8A46              l8a46h:
3047  8A46 FD 7E 00     	ld a,(iy+000h)		;8a46	fd 7e 00 	. ~ .
3048  8A49 FE 00        	cp 000h		;8a49	fe 00 	. .
3049  8A4B 20 0D        	jr nz,l8a5ah		;8a4b	20 0d 	  .
3050  8A4D FD 36 00 1E  	ld (iy+000h),01eh		;8a4d	fd 36 00 1e 	. 6 . .
3051  8A51 FD 75 01     	ld (iy+001h),l		;8a51	fd 75 01 	. u .
3052  8A54 FD 74 02     	ld (iy+002h),h		;8a54	fd 74 02 	. t .
3053  8A57 C3 18 89     	jp 08918h		;8a57	c3 18 89 	. . .
3054  8A5A              l8a5ah:
3055  8A5A 11 03 00     	ld de,00003h		;8a5a	11 03 00 	. . .
3056  8A5D FD 19        	add iy,de		;8a5d	fd 19 	. .
3057  8A5F 10 E5        	djnz l8a46h		;8a5f	10 e5 	. .
3058  8A61 C3 18 89     	jp 08918h		;8a61	c3 18 89 	. . .
3059  8A64              l8a64h:
3060  8A64 FD 21 21 86  	ld iy,l8621h		;8a64	fd 21 21 86 	. ! ! .
3061  8A68 06 09        	ld b,009h		;8a68	06 09 	. .
3062  8A6A              l8a6ah:
3063  8A6A FD 7E 00     	ld a,(iy+000h)		;8a6a	fd 7e 00 	. ~ .
3064  8A6D FE 00        	cp 000h		;8a6d	fe 00 	. .
3065  8A6F 20 0D        	jr nz,l8a7eh		;8a6f	20 0d 	  .
3066  8A71 FD 36 00 1E  	ld (iy+000h),01eh		;8a71	fd 36 00 1e 	. 6 . .
3067  8A75 FD 75 01     	ld (iy+001h),l		;8a75	fd 75 01 	. u .
3068  8A78 FD 74 02     	ld (iy+002h),h		;8a78	fd 74 02 	. t .
3069  8A7B C3 18 89     	jp 08918h		;8a7b	c3 18 89 	. . .
3070  8A7E              l8a7eh:
3071  8A7E 11 03 00     	ld de,00003h		;8a7e	11 03 00 	. . .
3072  8A81 FD 19        	add iy,de		;8a81	fd 19 	. .
3073  8A83 10 E5        	djnz l8a6ah		;8a83	10 e5 	. .
3074  8A85 C3 18 89     	jp 08918h		;8a85	c3 18 89 	. . .
3075  8A88              l8a88h:
3076  8A88 FD 21 03 86  	ld iy,l8603h		;8a88	fd 21 03 86 	. ! . .
3077  8A8C 06 06        	ld b,006h		;8a8c	06 06 	. .
3078  8A8E              l8a8eh:
3079  8A8E FD 7E 00     	ld a,(iy+000h)		;8a8e	fd 7e 00 	. ~ .
3080  8A91 FE 00        	cp 000h		;8a91	fe 00 	. .
3081  8A93 20 15        	jr nz,l8aaah		;8a93	20 15 	  .
3082  8A95 FD 36 00 1E  	ld (iy+000h),01eh		;8a95	fd 36 00 1e 	. 6 . .
3083  8A99 FD 75 01     	ld (iy+001h),l		;8a99	fd 75 01 	. u .
3084  8A9C FD 74 02     	ld (iy+002h),h		;8a9c	fd 74 02 	. t .
3085  8A9F 3E 1D        	ld a,01dh		;8a9f	3e 1d 	> .
3086  8AA1 CD C9 8A     	call sub_8ac9h		;8aa1	cd c9 8a 	. . .
3087  8AA4 FD 77 03     	ld (iy+003h),a		;8aa4	fd 77 03 	. w .
3088  8AA7 C3 18 89     	jp 08918h		;8aa7	c3 18 89 	. . .
3089  8AAA              l8aaah:
3090  8AAA 11 04 00     	ld de,00004h		;8aaa	11 04 00 	. . .
3091  8AAD FD 19        	add iy,de		;8aad	fd 19 	. .
3092  8AAF 10 DD        	djnz l8a8eh		;8aaf	10 dd 	. .
3093  8AB1 C3 18 89     	jp 08918h		;8ab1	c3 18 89 	. . .
3094  8AB4              sub_8ab4h:
3095  8AB4 21 1E 77     	ld hl,0771eh		;8ab4	21 1e 77 	! . w
3096  8AB7 11 20 00     	ld de,00020h		;8ab7	11 20 00 	.   .
3097  8ABA              l8abah:
3098  8ABA B7           	or a			;8aba	b7 	.
3099  8ABB ED 52        	sbc hl,de		;8abb	ed 52 	. R
3100  8ABD 7E           	ld a,(hl)			;8abd	7e 	~
3101  8ABE FE 00        	cp 000h		;8abe	fe 00 	. .
3102  8AC0 20 F8        	jr nz,l8abah		;8ac0	20 f8 	  .
3103  8AC2 ED 52        	sbc hl,de		;8ac2	ed 52 	. R
3104  8AC4 ED 52        	sbc hl,de		;8ac4	ed 52 	. R
3105  8AC6 ED 52        	sbc hl,de		;8ac6	ed 52 	. R
3106  8AC8 C9           	ret			;8ac8	c9 	.
3107  8AC9              sub_8ac9h:
3108  8AC9 4F           	ld c,a			;8ac9	4f 	O
3109  8ACA              l8acah:
3110  8ACA ED 5F        	ld a,r		;8aca	ed 5f 	. _
3111  8ACC B9           	cp c			;8acc	b9 	.
3112  8ACD D8           	ret c			;8acd	d8 	.
3113  8ACE CB 0F        	rrc a		;8ace	cb 0f 	. .
3114  8AD0 B9           	cp c			;8ad0	b9 	.
3115  8AD1 D8           	ret c			;8ad1	d8 	.
3116  8AD2 C5           	push bc			;8ad2	c5 	.
3117  8AD3 47           	ld b,a			;8ad3	47 	G
3118  8AD4              l8ad4h:
3119  8AD4 10 FE        	djnz l8ad4h		;8ad4	10 fe 	. .
3120  8AD6 C1           	pop bc			;8ad6	c1 	.
3121  8AD7 18 F1        	jr l8acah		;8ad7	18 f1 	. .
3122  8AD9              sub_8ad9h:
3123  8AD9 DD 21 21 86  	ld ix,l8621h		;8ad9	dd 21 21 86 	. ! ! .
3124  8ADD 06 09        	ld b,009h		;8add	06 09 	. .
3125  8ADF              l8adfh:
3126  8ADF C5           	push bc			;8adf	c5 	.
3127  8AE0 DD 7E 00     	ld a,(ix+000h)		;8ae0	dd 7e 00 	. ~ .
3128  8AE3 FE 00        	cp 000h		;8ae3	fe 00 	. .
3129  8AE5 28 15        	jr z,l8afch		;8ae5	28 15 	( .
3130  8AE7 DD 35 00     	dec (ix+000h)		;8ae7	dd 35 00 	. 5 .
3131  8AEA DD 66 02     	ld h,(ix+002h)		;8aea	dd 66 02 	. f .
3132  8AED DD 6E 01     	ld l,(ix+001h)		;8aed	dd 6e 01 	. n .
3133  8AF0 2B           	dec hl			;8af0	2b 	+
3134  8AF1 DD 74 02     	ld (ix+002h),h		;8af1	dd 74 02 	. t .
3135  8AF4 DD 75 01     	ld (ix+001h),l		;8af4	dd 75 01 	. u .
3136  8AF7 CD 0B 8B     	call sub_8b0bh		;8af7	cd 0b 8b 	. . .
3137  8AFA 18 06        	jr l8b02h		;8afa	18 06 	. .
3138  8AFC              l8afch:
3139  8AFC 01 0F 00     	ld bc,0000fh		;8afc	01 0f 00 	. . .
3140  8AFF CD 79 86     	call l8679h		;8aff	cd 79 86 	. y .
3141  8B02              l8b02h:
3142  8B02 C1           	pop bc			;8b02	c1 	.
3143  8B03 11 03 00     	ld de,00003h		;8b03	11 03 00 	. . .
3144  8B06 DD 19        	add ix,de		;8b06	dd 19 	. .
3145  8B08 10 D5        	djnz l8adfh		;8b08	10 d5 	. .
3146  8B0A C9           	ret			;8b0a	c9 	.
3147  8B0B              sub_8b0bh:
3148  8B0B E5           	push hl			;8b0b	e5 	.
3149  8B0C FD E1        	pop iy		;8b0c	fd e1 	. .
3150  8B0E FD 36 00 2A  	ld (iy+000h),02ah		;8b0e	fd 36 00 2a 	. 6 . *
3151  8B12 FD 36 01 A8  	ld (iy+001h),0a8h		;8b12	fd 36 01 a8 	. 6 . .
3152  8B16 FD 36 20 25  	ld (iy+020h),025h		;8b16	fd 36 20 25 	. 6   %
3153  8B1A FD 36 21 58  	ld (iy+021h),058h		;8b1a	fd 36 21 58 	. 6 ! X
3154  8B1E FD 36 40 AA  	ld (iy+040h),0aah		;8b1e	fd 36 40 aa 	. 6 @ .
3155  8B22 FD 36 41 AA  	ld (iy+041h),0aah		;8b22	fd 36 41 aa 	. 6 A .
3156  8B26 FD 36 60 82  	ld (iy+060h),082h		;8b26	fd 36 60 82 	. 6 ` .
3157  8B2A FD 36 61 82  	ld (iy+061h),082h		;8b2a	fd 36 61 82 	. 6 a .
3158  8B2E C9           	ret			;8b2e	c9 	.
3159  8B2F              sub_8b2fh:
3160  8B2F 3A 00 86     	ld a,(l8600h)		;8b2f	3a 00 86 	: . .
3161  8B32 FE 00        	cp 000h		;8b32	fe 00 	. .
3162  8B34 C8           	ret z			;8b34	c8 	.
3163  8B35 3D           	dec a			;8b35	3d 	=
3164  8B36 32 00 86     	ld (l8600h),a		;8b36	32 00 86 	2 . .
3165  8B39 2A 01 86     	ld hl,(l8601h)		;8b39	2a 01 86 	* . .
3166  8B3C 2B           	dec hl			;8b3c	2b 	+
3167  8B3D 22 01 86     	ld (l8601h),hl		;8b3d	22 01 86 	" . .
3168  8B40 11 80 00     	ld de,00080h		;8b40	11 80 00 	. . .
3169  8B43 B7           	or a			;8b43	b7 	.
3170  8B44 ED 52        	sbc hl,de		;8b44	ed 52 	. R
3171  8B46 E5           	push hl			;8b46	e5 	.
3172  8B47 DD E1        	pop ix		;8b47	dd e1 	. .
3173  8B49 DD 36 00 0A  	ld (ix+000h),00ah		;8b49	dd 36 00 0a 	. 6 . .
3174  8B4D DD 36 01 A0  	ld (ix+001h),0a0h		;8b4d	dd 36 01 a0 	. 6 . .
3175  8B51 DD 36 20 25  	ld (ix+020h),025h		;8b51	dd 36 20 25 	. 6   %
3176  8B55 DD 36 21 58  	ld (ix+021h),058h		;8b55	dd 36 21 58 	. 6 ! X
3177  8B59 DD 36 40 9A  	ld (ix+040h),09ah		;8b59	dd 36 40 9a 	. 6 @ .
3178  8B5D DD 36 41 A6  	ld (ix+041h),0a6h		;8b5d	dd 36 41 a6 	. 6 A .
3179  8B61 DD 36 60 2A  	ld (ix+060h),02ah		;8b61	dd 36 60 2a 	. 6 ` *
3180  8B65 DD 36 61 A8  	ld (ix+061h),0a8h		;8b65	dd 36 61 a8 	. 6 a .
3181  8B69 19           	add hl,de			;8b69	19 	.
3182  8B6A E5           	push hl			;8b6a	e5 	.
3183  8B6B DD E1        	pop ix		;8b6b	dd e1 	. .
3184  8B6D DD 36 00 0B  	ld (ix+000h),00bh		;8b6d	dd 36 00 0b 	. 6 . .
3185  8B71 DD 36 01 E0  	ld (ix+001h),0e0h		;8b71	dd 36 01 e0 	. 6 . .
3186  8B75 DD 36 20 0B  	ld (ix+020h),00bh		;8b75	dd 36 20 0b 	. 6   .
3187  8B79 DD 36 21 E0  	ld (ix+021h),0e0h		;8b79	dd 36 21 e0 	. 6 ! .
3188  8B7D DD 36 40 22  	ld (ix+040h),022h		;8b7d	dd 36 40 22 	. 6 @ "
3189  8B81 DD 36 41 88  	ld (ix+041h),088h		;8b81	dd 36 41 88 	. 6 A .
3190  8B85 DD 36 60 80  	ld (ix+060h),080h		;8b85	dd 36 60 80 	. 6 ` .
3191  8B89 DD 36 61 02  	ld (ix+061h),002h		;8b89	dd 36 61 02 	. 6 a .
3192  8B8D C9           	ret			;8b8d	c9 	.
3193  8B8E              sub_8b8eh:
3194  8B8E DD 21 47 86  	ld ix,l8647h		;8b8e	dd 21 47 86 	. ! G .
3195  8B92 06 03        	ld b,003h		;8b92	06 03 	. .
3196  8B94              l8b94h:
3197  8B94 C5           	push bc			;8b94	c5 	.
3198  8B95 DD 7E 00     	ld a,(ix+000h)		;8b95	dd 7e 00 	. ~ .
3199  8B98 FE 00        	cp 000h		;8b98	fe 00 	. .
3200  8B9A 28 15        	jr z,l8bb1h		;8b9a	28 15 	( .
3201  8B9C DD 35 00     	dec (ix+000h)		;8b9c	dd 35 00 	. 5 .
3202  8B9F DD 66 02     	ld h,(ix+002h)		;8b9f	dd 66 02 	. f .
3203  8BA2 DD 6E 01     	ld l,(ix+001h)		;8ba2	dd 6e 01 	. n .
3204  8BA5 2B           	dec hl			;8ba5	2b 	+
3205  8BA6 DD 75 01     	ld (ix+001h),l		;8ba6	dd 75 01 	. u .
3206  8BA9 DD 74 02     	ld (ix+002h),h		;8ba9	dd 74 02 	. t .
3207  8BAC CD C0 8B     	call sub_8bc0h		;8bac	cd c0 8b 	. . .
3208  8BAF 18 06        	jr l8bb7h		;8baf	18 06 	. .
3209  8BB1              l8bb1h:
3210  8BB1 01 0F 00     	ld bc,0000fh		;8bb1	01 0f 00 	. . .
3211  8BB4 CD 79 86     	call l8679h		;8bb4	cd 79 86 	. y .
3212  8BB7              l8bb7h:
3213  8BB7 C1           	pop bc			;8bb7	c1 	.
3214  8BB8 11 03 00     	ld de,00003h		;8bb8	11 03 00 	. . .
3215  8BBB DD 19        	add ix,de		;8bbb	dd 19 	. .
3216  8BBD 10 D5        	djnz l8b94h		;8bbd	10 d5 	. .
3217  8BBF C9           	ret			;8bbf	c9 	.
3218  8BC0              sub_8bc0h:
3219  8BC0 E5           	push hl			;8bc0	e5 	.
3220  8BC1 FD E1        	pop iy		;8bc1	fd e1 	. .
3221  8BC3 FD 36 00 C5  	ld (iy+000h),0c5h		;8bc3	fd 36 00 c5 	. 6 . .
3222  8BC7 FD 36 01 53  	ld (iy+001h),053h		;8bc7	fd 36 01 53 	. 6 . S
3223  8BCB FD 36 40 AA  	ld (iy+040h),0aah		;8bcb	fd 36 40 aa 	. 6 @ .
3224  8BCF FD 36 41 AA  	ld (iy+041h),0aah		;8bcf	fd 36 41 aa 	. 6 A .
3225  8BD3 FD 36 60 C3  	ld (iy+060h),0c3h		;8bd3	fd 36 60 c3 	. 6 ` .
3226  8BD7 FD 36 61 C3  	ld (iy+061h),0c3h		;8bd7	fd 36 61 c3 	. 6 a .
3227  8BDB FD 36 20 CC  	ld (iy+020h),0cch		;8bdb	fd 36 20 cc 	. 6   .
3228  8BDF FD 36 21 33  	ld (iy+021h),033h		;8bdf	fd 36 21 33 	. 6 ! 3
3229  8BE3 3A BC 85     	ld a,(l85bch)		;8be3	3a bc 85 	: . .
3230  8BE6 FE 08        	cp 008h		;8be6	fe 08 	. .
3231  8BE8 D8           	ret c			;8be8	d8 	.
3232  8BE9 FD 36 20 CE  	ld (iy+020h),0ceh		;8be9	fd 36 20 ce 	. 6   .
3233  8BED FD 36 21 B3  	ld (iy+021h),0b3h		;8bed	fd 36 21 b3 	. 6 ! .
3234  8BF1 C9           	ret			;8bf1	c9 	.
3235  8BF2              sub_8bf2h:
3236  8BF2 DD 21 03 86  	ld ix,l8603h		;8bf2	dd 21 03 86 	. ! . .
3237  8BF6 06 06        	ld b,006h		;8bf6	06 06 	. .
3238  8BF8              l8bf8h:
3239  8BF8 C5           	push bc			;8bf8	c5 	.
3240  8BF9 DD 7E 00     	ld a,(ix+000h)		;8bf9	dd 7e 00 	. ~ .
3241  8BFC FE 00        	cp 000h		;8bfc	fe 00 	. .
3242  8BFE 28 32        	jr z,l8c32h		;8bfe	28 32 	( 2
3243  8C00 DD 35 00     	dec (ix+000h)		;8c00	dd 35 00 	. 5 .
3244  8C03 DD 66 02     	ld h,(ix+002h)		;8c03	dd 66 02 	. f .
3245  8C06 DD 6E 01     	ld l,(ix+001h)		;8c06	dd 6e 01 	. n .
3246  8C09 2B           	dec hl			;8c09	2b 	+
3247  8C0A DD 75 01     	ld (ix+001h),l		;8c0a	dd 75 01 	. u .
3248  8C0D DD 74 02     	ld (ix+002h),h		;8c0d	dd 74 02 	. t .
3249  8C10 11 80 00     	ld de,00080h		;8c10	11 80 00 	. . .
3250  8C13 B7           	or a			;8c13	b7 	.
3251  8C14 ED 52        	sbc hl,de		;8c14	ed 52 	. R
3252  8C16 36 30        	ld (hl),030h		;8c16	36 30 	6 0
3253  8C18 11 20 00     	ld de,00020h		;8c18	11 20 00 	.   .
3254  8C1B 19           	add hl,de			;8c1b	19 	.
3255  8C1C 36 20        	ld (hl),020h		;8c1c	36 20 	6
3256  8C1E 19           	add hl,de			;8c1e	19 	.
3257  8C1F 36 20        	ld (hl),020h		;8c1f	36 20 	6
3258  8C21 19           	add hl,de			;8c21	19 	.
3259  8C22 36 A8        	ld (hl),0a8h		;8c22	36 a8 	6 .
3260  8C24 19           	add hl,de			;8c24	19 	.
3261  8C25 36 98        	ld (hl),098h		;8c25	36 98 	6 .
3262  8C27 19           	add hl,de			;8c27	19 	.
3263  8C28 36 98        	ld (hl),098h		;8c28	36 98 	6 .
3264  8C2A 19           	add hl,de			;8c2a	19 	.
3265  8C2B 36 88        	ld (hl),088h		;8c2b	36 88 	6 .
3266  8C2D 19           	add hl,de			;8c2d	19 	.
3267  8C2E 36 88        	ld (hl),088h		;8c2e	36 88 	6 .
3268  8C30 18 06        	jr l8c38h		;8c30	18 06 	. .
3269  8C32              l8c32h:
3270  8C32 01 0C 00     	ld bc,0000ch		;8c32	01 0c 00 	. . .
3271  8C35 CD 79 86     	call l8679h		;8c35	cd 79 86 	. y .
3272  8C38              l8c38h:
3273  8C38 C1           	pop bc			;8c38	c1 	.
3274  8C39 11 04 00     	ld de,00004h		;8c39	11 04 00 	. . .
3275  8C3C DD 19        	add ix,de		;8c3c	dd 19 	. .
3276  8C3E 10 B8        	djnz l8bf8h		;8c3e	10 b8 	. .
3277  8C40 C9           	ret			;8c40	c9 	.
3278  8C41              sub_8c41h:
3279  8C41 DD 21 03 86  	ld ix,l8603h		;8c41	dd 21 03 86 	. ! . .
3280  8C45 06 06        	ld b,006h		;8c45	06 06 	. .
3281  8C47              l8c47h:
3282  8C47 C5           	push bc			;8c47	c5 	.
3283  8C48 DD 7E 00     	ld a,(ix+000h)		;8c48	dd 7e 00 	. ~ .
3284  8C4B FE 00        	cp 000h		;8c4b	fe 00 	. .
3285  8C4D 28 31        	jr z,l8c80h		;8c4d	28 31 	( 1
3286  8C4F DD 7E 00     	ld a,(ix+000h)		;8c4f	dd 7e 00 	. ~ .
3287  8C52 DD BE 03     	cp (ix+003h)		;8c52	dd be 03 	. . .
3288  8C55 30 12        	jr nc,l8c69h		;8c55	30 12 	0 .
3289  8C57 DD 66 02     	ld h,(ix+002h)		;8c57	dd 66 02 	. f .
3290  8C5A DD 6E 01     	ld l,(ix+001h)		;8c5a	dd 6e 01 	. n .
3291  8C5D 11 40 00     	ld de,00040h		;8c5d	11 40 00 	. @ .
3292  8C60 B7           	or a			;8c60	b7 	.
3293  8C61 ED 52        	sbc hl,de		;8c61	ed 52 	. R
3294  8C63 DD 75 01     	ld (ix+001h),l		;8c63	dd 75 01 	. u .
3295  8C66 DD 74 02     	ld (ix+002h),h		;8c66	dd 74 02 	. t .
3296  8C69              l8c69h:
3297  8C69 DD 66 02     	ld h,(ix+002h)		;8c69	dd 66 02 	. f .
3298  8C6C DD 6E 01     	ld l,(ix+001h)		;8c6c	dd 6e 01 	. n .
3299  8C6F 11 81 00     	ld de,00081h		;8c6f	11 81 00 	. . .
3300  8C72 B7           	or a			;8c72	b7 	.
3301  8C73 ED 52        	sbc hl,de		;8c73	ed 52 	. R
3302  8C75 7E           	ld a,(hl)			;8c75	7e 	~
3303  8C76 FE 00        	cp 000h		;8c76	fe 00 	. .
3304  8C78 28 0C        	jr z,l8c86h		;8c78	28 0c 	( .
3305  8C7A DD 36 00 00  	ld (ix+000h),000h		;8c7a	dd 36 00 00 	. 6 . .
3306  8C7E 18 06        	jr l8c86h		;8c7e	18 06 	. .
3307  8C80              l8c80h:
3308  8C80 01 0E 00     	ld bc,0000eh		;8c80	01 0e 00 	. . .
3309  8C83 CD 79 86     	call l8679h		;8c83	cd 79 86 	. y .
3310  8C86              l8c86h:
3311  8C86 C1           	pop bc			;8c86	c1 	.
3312  8C87 11 04 00     	ld de,00004h		;8c87	11 04 00 	. . .
3313  8C8A DD 19        	add ix,de		;8c8a	dd 19 	. .
3314  8C8C 10 B9        	djnz l8c47h		;8c8c	10 b9 	. .
3315  8C8E C9           	ret			;8c8e	c9 	.
3316  8C8F              sub_8c8fh:
3317  8C8F 3A B4 85     	ld a,(l85b4h)		;8c8f	3a b4 85 	: . .
3318  8C92 FE 03        	cp 003h		;8c92	fe 03 	. .
3319  8C94 C0           	ret nz			;8c94	c0 	.
3320  8C95 DD 21 E7 85  	ld ix,l85e7h		;8c95	dd 21 e7 85 	. ! . .
3321  8C99 06 06        	ld b,006h		;8c99	06 06 	. .
3322  8C9B              l8c9bh:
3323  8C9B C5           	push bc			;8c9b	c5 	.
3324  8C9C DD 7E 00     	ld a,(ix+000h)		;8c9c	dd 7e 00 	. ~ .
3325  8C9F FE 00        	cp 000h		;8c9f	fe 00 	. .
3326  8CA1 28 21        	jr z,l8cc4h		;8ca1	28 21 	( !
3327  8CA3 DD 35 00     	dec (ix+000h)		;8ca3	dd 35 00 	. 5 .
3328  8CA6 DD 66 02     	ld h,(ix+002h)		;8ca6	dd 66 02 	. f .
3329  8CA9 DD 6E 01     	ld l,(ix+001h)		;8ca9	dd 6e 01 	. n .
3330  8CAC 2B           	dec hl			;8cac	2b 	+
3331  8CAD DD 75 01     	ld (ix+001h),l		;8cad	dd 75 01 	. u .
3332  8CB0 DD 74 02     	ld (ix+002h),h		;8cb0	dd 74 02 	. t .
3333  8CB3 36 30        	ld (hl),030h		;8cb3	36 30 	6 0
3334  8CB5 11 20 00     	ld de,00020h		;8cb5	11 20 00 	.   .
3335  8CB8 19           	add hl,de			;8cb8	19 	.
3336  8CB9 CD F0 8C     	call sub_8cf0h		;8cb9	cd f0 8c 	. . .
3337  8CBC 77           	ld (hl),a			;8cbc	77 	w
3338  8CBD 19           	add hl,de			;8cbd	19 	.
3339  8CBE 77           	ld (hl),a			;8cbe	77 	w
3340  8CBF 19           	add hl,de			;8cbf	19 	.
3341  8CC0 36 30        	ld (hl),030h		;8cc0	36 30 	6 0
3342  8CC2 18 23        	jr l8ce7h		;8cc2	18 23 	. #
3343  8CC4              l8cc4h:
3344  8CC4 3E 78        	ld a,078h		;8cc4	3e 78 	> x
3345  8CC6 CD C9 8A     	call sub_8ac9h		;8cc6	cd c9 8a 	. . .
3346  8CC9 FE 64        	cp 064h		;8cc9	fe 64 	. d
3347  8CCB 38 1A        	jr c,l8ce7h		;8ccb	38 1a 	8 .
3348  8CCD DD 36 00 1D  	ld (ix+000h),01dh		;8ccd	dd 36 00 1d 	. 6 . .
3349  8CD1 3E 1C        	ld a,01ch		;8cd1	3e 1c 	> .
3350  8CD3 CD C9 8A     	call sub_8ac9h		;8cd3	cd c9 8a 	. . .
3351  8CD6 3C           	inc a			;8cd6	3c 	<
3352  8CD7 11 20 00     	ld de,00020h		;8cd7	11 20 00 	.   .
3353  8CDA 21 BE 71     	ld hl,071beh		;8cda	21 be 71 	! . q
3354  8CDD 47           	ld b,a			;8cdd	47 	G
3355  8CDE              l8cdeh:
3356  8CDE 19           	add hl,de			;8cde	19 	.
3357  8CDF 10 FD        	djnz l8cdeh		;8cdf	10 fd 	. .
3358  8CE1 DD 75 01     	ld (ix+001h),l		;8ce1	dd 75 01 	. u .
3359  8CE4 DD 74 02     	ld (ix+002h),h		;8ce4	dd 74 02 	. t .
3360  8CE7              l8ce7h:
3361  8CE7 C1           	pop bc			;8ce7	c1 	.
3362  8CE8 11 03 00     	ld de,00003h		;8ce8	11 03 00 	. . .
3363  8CEB DD 19        	add ix,de		;8ceb	dd 19 	. .
3364  8CED 10 AC        	djnz l8c9bh		;8ced	10 ac 	. .
3365  8CEF C9           	ret			;8cef	c9 	.
3366  8CF0              sub_8cf0h:
3367  8CF0 FD 2A BD 85  	ld iy,(l85bdh)		;8cf0	fd 2a bd 85 	. * . .
3368  8CF4 FD 7E 00     	ld a,(iy+000h)		;8cf4	fd 7e 00 	. ~ .
3369  8CF7 FE FF        	cp 0ffh		;8cf7	fe ff 	. .
3370  8CF9 CC 07 8D     	call z,sub_8d07h		;8cf9	cc 07 8d 	. . .
3371  8CFC FD 23        	inc iy		;8cfc	fd 23 	. #
3372  8CFE FD 22 BD 85  	ld (l85bdh),iy		;8cfe	fd 22 bd 85 	. " . .
3373  8D02              l8d02h:
3374  8D02 C9           	ret			;8d02	c9 	.
3375  8D03 F0           	ret p			;8d03	f0 	.
3376  8D04 FC F3 FF     	call m,0fff3h		;8d04	fc f3 ff 	. . .
3377  8D07              sub_8d07h:
3378  8D07 FD 21 02 8D  	ld iy,l8d02h		;8d07	fd 21 02 8d 	. ! . .
3379  8D0B C9           	ret			;8d0b	c9 	.
3380  8D0C              sub_8d0ch:
3381  8D0C 21 A8 85     	ld hl,l85a8h		;8d0c	21 a8 85 	! . .
3382  8D0F 34           	inc (hl)			;8d0f	34 	4
3383  8D10 7E           	ld a,(hl)			;8d10	7e 	~
3384  8D11 FE 05        	cp 005h		;8d11	fe 05 	. .
3385  8D13 D8           	ret c			;8d13	d8 	.
3386  8D14 36 00        	ld (hl),000h		;8d14	36 00 	6 .
3387  8D16 2A B5 85     	ld hl,(l85b5h)		;8d16	2a b5 85 	* . .
3388  8D19 23           	inc hl			;8d19	23 	#
3389  8D1A 22 B5 85     	ld (l85b5h),hl		;8d1a	22 b5 85 	" . .
3390  8D1D 3A B9 85     	ld a,(l85b9h)		;8d1d	3a b9 85 	: . .
3391  8D20 FE 06        	cp 006h		;8d20	fe 06 	. .
3392  8D22 DC 2E 8D     	call c,sub_8d2eh		;8d22	dc 2e 8d 	. . .
3393  8D25 FE 01        	cp 001h		;8d25	fe 01 	. .
3394  8D27 D8           	ret c			;8d27	d8 	.
3395  8D28 3D           	dec a			;8d28	3d 	=
3396  8D29 32 B9 85     	ld (l85b9h),a		;8d29	32 b9 85 	2 . .
3397  8D2C C9           	ret			;8d2c	c9 	.
3398  8D2D C9           	ret			;8d2d	c9 	.
3399  8D2E              sub_8d2eh:
3400  8D2E 06 FF        	ld b,0ffh		;8d2e	06 ff 	. .
3401  8D30 21 00 68     	ld hl,IOLATCH		;8d30	21 00 68 	! . h
3402  8D33              l8d33h:
3403  8D33 36 09        	ld (hl),009h		;8d33	36 09 	6 .
3404  8D35 C5           	push bc			;8d35	c5 	.
3405  8D36 06 40        	ld b,040h		;8d36	06 40 	. @
3406  8D38              l8d38h:
3407  8D38 10 FE        	djnz l8d38h		;8d38	10 fe 	. .
3408  8D3A C1           	pop bc			;8d3a	c1 	.
3409  8D3B 36 28        	ld (hl),028h		;8d3b	36 28 	6 (
3410  8D3D 10 F4        	djnz l8d33h		;8d3d	10 f4 	. .
3411  8D3F C9           	ret			;8d3f	c9 	.
3412  8D40              l8d40h:
3413  8D40 3A B2 85     	ld a,(l85b2h)		;8d40	3a b2 85 	: . .
3414  8D43 3C           	inc a			;8d43	3c 	<
3415  8D44 32 B2 85     	ld (l85b2h),a		;8d44	32 b2 85 	2 . .
3416  8D47 FE 02        	cp 002h		;8d47	fe 02 	. .
3417  8D49 D8           	ret c			;8d49	d8 	.
3418  8D4A AF           	xor a			;8d4a	af 	.
3419  8D4B 32 B2 85     	ld (l85b2h),a		;8d4b	32 b2 85 	2 . .
3420  8D4E DD 21 BF 85  	ld ix,l85bfh		;8d4e	dd 21 bf 85 	. ! . .
3421  8D52 06 04        	ld b,004h		;8d52	06 04 	. .
3422  8D54              l8d54h:
3423  8D54 DD 7E 00     	ld a,(ix+000h)		;8d54	dd 7e 00 	. ~ .
3424  8D57 FE 00        	cp 000h		;8d57	fe 00 	. .
3425  8D59 20 1E        	jr nz,l8d79h		;8d59	20 1e 	  .
3426  8D5B DD 36 00 01  	ld (ix+000h),001h		;8d5b	dd 36 00 01 	. 6 . .
3427  8D5F 3A B0 85     	ld a,(l85aeh+2)		;8d5f	3a b0 85 	: . .
3428  8D62 C6 03        	add a,003h		;8d62	c6 03 	. .
3429  8D64 DD 77 01     	ld (ix+001h),a		;8d64	dd 77 01 	. w .
3430  8D67 2A AC 85     	ld hl,(l85ach)		;8d67	2a ac 85 	* . .
3431  8D6A 11 63 00     	ld de,00063h		;8d6a	11 63 00 	. c .
3432  8D6D 19           	add hl,de			;8d6d	19 	.
3433  8D6E DD 74 03     	ld (ix+003h),h		;8d6e	dd 74 03 	. t .
3434  8D71 DD 75 02     	ld (ix+002h),l		;8d71	dd 75 02 	. u .
3435  8D74 CD AD 8D     	call sub_8dadh		;8d74	cd ad 8d 	. . .
3436  8D77 18 07        	jr l8d80h		;8d77	18 07 	. .
3437  8D79              l8d79h:
3438  8D79 11 04 00     	ld de,00004h		;8d79	11 04 00 	. . .
3439  8D7C DD 19        	add ix,de		;8d7c	dd 19 	. .
3440  8D7E 10 D4        	djnz l8d54h		;8d7e	10 d4 	. .
3441  8D80              l8d80h:
3442  8D80 DD 21 D3 85  	ld ix,l85d3h		;8d80	dd 21 d3 85 	. ! . .
3443  8D84 06 02        	ld b,002h		;8d84	06 02 	. .
3444  8D86              l8d86h:
3445  8D86 DD 7E 00     	ld a,(ix+000h)		;8d86	dd 7e 00 	. ~ .
3446  8D89 FE 00        	cp 000h		;8d89	fe 00 	. .
3447  8D8B 20 18        	jr nz,l8da5h		;8d8b	20 18 	  .
3448  8D8D DD 36 00 01  	ld (ix+000h),001h		;8d8d	dd 36 00 01 	. 6 . .
3449  8D91 3A B0 85     	ld a,(l85aeh+2)		;8d91	3a b0 85 	: . .
3450  8D94 DD 77 01     	ld (ix+001h),a		;8d94	dd 77 01 	. w .
3451  8D97 2A AC 85     	ld hl,(l85ach)		;8d97	2a ac 85 	* . .
3452  8D9A 11 A3 00     	ld de,000a3h		;8d9a	11 a3 00 	. . .
3453  8D9D 19           	add hl,de			;8d9d	19 	.
3454  8D9E DD 74 03     	ld (ix+003h),h		;8d9e	dd 74 03 	. t .
3455  8DA1 DD 75 02     	ld (ix+002h),l		;8da1	dd 75 02 	. u .
3456  8DA4 C9           	ret			;8da4	c9 	.
3457  8DA5              l8da5h:
3458  8DA5 11 04 00     	ld de,00004h		;8da5	11 04 00 	. . .
3459  8DA8 DD 19        	add ix,de		;8da8	dd 19 	. .
3460  8DAA 10 DA        	djnz l8d86h		;8daa	10 da 	. .
3461  8DAC C9           	ret			;8dac	c9 	.
3462  8DAD              sub_8dadh:
3463  8DAD C5           	push bc			;8dad	c5 	.
3464  8DAE 06 DC        	ld b,0dch		;8dae	06 dc 	. .
3465  8DB0 21 00 68     	ld hl,IOLATCH		;8db0	21 00 68 	! . h
3466  8DB3              l8db3h:
3467  8DB3 36 09        	ld (hl),009h		;8db3	36 09 	6 .
3468  8DB5 C5           	push bc			;8db5	c5 	.
3469  8DB6 06 64        	ld b,064h		;8db6	06 64 	. d
3470  8DB8              l8db8h:
3471  8DB8 10 FE        	djnz l8db8h		;8db8	10 fe 	. .
3472  8DBA C1           	pop bc			;8dba	c1 	.
3473  8DBB 36 28        	ld (hl),028h		;8dbb	36 28 	6 (
3474  8DBD 10 F4        	djnz l8db3h		;8dbd	10 f4 	. .
3475  8DBF CD 2E 8D     	call sub_8d2eh		;8dbf	cd 2e 8d 	. . .
3476  8DC2 C1           	pop bc			;8dc2	c1 	.
3477  8DC3 C9           	ret			;8dc3	c9 	.
3478  8DC4              sub_8dc4h:
3479  8DC4 C5           	push bc			;8dc4	c5 	.
3480  8DC5 CD 2E 8D     	call sub_8d2eh		;8dc5	cd 2e 8d 	. . .
3481  8DC8 CD 2E 8D     	call sub_8d2eh		;8dc8	cd 2e 8d 	. . .
3482  8DCB C1           	pop bc			;8dcb	c1 	.
3483  8DCC C9           	ret			;8dcc	c9 	.
3484  8DCD              sub_8dcdh:
3485  8DCD DD 21 BF 85  	ld ix,l85bfh		;8dcd	dd 21 bf 85 	. ! . .
3486  8DD1 06 04        	ld b,004h		;8dd1	06 04 	. .
3487  8DD3              l8dd3h:
3488  8DD3 C5           	push bc			;8dd3	c5 	.
3489  8DD4 DD 7E 00     	ld a,(ix+000h)		;8dd4	dd 7e 00 	. ~ .
3490  8DD7 FE 00        	cp 000h		;8dd7	fe 00 	. .
3491  8DD9 28 19        	jr z,l8df4h		;8dd9	28 19 	( .
3492  8DDB DD 34 01     	inc (ix+001h)		;8ddb	dd 34 01 	. 4 .
3493  8DDE DD 7E 01     	ld a,(ix+001h)		;8dde	dd 7e 01 	. ~ .
3494  8DE1 FE 1F        	cp 01fh		;8de1	fe 1f 	. .
3495  8DE3 30 1E        	jr nc,l8e03h		;8de3	30 1e 	0 .
3496  8DE5 DD 66 03     	ld h,(ix+003h)		;8de5	dd 66 03 	. f .
3497  8DE8 CD 15 8E     	call sub_8e15h		;8de8	cd 15 8e 	. . .
3498  8DEB 7E           	ld a,(hl)			;8deb	7e 	~
3499  8DEC FE 00        	cp 000h		;8dec	fe 00 	. .
3500  8DEE 20 19        	jr nz,l8e09h		;8dee	20 19 	  .
3501  8DF0 36 33        	ld (hl),033h		;8df0	36 33 	6 3
3502  8DF2 18 06        	jr l8dfah		;8df2	18 06 	. .
3503  8DF4              l8df4h:
3504  8DF4 01 14 00     	ld bc,00014h		;8df4	01 14 00 	. . .
3505  8DF7 CD 79 86     	call l8679h		;8df7	cd 79 86 	. y .
3506  8DFA              l8dfah:
3507  8DFA C1           	pop bc			;8dfa	c1 	.
3508  8DFB 11 04 00     	ld de,00004h		;8dfb	11 04 00 	. . .
3509  8DFE DD 19        	add ix,de		;8dfe	dd 19 	. .
3510  8E00 10 D1        	djnz l8dd3h		;8e00	10 d1 	. .
3511  8E02 C9           	ret			;8e02	c9 	.
3512  8E03              l8e03h:
3513  8E03 DD 36 00 00  	ld (ix+000h),000h		;8e03	dd 36 00 00 	. 6 . .
3514  8E07 18 F1        	jr l8dfah		;8e07	18 f1 	. .
3515  8E09              l8e09h:
3516  8E09 36 FF        	ld (hl),0ffh		;8e09	36 ff 	6 .
3517  8E0B CD 7B 8E     	call sub_8e7bh		;8e0b	cd 7b 8e 	. { .
3518  8E0E CD B3 8E     	call sub_8eb3h		;8e0e	cd b3 8e 	. . .
3519  8E11 18 F0        	jr l8e03h		;8e11	18 f0 	. .
3520  8E13 C9           	ret			;8e13	c9 	.
3521  8E14 C9           	ret			;8e14	c9 	.
3522  8E15              sub_8e15h:
3523  8E15 DD 6E 02     	ld l,(ix+002h)		;8e15	dd 6e 02 	. n .
3524  8E18 23           	inc hl			;8e18	23 	#
3525  8E19 DD 74 03     	ld (ix+003h),h		;8e19	dd 74 03 	. t .
3526  8E1C DD 75 02     	ld (ix+002h),l		;8e1c	dd 75 02 	. u .
3527  8E1F C9           	ret			;8e1f	c9 	.
3528  8E20              sub_8e20h:
3529  8E20 CA 40 8D     	jp z,l8d40h		;8e20	ca 40 8d 	. @ .
3530  8E23 01 70 17     	ld bc,01770h		;8e23	01 70 17 	. p .
3531  8E26 C3 79 86     	jp l8679h		;8e26	c3 79 86 	. y .
3532  8E29              sub_8e29h:
3533  8E29 DD 21 D3 85  	ld ix,l85d3h		;8e29	dd 21 d3 85 	. ! . .
3534  8E2D 06 02        	ld b,002h		;8e2d	06 02 	. .
3535  8E2F              l8e2fh:
3536  8E2F C5           	push bc			;8e2f	c5 	.
3537  8E30 DD 7E 00     	ld a,(ix+000h)		;8e30	dd 7e 00 	. ~ .
3538  8E33 FE 00        	cp 000h		;8e33	fe 00 	. .
3539  8E35 28 25        	jr z,l8e5ch		;8e35	28 25 	( %
3540  8E37 DD 35 01     	dec (ix+001h)		;8e37	dd 35 01 	. 5 .
3541  8E3A DD 7E 01     	ld a,(ix+001h)		;8e3a	dd 7e 01 	. ~ .
3542  8E3D FE 01        	cp 001h		;8e3d	fe 01 	. .
3543  8E3F 38 2A        	jr c,l8e6bh		;8e3f	38 2a 	8 *
3544  8E41 11 40 00     	ld de,00040h		;8e41	11 40 00 	. @ .
3545  8E44 DD 66 03     	ld h,(ix+003h)		;8e44	dd 66 03 	. f .
3546  8E47 DD 6E 02     	ld l,(ix+002h)		;8e47	dd 6e 02 	. n .
3547  8E4A 36 00        	ld (hl),000h		;8e4a	36 00 	6 .
3548  8E4C 19           	add hl,de			;8e4c	19 	.
3549  8E4D DD 74 03     	ld (ix+003h),h		;8e4d	dd 74 03 	. t .
3550  8E50 DD 75 02     	ld (ix+002h),l		;8e50	dd 75 02 	. u .
3551  8E53 7E           	ld a,(hl)			;8e53	7e 	~
3552  8E54 FE 00        	cp 000h		;8e54	fe 00 	. .
3553  8E56 20 19        	jr nz,l8e71h		;8e56	20 19 	  .
3554  8E58 36 FF        	ld (hl),0ffh		;8e58	36 ff 	6 .
3555  8E5A 18 06        	jr l8e62h		;8e5a	18 06 	. .
3556  8E5C              l8e5ch:
3557  8E5C 01 0F 00     	ld bc,0000fh		;8e5c	01 0f 00 	. . .
3558  8E5F CD 79 86     	call l8679h		;8e5f	cd 79 86 	. y .
3559  8E62              l8e62h:
3560  8E62 C1           	pop bc			;8e62	c1 	.
3561  8E63 11 04 00     	ld de,00004h		;8e63	11 04 00 	. . .
3562  8E66 DD 19        	add ix,de		;8e66	dd 19 	. .
3563  8E68 10 C5        	djnz l8e2fh		;8e68	10 c5 	. .
3564  8E6A C9           	ret			;8e6a	c9 	.
3565  8E6B              l8e6bh:
3566  8E6B DD 36 00 00  	ld (ix+000h),000h		;8e6b	dd 36 00 00 	. 6 . .
3567  8E6F 18 F1        	jr l8e62h		;8e6f	18 f1 	. .
3568  8E71              l8e71h:
3569  8E71 36 FF        	ld (hl),0ffh		;8e71	36 ff 	6 .
3570  8E73 CD 7B 8E     	call sub_8e7bh		;8e73	cd 7b 8e 	. { .
3571  8E76 CD B3 8E     	call sub_8eb3h		;8e76	cd b3 8e 	. . .
3572  8E79 18 F0        	jr l8e6bh		;8e79	18 f0 	. .
3573  8E7B              sub_8e7bh:
3574  8E7B 3E 04        	ld a,004h		;8e7b	3e 04 	> .
3575  8E7D 32 84 8E     	ld (l8e84h),a		;8e7d	32 84 8e 	2 . .
3576  8E80 22 85 8E     	ld (l8e85h),hl		;8e80	22 85 8e 	" . .
3577  8E83 C9           	ret			;8e83	c9 	.
3578  8E84              l8e84h:
3579  8E84 00           	nop			;8e84	00 	.
3580  8E85              l8e85h:
3581  8E85 00           	nop			;8e85	00 	.
3582  8E86 00           	nop			;8e86	00 	.
3583  8E87              sub_8e87h:
3584  8E87 3A 84 8E     	ld a,(l8e84h)		;8e87	3a 84 8e 	: . .
3585  8E8A FE 00        	cp 000h		;8e8a	fe 00 	. .
3586  8E8C C8           	ret z			;8e8c	c8 	.
3587  8E8D 3D           	dec a			;8e8d	3d 	=
3588  8E8E 32 84 8E     	ld (l8e84h),a		;8e8e	32 84 8e 	2 . .
3589  8E91 2A 85 8E     	ld hl,(l8e85h)		;8e91	2a 85 8e 	* . .
3590  8E94 2B           	dec hl			;8e94	2b 	+
3591  8E95 22 85 8E     	ld (l8e85h),hl		;8e95	22 85 8e 	" . .
3592  8E98 06 04        	ld b,004h		;8e98	06 04 	. .
3593  8E9A              l8e9ah:
3594  8E9A C5           	push bc			;8e9a	c5 	.
3595  8E9B E5           	push hl			;8e9b	e5 	.
3596  8E9C 06 03        	ld b,003h		;8e9c	06 03 	. .
3597  8E9E              l8e9eh:
3598  8E9E C5           	push bc			;8e9e	c5 	.
3599  8E9F ED 5F        	ld a,r		;8e9f	ed 5f 	. _
3600  8EA1 5F           	ld e,a			;8ea1	5f 	_
3601  8EA2 ED 5F        	ld a,r		;8ea2	ed 5f 	. _
3602  8EA4 83           	add a,e			;8ea4	83 	.
3603  8EA5 77           	ld (hl),a			;8ea5	77 	w
3604  8EA6 23           	inc hl			;8ea6	23 	#
3605  8EA7 C1           	pop bc			;8ea7	c1 	.
3606  8EA8 10 F4        	djnz l8e9eh		;8ea8	10 f4 	. .
3607  8EAA E1           	pop hl			;8eaa	e1 	.
3608  8EAB 11 20 00     	ld de,00020h		;8eab	11 20 00 	.   .
3609  8EAE 19           	add hl,de			;8eae	19 	.
3610  8EAF C1           	pop bc			;8eaf	c1 	.
3611  8EB0 10 E8        	djnz l8e9ah		;8eb0	10 e8 	. .
3612  8EB2 C9           	ret			;8eb2	c9 	.
3613  8EB3              sub_8eb3h:
3614  8EB3 FD 21 47 86  	ld iy,l8647h		;8eb3	fd 21 47 86 	. ! G .
3615  8EB7 06 03        	ld b,003h		;8eb7	06 03 	. .
3616  8EB9              l8eb9h:
3617  8EB9 FD 7E 00     	ld a,(iy+000h)		;8eb9	fd 7e 00 	. ~ .
3618  8EBC FE 00        	cp 000h		;8ebc	fe 00 	. .
3619  8EBE 28 0C        	jr z,l8ecch		;8ebe	28 0c 	( .
3620  8EC0 FD 66 02     	ld h,(iy+002h)		;8ec0	fd 66 02 	. f .
3621  8EC3 FD 6E 01     	ld l,(iy+001h)		;8ec3	fd 6e 01 	. n .
3622  8EC6 CD C8 8F     	call sub_8fc8h		;8ec6	cd c8 8f 	. . .
3623  8EC9 C2 2F 8F     	jp nz,l8f2fh		;8ec9	c2 2f 8f 	. / .
3624  8ECC              l8ecch:
3625  8ECC 11 03 00     	ld de,00003h		;8ecc	11 03 00 	. . .
3626  8ECF FD 19        	add iy,de		;8ecf	fd 19 	. .
3627  8ED1 10 E6        	djnz l8eb9h		;8ed1	10 e6 	. .
3628  8ED3 FD 21 03 86  	ld iy,l8603h		;8ed3	fd 21 03 86 	. ! . .
3629  8ED7 06 06        	ld b,006h		;8ed7	06 06 	. .
3630  8ED9              l8ed9h:
3631  8ED9 FD 7E 00     	ld a,(iy+000h)		;8ed9	fd 7e 00 	. ~ .
3632  8EDC FE 00        	cp 000h		;8edc	fe 00 	. .
3633  8EDE 28 0B        	jr z,l8eebh		;8ede	28 0b 	( .
3634  8EE0 FD 66 02     	ld h,(iy+002h)		;8ee0	fd 66 02 	. f .
3635  8EE3 FD 6E 01     	ld l,(iy+001h)		;8ee3	fd 6e 01 	. n .
3636  8EE6 CD E2 8F     	call sub_8fe2h		;8ee6	cd e2 8f 	. . .
3637  8EE9 20 5C        	jr nz,l8f47h		;8ee9	20 5c 	  \
3638  8EEB              l8eebh:
3639  8EEB 11 04 00     	ld de,00004h		;8eeb	11 04 00 	. . .
3640  8EEE FD 19        	add iy,de		;8eee	fd 19 	. .
3641  8EF0 10 E7        	djnz l8ed9h		;8ef0	10 e7 	. .
3642  8EF2 FD 21 21 86  	ld iy,l8621h		;8ef2	fd 21 21 86 	. ! ! .
3643  8EF6 06 09        	ld b,009h		;8ef6	06 09 	. .
3644  8EF8              l8ef8h:
3645  8EF8 FD 7E 00     	ld a,(iy+000h)		;8ef8	fd 7e 00 	. ~ .
3646  8EFB FE 00        	cp 000h		;8efb	fe 00 	. .
3647  8EFD 28 0B        	jr z,l8f0ah		;8efd	28 0b 	( .
3648  8EFF FD 66 02     	ld h,(iy+002h)		;8eff	fd 66 02 	. f .
3649  8F02 FD 6E 01     	ld l,(iy+001h)		;8f02	fd 6e 01 	. n .
3650  8F05 CD C8 8F     	call sub_8fc8h		;8f05	cd c8 8f 	. . .
3651  8F08 20 4C        	jr nz,l8f56h		;8f08	20 4c 	  L
3652  8F0A              l8f0ah:
3653  8F0A 11 03 00     	ld de,00003h		;8f0a	11 03 00 	. . .
3654  8F0D FD 19        	add iy,de		;8f0d	fd 19 	. .
3655  8F0F 10 E7        	djnz l8ef8h		;8f0f	10 e7 	. .
3656  8F11 3A 00 86     	ld a,(l8600h)		;8f11	3a 00 86 	: . .
3657  8F14 FE 00        	cp 000h		;8f14	fe 00 	. .
3658  8F16 28 0E        	jr z,l8f26h		;8f16	28 0e 	( .
3659  8F18 2A 01 86     	ld hl,(l8601h)		;8f18	2a 01 86 	* . .
3660  8F1B 11 80 00     	ld de,00080h		;8f1b	11 80 00 	. . .
3661  8F1E B7           	or a			;8f1e	b7 	.
3662  8F1F ED 52        	sbc hl,de		;8f1f	ed 52 	. R
3663  8F21 CD C8 8F     	call sub_8fc8h		;8f21	cd c8 8f 	. . .
3664  8F24 20 4F        	jr nz,l8f75h		;8f24	20 4f 	  O
3665  8F26              l8f26h:
3666  8F26 3A B4 85     	ld a,(l85b4h)		;8f26	3a b4 85 	: . .
3667  8F29 FE 02        	cp 002h		;8f29	fe 02 	. .
3668  8F2B C0           	ret nz			;8f2b	c0 	.
3669  8F2C C3 F9 8F     	jp l8ff9h		;8f2c	c3 f9 8f 	. . .
3670  8F2F              l8f2fh:
3671  8F2F 3E 64        	ld a,064h		;8f2f	3e 64 	> d
3672  8F31 CD C9 8A     	call sub_8ac9h		;8f31	cd c9 8a 	. . .
3673  8F34 5F           	ld e,a			;8f34	5f 	_
3674  8F35 3E 32        	ld a,032h		;8f35	3e 32 	> 2
3675  8F37 83           	add a,e			;8f37	83 	.
3676  8F38 16 00        	ld d,000h		;8f38	16 00 	. .
3677  8F3A 5F           	ld e,a			;8f3a	5f 	_
3678  8F3B 2A B5 85     	ld hl,(l85b5h)		;8f3b	2a b5 85 	* . .
3679  8F3E 19           	add hl,de			;8f3e	19 	.
3680  8F3F 22 B5 85     	ld (l85b5h),hl		;8f3f	22 b5 85 	" . .
3681  8F42 FD 36 00 00  	ld (iy+000h),000h		;8f42	fd 36 00 00 	. 6 . .
3682  8F46 C9           	ret			;8f46	c9 	.
3683  8F47              l8f47h:
3684  8F47 11 19 00     	ld de,00019h		;8f47	11 19 00 	. . .
3685  8F4A 2A B5 85     	ld hl,(l85b5h)		;8f4a	2a b5 85 	* . .
3686  8F4D 19           	add hl,de			;8f4d	19 	.
3687  8F4E 22 B5 85     	ld (l85b5h),hl		;8f4e	22 b5 85 	" . .
3688  8F51 FD 36 00 00  	ld (iy+000h),000h		;8f51	fd 36 00 00 	. 6 . .
3689  8F55 C9           	ret			;8f55	c9 	.
3690  8F56              l8f56h:
3691  8F56 FD 36 00 00  	ld (iy+000h),000h		;8f56	fd 36 00 00 	. 6 . .
3692  8F5A 11 0A 00     	ld de,0000ah		;8f5a	11 0a 00 	. . .
3693  8F5D 2A B5 85     	ld hl,(l85b5h)		;8f5d	2a b5 85 	* . .
3694  8F60 19           	add hl,de			;8f60	19 	.
3695  8F61 22 B5 85     	ld (l85b5h),hl		;8f61	22 b5 85 	" . .
3696  8F64 3A B9 85     	ld a,(l85b9h)		;8f64	3a b9 85 	: . .
3697  8F67 C6 0B        	add a,00bh		;8f67	c6 0b 	. .
3698  8F69 32 B9 85     	ld (l85b9h),a		;8f69	32 b9 85 	2 . .
3699  8F6C FE 14        	cp 014h		;8f6c	fe 14 	. .
3700  8F6E D8           	ret c			;8f6e	d8 	.
3701  8F6F 3E 14        	ld a,014h		;8f6f	3e 14 	> .
3702  8F71 32 B9 85     	ld (l85b9h),a		;8f71	32 b9 85 	2 . .
3703  8F74 C9           	ret			;8f74	c9 	.
3704  8F75              l8f75h:
3705  8F75 AF           	xor a			;8f75	af 	.
3706  8F76 32 00 86     	ld (l8600h),a		;8f76	32 00 86 	2 . .
3707  8F79 2A B5 85     	ld hl,(l85b5h)		;8f79	2a b5 85 	* . .
3708  8F7C 11 E8 03     	ld de,003e8h		;8f7c	11 e8 03 	. . .
3709  8F7F 19           	add hl,de			;8f7f	19 	.
3710  8F80 22 B5 85     	ld (l85b5h),hl		;8f80	22 b5 85 	" . .
3711  8F83 CD 5D 86     	call sub_865dh		;8f83	cd 5d 86 	. ] .
3712  8F86
3713  8F86 AF           	xor a				; a - Gfx Mode 0, Sound Off								;8f86	af 	.
3714  8F87 32 00 68     	ld (IOLATCH),a		; reset Gfx Mode 0										;8f87	32 00 68 	2 . h
3715  8F8A 21 B5 8F     	ld hl,TXT_WAVECOMPLETE	; hl - "* WAVE COMPLETE! *" text 					;8f8a	21 b5 8f 	! . .
3716  8F8D 11 07 71     	ld de,VRAM+(8*32)+7 ; screen coord (7,8)char [$7107]						;8f8d	11 07 71 	. . q
3717  8F90 CD 7F 86     	call PRINT_TEXT		; print text on Screen 									;8f90	cd 7f 86 	.  .
3718  8F93 01 00 00     	ld bc,00000h		;8f93	01 00 00 	. . .
3719  8F96 CD 79 86     	call l8679h		;8f96	cd 79 86 	. y .
3720  8F99 3E 01        	ld a,001h		;8f99	3e 01 	> .
3721  8F9B 32 B4 85     	ld (l85b4h),a		;8f9b	32 b4 85 	2 . .
3722  8F9E CD 25 87     	call sub_8725h		;8f9e	cd 25 87 	. % .
3723  8FA1 3A B3 85     	ld a,(l85b3h)		;8fa1	3a b3 85 	: . .
3724  8FA4 3C           	inc a			;8fa4	3c 	<
3725  8FA5 32 B3 85     	ld (l85b3h),a		;8fa5	32 b3 85 	2 . .
3726  8FA8 FE 06        	cp 006h		;8fa8	fe 06 	. .
3727  8FAA DA AA 90     	jp c,l90aah		;8faa	da aa 90 	. . .
3728  8FAD 3E 06        	ld a,006h		;8fad	3e 06 	> .
3729  8FAF 32 B3 85     	ld (l85b3h),a		;8faf	32 b3 85 	2 . .
3730  8FB2 C3 AA 90     	jp l90aah		;8fb2	c3 aa 90 	. . .
3731  8FB5
3732  8FB5              ;***************************************************************************************
3733  8FB5              ;
3734  8FB5              TXT_WAVECOMPLETE:
3735  8FB5 2A 20 57 41  	db	"* WAVE COMPLETE! *$"		;8fb5	2a 20 57 41 56 45 20 43 4f 4d 50 4c 45 54 45 21 20 2a 24
3735  8FB9 56 45 20 43
3735  8FBD 4F 4D 50 4C
3735  8FC1 45 54 45 21
3735  8FC5 20 2A 24
3736  8FC8
3737  8FC8              sub_8fc8h:
3738  8FC8 C5           	push bc			;8fc8	c5 	.
3739  8FC9 06 04        	ld b,004h		;8fc9	06 04 	. .
3740  8FCB 3E FF        	ld a,0ffh		;8fcb	3e ff 	> .
3741  8FCD              l8fcdh:
3742  8FCD BE           	cp (hl)			;8fcd	be 	.
3743  8FCE 28 0D        	jr z,l8fddh		;8fce	28 0d 	( .
3744  8FD0 23           	inc hl			;8fd0	23 	#
3745  8FD1 BE           	cp (hl)			;8fd1	be 	.
3746  8FD2 28 09        	jr z,l8fddh		;8fd2	28 09 	( .
3747  8FD4 11 1F 00     	ld de,0001fh		;8fd4	11 1f 00 	. . .
3748  8FD7 19           	add hl,de			;8fd7	19 	.
3749  8FD8 10 F3        	djnz l8fcdh		;8fd8	10 f3 	. .
3750  8FDA C1           	pop bc			;8fda	c1 	.
3751  8FDB BF           	cp a			;8fdb	bf 	.
3752  8FDC C9           	ret			;8fdc	c9 	.
3753  8FDD              l8fddh:
3754  8FDD C1           	pop bc			;8fdd	c1 	.
3755  8FDE AF           	xor a			;8fde	af 	.
3756  8FDF FE 01        	cp 001h		;8fdf	fe 01 	. .
3757  8FE1 C9           	ret			;8fe1	c9 	.
3758  8FE2              sub_8fe2h:
3759  8FE2 C5           	push bc			;8fe2	c5 	.
3760  8FE3 11 80 00     	ld de,00080h		;8fe3	11 80 00 	. . .
3761  8FE6 B7           	or a			;8fe6	b7 	.
3762  8FE7 ED 52        	sbc hl,de		;8fe7	ed 52 	. R
3763  8FE9 3E FF        	ld a,0ffh		;8fe9	3e ff 	> .
3764  8FEB 06 08        	ld b,008h		;8feb	06 08 	. .
3765  8FED              l8fedh:
3766  8FED BE           	cp (hl)			;8fed	be 	.
3767  8FEE 28 ED        	jr z,l8fddh		;8fee	28 ed 	( .
3768  8FF0 11 20 00     	ld de,00020h		;8ff0	11 20 00 	.   .
3769  8FF3 19           	add hl,de			;8ff3	19 	.
3770  8FF4 10 F7        	djnz l8fedh		;8ff4	10 f7 	. .
3771  8FF6 C1           	pop bc			;8ff6	c1 	.
3772  8FF7 BF           	cp a			;8ff7	bf 	.
3773  8FF8 C9           	ret			;8ff8	c9 	.
3774  8FF9              l8ff9h:
3775  8FF9 C9           	ret			;8ff9	c9 	.
3776  8FFA              sub_8ffah:
3777  8FFA 2A AC 85     	ld hl,(l85ach)		;8ffa	2a ac 85 	* . .
3778  8FFD AF           	xor a			;8ffd	af 	.
3779  8FFE 11 20 00     	ld de,00020h		;8ffe	11 20 00 	.   .
3780  9001 19           	add hl,de			;9001	19 	.
3781  9002 BE           	cp (hl)			;9002	be 	.
3782  9003 20 19        	jr nz,l901eh		;9003	20 19 	  .
3783  9005 13           	inc de			;9005	13 	.
3784  9006 19           	add hl,de			;9006	19 	.
3785  9007 BE           	cp (hl)			;9007	be 	.
3786  9008 20 14        	jr nz,l901eh		;9008	20 14 	  .
3787  900A 23           	inc hl			;900a	23 	#
3788  900B BE           	cp (hl)			;900b	be 	.
3789  900C 20 10        	jr nz,l901eh		;900c	20 10 	  .
3790  900E 11 1E 00     	ld de,0001eh		;900e	11 1e 00 	. . .
3791  9011 19           	add hl,de			;9011	19 	.
3792  9012 BE           	cp (hl)			;9012	be 	.
3793  9013 20 09        	jr nz,l901eh		;9013	20 09 	  .
3794  9015 23           	inc hl			;9015	23 	#
3795  9016 BE           	cp (hl)			;9016	be 	.
3796  9017 20 05        	jr nz,l901eh		;9017	20 05 	  .
3797  9019 23           	inc hl			;9019	23 	#
3798  901A BE           	cp (hl)			;901a	be 	.
3799  901B 20 01        	jr nz,l901eh		;901b	20 01 	  .
3800  901D C9           	ret			;901d	c9 	.
3801  901E              l901eh:
3802  901E 06 64        	ld b,064h		;901e	06 64 	. d
3803  9020              l9020h:
3804  9020 C5           	push bc			;9020	c5 	.
3805  9021 01 00 08     	ld bc,00800h		;9021	01 00 08 	. . .
3806  9024 21 00 70     	ld hl,VRAM		;9024	21 00 70 	! . p
3807  9027              l9027h:
3808  9027 ED 5F        	ld a,r		;9027	ed 5f 	. _
3809  9029 77           	ld (hl),a			;9029	77 	w
3810  902A 23           	inc hl			;902a	23 	#
3811  902B 0B           	dec bc			;902b	0b 	.
3812  902C 78           	ld a,b			;902c	78 	x
3813  902D B1           	or c			;902d	b1 	.
3814  902E 20 F7        	jr nz,l9027h		;902e	20 f7 	  .
3815  9030 C1           	pop bc			;9030	c1 	.
3816  9031 10 ED        	djnz l9020h		;9031	10 ed 	. .
3817  9033 3A B3 85     	ld a,(l85b3h)		;9033	3a b3 85 	: . .
3818  9036 3D           	dec a			;9036	3d 	=
3819  9037 32 B3 85     	ld (l85b3h),a		;9037	32 b3 85 	2 . .
3820  903A FE 00        	cp 000h		;903a	fe 00 	. .
3821  903C 28 06        	jr z,l9044h		;903c	28 06 	( .
3822  903E CD 25 87     	call sub_8725h		;903e	cd 25 87 	. % .
3823  9041 C3 AA 90     	jp l90aah		;9041	c3 aa 90 	. . .
3824  9044              l9044h:
3825  9044 CD 5D 86     	call sub_865dh		;9044	cd 5d 86 	. ] .
3826  9047
3827  9047 AF           	xor a				; a - Gfx Mode 0, Sound Off								;9047	af 	.
3828  9048 32 00 68     	ld (IOLATCH),a		; restore Gfx Mode 0									;9048	32 00 68 	2 . h
3829  904B 21 9A 85     	ld hl,TXT_GAMEOVER	; hl - "* GAME-OVER *" text								;904b	21 9a 85 	! . .
3830  904E 11 89 70     	ld de,VRAM+(4*32)+9 ; screen coord (9,4) char [$7089]						;904e	11 89 70 	. . p
3831  9051 CD 7F 86     	call PRINT_TEXT		; print text on Screen 									;9051	cd 7f 86 	.  .
3832  9054 21 6F 90     	ld hl,TXT_YOURSCORE	; hl - "YOUR SCORE WAS" text 							;9054	21 6f 90 	! o .
3833  9057 11 09 71     	ld de,VRAM+(8*32)+9 ; screen coord (9,8) char [$7109]						;9057	11 09 71 	. . q
3834  905A CD 7F 86     	call PRINT_TEXT		; print text on Screen 									;905a	cd 7f 86 	.  .
3835  905D CD 7E 90     	call sub_907eh		;905d	cd 7e 90 	. ~ .
3836  9060 01 00 00     	ld bc,00000h		;9060	01 00 00 	. . .
3837  9063 CD 79 86     	call l8679h		;9063	cd 79 86 	. y .
3838  9066 CD 79 86     	call l8679h		;9066	cd 79 86 	. y .
3839  9069 CD 79 86     	call l8679h		;9069	cd 79 86 	. y .
3840  906C C3 9C 86     	jp MAIN		;906c	c3 9c 86 	. . .
3841  906F
3842  906F              ;***************************************************************************************
3843  906F              ; Score Summary
3844  906F              ; Text do display on Screen
3845  906F              TXT_YOURSCORE:
3846  906F 59 4F 55 52  	db	"YOUR SCORE WAS$"		;906f	59 4f 55 52 20 53 43 4f 52 45 20 57 41 53 24
3846  9073 20 53 43 4F
3846  9077 52 45 20 57
3846  907B 41 53 24
3847  907E
3848  907E              sub_907eh:
3849  907E 2A B5 85     	ld hl,(l85b5h)		;907e	2a b5 85 	* . .
3850  9081 FD 21 4D 71  	ld iy,0714dh		;9081	fd 21 4d 71 	. ! M q
3851  9085 DD 21 B2 88  	ld ix,l88b2h		;9085	dd 21 b2 88 	. ! . .
3852  9089              l9089h:
3853  9089 AF           	xor a			;9089	af 	.
3854  908A DD 46 01     	ld b,(ix+001h)		;908a	dd 46 01 	. F .
3855  908D DD 4E 00     	ld c,(ix+000h)		;908d	dd 4e 00 	. N .
3856  9090 B7           	or a			;9090	b7 	.
3857  9091              l9091h:
3858  9091 ED 42        	sbc hl,bc		;9091	ed 42 	. B
3859  9093 38 03        	jr c,l9098h		;9093	38 03 	8 .
3860  9095 3C           	inc a			;9095	3c 	<
3861  9096 18 F9        	jr l9091h		;9096	18 f9 	. .
3862  9098              l9098h:
3863  9098 09           	add hl,bc			;9098	09 	.
3864  9099 C6 30        	add a,030h		;9099	c6 30 	. 0
3865  909B FD 77 00     	ld (iy+000h),a		;909b	fd 77 00 	. w .
3866  909E FD 23        	inc iy		;909e	fd 23 	. #
3867  90A0 79           	ld a,c			;90a0	79 	y
3868  90A1 FE 01        	cp 001h		;90a1	fe 01 	. .
3869  90A3 C8           	ret z			;90a3	c8 	.
3870  90A4 DD 23        	inc ix		;90a4	dd 23 	. #
3871  90A6 DD 23        	inc ix		;90a6	dd 23 	. #
3872  90A8 18 DF        	jr l9089h		;90a8	18 df 	. .
3873  90AA              l90aah:
3874  90AA CD 18 89     	call 08918h		;90aa	cd 18 89 	. . .
3875  90AD CD 8F 8C     	call sub_8c8fh		;90ad	cd 8f 8c 	. . .
3876  90B0 CD 90 86     	call sub_8690h		;90b0	cd 90 86 	. . .
3877  90B3 CD 8F 8C     	call sub_8c8fh		;90b3	cd 8f 8c 	. . .
3878  90B6 CD 41 8C     	call sub_8c41h		;90b6	cd 41 8c 	. A .
3879  90B9 CD F2 8B     	call sub_8bf2h		;90b9	cd f2 8b 	. . .
3880  90BC CD 2F 8B     	call sub_8b2fh		;90bc	cd 2f 8b 	. / .
3881  90BF CD 8E 8B     	call sub_8b8eh		;90bf	cd 8e 8b 	. . .
3882  90C2 CD D9 8A     	call sub_8ad9h		;90c2	cd d9 8a 	. . .
3883  90C5 CD A8 89     	call sub_89a8h		;90c5	cd a8 89 	. . .
3884  90C8              l90c8h:
3885  90C8 CD 7A 89     	call sub_897ah		;90c8	cd 7a 89 	. z .
3886  90CB CD FA 8F     	call sub_8ffah		;90cb	cd fa 8f 	. . .
3887  90CE CD A1 87     	call sub_87a1h		;90ce	cd a1 87 	. . .
3888  90D1 CD CD 8D     	call sub_8dcdh		;90d1	cd cd 8d 	. . .
3889  90D4 CD CD 8D     	call sub_8dcdh		;90d4	cd cd 8d 	. . .
3890  90D7 CD 29 8E     	call sub_8e29h		;90d7	cd 29 8e 	. ) .
3891  90DA CD 0C 8D     	call sub_8d0ch		;90da	cd 0c 8d 	. . .
3892  90DD CD E3 87     	call sub_87e3h		;90dd	cd e3 87 	. . .
3893  90E0 CD 5A 89     	call sub_895ah		;90e0	cd 5a 89 	. Z .
3894  90E3 CD 87 8E     	call sub_8e87h		;90e3	cd 87 8e 	. . .
3895  90E6 3A B9 85     	ld a,(l85b9h)		;90e6	3a b9 85 	: . .
3896  90E9 FE 00        	cp 000h		;90e9	fe 00 	. .
3897  90EB 20 0A        	jr nz,l90f7h		;90eb	20 0a 	  .
3898  90ED 2A AC 85     	ld hl,(l85ach)		;90ed	2a ac 85 	* . .
3899  90F0 11 40 00     	ld de,00040h		;90f0	11 40 00 	. @ .
3900  90F3 19           	add hl,de			;90f3	19 	.
3901  90F4 22 AC 85     	ld (l85ach),hl		;90f4	22 ac 85 	" . .
3902  90F7              l90f7h:
3903  90F7 01 B0 36     	ld bc,036b0h		;90f7	01 b0 36 	. . 6
3904  90FA CD 79 86     	call l8679h		;90fa	cd 79 86 	. y .
3905  90FD 31 F0 7E     	ld sp,GAME_CPU_STACK		;90fd	31 f0 7e 	1 . ~
3906  9100 18 A8        	jr l90aah		;9100	18 a8 	. .
3907  9102 00           	nop			;9102	00 	.
3908  9103 00           	nop			;9103	00 	.
3909  9104 00           	nop			;9104	00 	.
3910  9105 00           	nop			;9105	00 	.
3911  9106 9B           	sbc a,e			;9106	9b 	.
3912  9107 92           	sub d			;9107	92 	.
3913  9108 92           	sub d			;9108	92 	.
3914  9109 92           	sub d			;9109	92 	.
3915  910A 92           	sub d			;910a	92 	.
3916  910B 92           	sub d			;910b	92 	.
3917  910C 92           	sub d			;910c	92 	.
3918  910D 92           	sub d			;910d	92 	.
3919  910E 92           	sub d			;910e	92 	.
3920  910F 92           	sub d			;910f	92 	.
3921  9110 92           	sub d			;9110	92 	.
3922  9111 92           	sub d			;9111	92 	.
3923  9112 92           	sub d			;9112	92 	.
3924  9113 92           	sub d			;9113	92 	.
3925  9114 92           	sub d			;9114	92 	.
3926  9115 92           	sub d			;9115	92 	.
3927  9116 92           	sub d			;9116	92 	.
3928  9117 92           	sub d			;9117	92 	.
3929  9118 92           	sub d			;9118	92 	.
3930  9119 92           	sub d			;9119	92 	.
3931  911A 92           	sub d			;911a	92 	.
3932  911B 92           	sub d			;911b	92 	.
3933  911C 92           	sub d			;911c	92 	.
3934  911D 92           	sub d			;911d	92 	.
3935  911E 92           	sub d			;911e	92 	.
3936  911F 92           	sub d			;911f	92 	.
3937  9120 92           	sub d			;9120	92 	.
3938  9121 92           	sub d			;9121	92 	.
3939  9122 92           	sub d			;9122	92 	.
3940  9123 92           	sub d			;9123	92 	.
3941  9124 92           	sub d			;9124	92 	.
3942  9125 92           	sub d			;9125	92 	.
3943  9126 92           	sub d			;9126	92 	.
3944  9127 92           	sub d			;9127	92 	.
3945  9128 92           	sub d			;9128	92 	.
3946  9129 92           	sub d			;9129	92 	.
3947  912A 92           	sub d			;912a	92 	.
3948  912B 92           	sub d			;912b	92 	.
3949  912C 92           	sub d			;912c	92 	.
3950  912D 92           	sub d			;912d	92 	.
3951  912E 92           	sub d			;912e	92 	.
3952  912F 92           	sub d			;912f	92 	.
3953  9130 92           	sub d			;9130	92 	.
3954  9131 92           	sub d			;9131	92 	.
3955  9132 92           	sub d			;9132	92 	.
3956  9133 92           	sub d			;9133	92 	.
3957  9134 92           	sub d			;9134	92 	.
3958  9135 92           	sub d			;9135	92 	.
3959  9136 92           	sub d			;9136	92 	.
3960  9137 92           	sub d			;9137	92 	.
3961  9138 92           	sub d			;9138	92 	.
3962  9139 92           	sub d			;9139	92 	.
3963  913A 92           	sub d			;913a	92 	.
3964  913B 92           	sub d			;913b	92 	.
3965  913C 92           	sub d			;913c	92 	.
3966  913D 92           	sub d			;913d	92 	.
3967  913E 92           	sub d			;913e	92 	.
3968  913F 92           	sub d			;913f	92 	.
3969  9140 92           	sub d			;9140	92 	.
3970  9141 92           	sub d			;9141	92 	.
3971  9142 92           	sub d			;9142	92 	.
3972  9143 92           	sub d			;9143	92 	.
3973  9144 92           	sub d			;9144	92 	.
3974  9145 92           	sub d			;9145	92 	.
3975  9146 92           	sub d			;9146	92 	.
3976  9147 9A           	sbc a,d			;9147	9a 	.
3977  9148 92           	sub d			;9148	92 	.
3978  9149 92           	sub d			;9149	92 	.
3979  914A 92           	sub d			;914a	92 	.
3980  914B 92           	sub d			;914b	92 	.
3981  914C 92           	sub d			;914c	92 	.
3982  914D 92           	sub d			;914d	92 	.
3983  914E 92           	sub d			;914e	92 	.
3984  914F 92           	sub d			;914f	92 	.
3985  9150 92           	sub d			;9150	92 	.
3986  9151 92           	sub d			;9151	92 	.
3987  9152 92           	sub d			;9152	92 	.
3988  9153 92           	sub d			;9153	92 	.
3989  9154 92           	sub d			;9154	92 	.
3990  9155 92           	sub d			;9155	92 	.
3991  9156 92           	sub d			;9156	92 	.
3992  9157 92           	sub d			;9157	92 	.
3993  9158 92           	sub d			;9158	92 	.
3994  9159 92           	sub d			;9159	92 	.
3995  915A 92           	sub d			;915a	92 	.
3996  915B 92           	sub d			;915b	92 	.
3997  915C 92           	sub d			;915c	92 	.
3998  915D 92           	sub d			;915d	92 	.
3999  915E 92           	sub d			;915e	92 	.
4000  915F 92           	sub d			;915f	92 	.
4001  9160 92           	sub d			;9160	92 	.
4002  9161 92           	sub d			;9161	92 	.
4003  9162 92           	sub d			;9162	92 	.
4004  9163 D2 92 D2     	jp nc,0d292h		;9163	d2 92 d2 	. . .
4005  9166 92           	sub d			;9166	92 	.
4006  9167 D2 92 D2     	jp nc,0d292h		;9167	d2 92 d2 	. . .
4007  916A 92           	sub d			;916a	92 	.
4008  916B D2 92 D2     	jp nc,0d292h		;916b	d2 92 d2 	. . .
4009  916E 92           	sub d			;916e	92 	.
4010  916F D2 92 92     	jp nc,09292h		;916f	d2 92 92 	. . .
4011  9172 92           	sub d			;9172	92 	.
4012  9173 92           	sub d			;9173	92 	.
4013  9174 92           	sub d			;9174	92 	.
4014  9175 92           	sub d			;9175	92 	.
4015  9176 92           	sub d			;9176	92 	.
4016  9177 92           	sub d			;9177	92 	.
4017  9178 92           	sub d			;9178	92 	.
4018  9179 92           	sub d			;9179	92 	.
4019  917A 92           	sub d			;917a	92 	.
4020  917B 92           	sub d			;917b	92 	.
4021  917C 92           	sub d			;917c	92 	.
4022  917D 92           	sub d			;917d	92 	.
4023  917E 92           	sub d			;917e	92 	.
4024  917F 92           	sub d			;917f	92 	.
4025  9180 FB           	ei			;9180	fb 	.
4026  9181 52           	ld d,d			;9181	52 	R
4027  9182 52           	ld d,d			;9182	52 	R
4028  9183 12           	ld (de),a			;9183	12 	.
4029  9184 52           	ld d,d			;9184	52 	R
4030  9185 12           	ld (de),a			;9185	12 	.
4031  9186 DB 12        	in a,(012h)		;9186	db 12 	. .
4032  9188 52           	ld d,d			;9188	52 	R
4033  9189 52           	ld d,d			;9189	52 	R
4034  918A 52           	ld d,d			;918a	52 	R
4035  918B 12           	ld (de),a			;918b	12 	.
4036  918C 52           	ld d,d			;918c	52 	R
4037  918D 12           	ld (de),a			;918d	12 	.
4038  918E 52           	ld d,d			;918e	52 	R
4039  918F 12           	ld (de),a			;918f	12 	.
4040  9190 52           	ld d,d			;9190	52 	R
4041  9191 52           	ld d,d			;9191	52 	R
4042  9192 52           	ld d,d			;9192	52 	R
4043  9193 52           	ld d,d			;9193	52 	R
4044  9194 52           	ld d,d			;9194	52 	R
4045  9195 52           	ld d,d			;9195	52 	R
4046  9196 52           	ld d,d			;9196	52 	R
4047  9197 52           	ld d,d			;9197	52 	R
4048  9198 52           	ld d,d			;9198	52 	R
4049  9199 52           	ld d,d			;9199	52 	R
4050  919A 52           	ld d,d			;919a	52 	R
4051  919B 52           	ld d,d			;919b	52 	R
4052  919C 52           	ld d,d			;919c	52 	R
4053  919D 52           	ld d,d			;919d	52 	R
4054  919E 52           	ld d,d			;919e	52 	R
4055  919F 52           	ld d,d			;919f	52 	R
4056  91A0 52           	ld d,d			;91a0	52 	R
4057  91A1 52           	ld d,d			;91a1	52 	R
4058  91A2 52           	ld d,d			;91a2	52 	R
4059  91A3 12           	ld (de),a			;91a3	12 	.
4060  91A4 52           	ld d,d			;91a4	52 	R
4061  91A5 12           	ld (de),a			;91a5	12 	.
4062  91A6 52           	ld d,d			;91a6	52 	R
4063  91A7 12           	ld (de),a			;91a7	12 	.
4064  91A8 52           	ld d,d			;91a8	52 	R
4065  91A9 52           	ld d,d			;91a9	52 	R
4066  91AA 52           	ld d,d			;91aa	52 	R
4067  91AB 12           	ld (de),a			;91ab	12 	.
4068  91AC 52           	ld d,d			;91ac	52 	R
4069  91AD 12           	ld (de),a			;91ad	12 	.
4070  91AE 52           	ld d,d			;91ae	52 	R
4071  91AF 12           	ld (de),a			;91af	12 	.
4072  91B0 52           	ld d,d			;91b0	52 	R
4073  91B1 52           	ld d,d			;91b1	52 	R
4074  91B2 52           	ld d,d			;91b2	52 	R
4075  91B3 52           	ld d,d			;91b3	52 	R
4076  91B4 52           	ld d,d			;91b4	52 	R
4077  91B5 52           	ld d,d			;91b5	52 	R
4078  91B6 52           	ld d,d			;91b6	52 	R
4079  91B7 52           	ld d,d			;91b7	52 	R
4080  91B8 52           	ld d,d			;91b8	52 	R
4081  91B9 52           	ld d,d			;91b9	52 	R
4082  91BA 52           	ld d,d			;91ba	52 	R
4083  91BB 52           	ld d,d			;91bb	52 	R
4084  91BC 52           	ld d,d			;91bc	52 	R
4085  91BD 52           	ld d,d			;91bd	52 	R
4086  91BE 52           	ld d,d			;91be	52 	R
4087  91BF 52           	ld d,d			;91bf	52 	R
4088  91C0 52           	ld d,d			;91c0	52 	R
4089  91C1 52           	ld d,d			;91c1	52 	R
4090  91C2 52           	ld d,d			;91c2	52 	R
4091  91C3 12           	ld (de),a			;91c3	12 	.
4092  91C4 52           	ld d,d			;91c4	52 	R
4093  91C5 12           	ld (de),a			;91c5	12 	.
4094  91C6 52           	ld d,d			;91c6	52 	R
4095  91C7 12           	ld (de),a			;91c7	12 	.
4096  91C8 52           	ld d,d			;91c8	52 	R
4097  91C9 52           	ld d,d			;91c9	52 	R
4098  91CA 52           	ld d,d			;91ca	52 	R
4099  91CB 12           	ld (de),a			;91cb	12 	.
4100  91CC 52           	ld d,d			;91cc	52 	R
4101  91CD 12           	ld (de),a			;91cd	12 	.
4102  91CE 52           	ld d,d			;91ce	52 	R
4103  91CF 12           	ld (de),a			;91cf	12 	.
4104  91D0 52           	ld d,d			;91d0	52 	R
4105  91D1 52           	ld d,d			;91d1	52 	R
4106  91D2 52           	ld d,d			;91d2	52 	R
4107  91D3 52           	ld d,d			;91d3	52 	R
4108  91D4 52           	ld d,d			;91d4	52 	R
4109  91D5 52           	ld d,d			;91d5	52 	R
4110  91D6 52           	ld d,d			;91d6	52 	R
4111  91D7 52           	ld d,d			;91d7	52 	R
4112  91D8 52           	ld d,d			;91d8	52 	R
4113  91D9 52           	ld d,d			;91d9	52 	R
4114  91DA 52           	ld d,d			;91da	52 	R
4115  91DB 52           	ld d,d			;91db	52 	R
4116  91DC 52           	ld d,d			;91dc	52 	R
4117  91DD 52           	ld d,d			;91dd	52 	R
4118  91DE 52           	ld d,d			;91de	52 	R
4119  91DF 52           	ld d,d			;91df	52 	R
4120  91E0 52           	ld d,d			;91e0	52 	R
4121  91E1 52           	ld d,d			;91e1	52 	R
4122  91E2 52           	ld d,d			;91e2	52 	R
4123  91E3 52           	ld d,d			;91e3	52 	R
4124  91E4 52           	ld d,d			;91e4	52 	R
4125  91E5 52           	ld d,d			;91e5	52 	R
4126  91E6 52           	ld d,d			;91e6	52 	R
4127  91E7 12           	ld (de),a			;91e7	12 	.
4128  91E8 52           	ld d,d			;91e8	52 	R
4129  91E9 52           	ld d,d			;91e9	52 	R
4130  91EA 52           	ld d,d			;91ea	52 	R
4131  91EB 52           	ld d,d			;91eb	52 	R
4132  91EC 52           	ld d,d			;91ec	52 	R
4133  91ED 52           	ld d,d			;91ed	52 	R
4134  91EE 52           	ld d,d			;91ee	52 	R
4135  91EF 12           	ld (de),a			;91ef	12 	.
4136  91F0 52           	ld d,d			;91f0	52 	R
4137  91F1 52           	ld d,d			;91f1	52 	R
4138  91F2 52           	ld d,d			;91f2	52 	R
4139  91F3 52           	ld d,d			;91f3	52 	R
4140  91F4 52           	ld d,d			;91f4	52 	R
4141  91F5 52           	ld d,d			;91f5	52 	R
4142  91F6 52           	ld d,d			;91f6	52 	R
4143  91F7 52           	ld d,d			;91f7	52 	R
4144  91F8 52           	ld d,d			;91f8	52 	R
4145  91F9 52           	ld d,d			;91f9	52 	R
4146  91FA 52           	ld d,d			;91fa	52 	R
4147  91FB 52           	ld d,d			;91fb	52 	R
4148  91FC 52           	ld d,d			;91fc	52 	R
4149  91FD 52           	ld d,d			;91fd	52 	R
4150  91FE 52           	ld d,d			;91fe	52 	R
4151  91FF 52           	ld d,d			;91ff	52 	R
4152  9200
# file closed: l:\vz-dis-games\DefencePenetrator\DefencePenetrator.asm
